---
triple:          'arm64-apple-darwin'
binary-path:     ciphers_tests
relocations:
  - { offset: 0x3B, size: 0x8, addend: 0x0, symName: _.str, symObjAddr: 0x1855E0, symBinAddr: 0x1002ACDE0, symSize: 0x0 }
  - { offset: 0x6B, size: 0x8, addend: 0x0, symName: _.str.1, symObjAddr: 0x185620, symBinAddr: 0x1002ACE20, symSize: 0x0 }
  - { offset: 0x93, size: 0x8, addend: 0x0, symName: __ZN12_GLOBAL__N_127CaesarDec_RotVec_Empty_Test10test_info_E, symObjAddr: 0x675CC0, symBinAddr: 0x1004B1900, symSize: 0x0 }
  - { offset: 0x168, size: 0x8, addend: 0x0, symName: __ZN12_GLOBAL__N_129CaesarDec_RotVec_OneElem_Test10test_info_E, symObjAddr: 0x675CE0, symBinAddr: 0x1004B1920, symSize: 0x0 }
  - { offset: 0x23D, size: 0x8, addend: 0x0, symName: __ZN12_GLOBAL__N_135CaesarDec_RotVec_MultipleElems_Test10test_info_E, symObjAddr: 0x675D00, symBinAddr: 0x1004B1940, symSize: 0x0 }
  - { offset: 0x312, size: 0x8, addend: 0x0, symName: __ZN12_GLOBAL__N_125CaesarDec_Clean_Case_Test24gtest_registering_dummy_E, symObjAddr: 0x675D20, symBinAddr: 0x1004B1960, symSize: 0x0 }
  - { offset: 0x3E3, size: 0x8, addend: 0x0, symName: __ZN12_GLOBAL__N_128gtest_CaesarDec_Clean_dummy_E, symObjAddr: 0x675D40, symBinAddr: 0x1004B1980, symSize: 0x0 }
  - { offset: 0x3F6, size: 0x8, addend: 0x0, symName: __ZN12_GLOBAL__N_131CaesarDec_SplitSpaces_Case_Test24gtest_registering_dummy_E, symObjAddr: 0x675D60, symBinAddr: 0x1004B19A0, symSize: 0x0 }
  - { offset: 0x4C7, size: 0x8, addend: 0x0, symName: __ZN12_GLOBAL__N_134gtest_CaesarDec_SplitSpaces_dummy_E, symObjAddr: 0x675D80, symBinAddr: 0x1004B19C0, symSize: 0x0 }
  - { offset: 0x4DA, size: 0x8, addend: 0x0, symName: __ZN12_GLOBAL__N_134CaesarDec_JoinWithSpaces_Case_Test24gtest_registering_dummy_E, symObjAddr: 0x675DA0, symBinAddr: 0x1004B19E0, symSize: 0x0 }
  - { offset: 0x5AB, size: 0x8, addend: 0x0, symName: __ZN12_GLOBAL__N_137gtest_CaesarDec_JoinWithSpaces_dummy_E, symObjAddr: 0x675DC0, symBinAddr: 0x1004B1A00, symSize: 0x0 }
  - { offset: 0x5BE, size: 0x8, addend: 0x0, symName: __ZN12_GLOBAL__N_130CaesarDec_NumWordsIn_Case_Test24gtest_registering_dummy_E, symObjAddr: 0x675DE0, symBinAddr: 0x1004B1A20, symSize: 0x0 }
  - { offset: 0x68F, size: 0x8, addend: 0x0, symName: __ZN12_GLOBAL__N_133gtest_CaesarDec_NumWordsIn_dummy_E, symObjAddr: 0x675E00, symBinAddr: 0x1004B1A40, symSize: 0x0 }
  - { offset: 0x6A8, size: 0x8, addend: 0x0, symName: __ZN12_GLOBAL__N_111NO_GOOD_DECE, symObjAddr: 0x675E20, symBinAddr: 0x1004B1A60, symSize: 0x0 }
  - { offset: 0x6BB, size: 0x8, addend: 0x0, symName: __ZN12_GLOBAL__N_137CaesarDec_CustomDictCommand_Case_Test24gtest_registering_dummy_E, symObjAddr: 0x675E60, symBinAddr: 0x1004B1AA0, symSize: 0x0 }
  - { offset: 0x795, size: 0x8, addend: 0x0, symName: __ZN12_GLOBAL__N_140gtest_CaesarDec_CustomDictCommand_dummy_E, symObjAddr: 0x675E80, symBinAddr: 0x1004B1AC0, symSize: 0x0 }
  - { offset: 0x7AE, size: 0x8, addend: 0x0, symName: __ZN12_GLOBAL__N_111TEXT_PROMPTE, symObjAddr: 0x675EA0, symBinAddr: 0x1004B1AE0, symSize: 0x0 }
  - { offset: 0x7C1, size: 0x8, addend: 0x0, symName: __ZN12_GLOBAL__N_154CaesarDec_FullDictMainCommandPrompt_CommandPrompt_Test10test_info_E, symObjAddr: 0x675EE0, symBinAddr: 0x1004B1B20, symSize: 0x0 }
  - { offset: 0x8D6, size: 0x8, addend: 0x0, symName: __ZN12_GLOBAL__N_139CaesarDec_FullDictMainCommand_Case_Test24gtest_registering_dummy_E, symObjAddr: 0x675F00, symBinAddr: 0x1004B1B40, symSize: 0x0 }
  - { offset: 0x9B1, size: 0x8, addend: 0x0, symName: __ZN12_GLOBAL__N_142gtest_CaesarDec_FullDictMainCommand_dummy_E, symObjAddr: 0x675F20, symBinAddr: 0x1004B1B60, symSize: 0x0 }
  - { offset: 0x9BE, size: 0x8, addend: 0x0, symName: __ZN12_GLOBAL__N_136gtest_CaesarDec_Clean_EvalGenerator_Ev, symObjAddr: 0x1DEC, symBinAddr: 0x100003414, symSize: 0x270 }
  - { offset: 0x9DB, size: 0x8, addend: 0x0, symName: __ZN12_GLOBAL__N_139gtest_CaesarDec_Clean_EvalGenerateName_ERKN7testing13TestParamInfoINSt3__15tupleIJNS2_12basic_stringIcNS2_11char_traitsIcEENS2_9allocatorIcEEEES9_EEEEE, symObjAddr: 0x2064, symBinAddr: 0x10000368C, symSize: 0x330 }
  - { offset: 0xA20, size: 0x8, addend: 0x0, symName: __ZN12_GLOBAL__N_142gtest_CaesarDec_SplitSpaces_EvalGenerator_Ev, symObjAddr: 0x360C, symBinAddr: 0x100004C34, symSize: 0x1688 }
  - { offset: 0xA3D, size: 0x8, addend: 0x0, symName: __ZN12_GLOBAL__N_145gtest_CaesarDec_SplitSpaces_EvalGenerateName_ERKN7testing13TestParamInfoINSt3__15tupleIJNS2_12basic_stringIcNS2_11char_traitsIcEENS2_9allocatorIcEEEENS2_6vectorIS9_NS7_IS9_EEEEEEEEE, symObjAddr: 0x4C9C, symBinAddr: 0x1000062C4, symSize: 0x16DC }
  - { offset: 0xA82, size: 0x8, addend: 0x0, symName: __ZN12_GLOBAL__N_145gtest_CaesarDec_JoinWithSpaces_EvalGenerator_Ev, symObjAddr: 0x75F0, symBinAddr: 0x100008C18, symSize: 0xD8C }
  - { offset: 0xA9F, size: 0x8, addend: 0x0, symName: __ZN12_GLOBAL__N_148gtest_CaesarDec_JoinWithSpaces_EvalGenerateName_ERKN7testing13TestParamInfoINSt3__15tupleIJNS2_6vectorINS2_12basic_stringIcNS2_11char_traitsIcEENS2_9allocatorIcEEEENS8_ISA_EEEESA_EEEEE, symObjAddr: 0x8384, symBinAddr: 0x1000099AC, symSize: 0xE14 }
  - { offset: 0xAE4, size: 0x8, addend: 0x0, symName: __ZN12_GLOBAL__N_141gtest_CaesarDec_NumWordsIn_EvalGenerator_Ev, symObjAddr: 0xA410, symBinAddr: 0x10000BA38, symSize: 0x1B40 }
  - { offset: 0xB01, size: 0x8, addend: 0x0, symName: __ZN12_GLOBAL__N_144gtest_CaesarDec_NumWordsIn_EvalGenerateName_ERKN7testing13TestParamInfoINSt3__15tupleIJNS2_6vectorINS2_12basic_stringIcNS2_11char_traitsIcEENS2_9allocatorIcEEEENS8_ISA_EEEESC_iEEEEE, symObjAddr: 0xBF58, symBinAddr: 0x10000D580, symSize: 0x1BE8 }
  - { offset: 0xB46, size: 0x8, addend: 0x0, symName: __ZN12_GLOBAL__N_148gtest_CaesarDec_CustomDictCommand_EvalGenerator_Ev, symObjAddr: 0xEDB8, symBinAddr: 0x1000103E0, symSize: 0x2914 }
  - { offset: 0xB63, size: 0x8, addend: 0x0, symName: __ZN12_GLOBAL__N_151gtest_CaesarDec_CustomDictCommand_EvalGenerateName_ERKN7testing13TestParamInfoINSt3__15tupleIJNS2_12basic_stringIcNS2_11char_traitsIcEENS2_9allocatorIcEEEENS2_6vectorIS9_NS7_IS9_EEEES9_S9_EEEEE, symObjAddr: 0x116D4, symBinAddr: 0x100012CFC, symSize: 0x2AB0 }
  - { offset: 0xBCF, size: 0x8, addend: 0x0, symName: __ZN12_GLOBAL__N_150gtest_CaesarDec_FullDictMainCommand_EvalGenerator_Ev, symObjAddr: 0x15D74, symBinAddr: 0x10001739C, symSize: 0x4A0 }
  - { offset: 0xBED, size: 0x8, addend: 0x0, symName: __ZN12_GLOBAL__N_153gtest_CaesarDec_FullDictMainCommand_EvalGenerateName_ERKN7testing13TestParamInfoINSt3__15tupleIJNS2_12basic_stringIcNS2_11char_traitsIcEENS2_9allocatorIcEEEES9_S9_EEEEE, symObjAddr: 0x1621C, symBinAddr: 0x100017844, symSize: 0x660 }
  - { offset: 0x1540, size: 0x8, addend: 0x0, symName: __ZN7testing8internal31CanonicalizeForStdLibVersioningENSt3__112basic_stringIcNS1_11char_traitsIcEENS1_9allocatorIcEEEE, symObjAddr: 0x278D8, symBinAddr: 0x100028F00, symSize: 0x248 }
  - { offset: 0x1569, size: 0x8, addend: 0x0, symName: __ZZN7testing8internal31CanonicalizeForStdLibVersioningENSt3__112basic_stringIcNS1_11char_traitsIcEENS1_9allocatorIcEEEEE6prefix, symObjAddr: 0x19DA1E, symBinAddr: 0x1002D2BDE, symSize: 0x0 }
  - { offset: 0x157E, size: 0x8, addend: 0x0, symName: __ZZN7testing8internal31CanonicalizeForStdLibVersioningENSt3__112basic_stringIcNS1_11char_traitsIcEENS1_9allocatorIcEEEEE9to_search, symObjAddr: 0x19DA26, symBinAddr: 0x1002D2BE6, symSize: 0x0 }
  - { offset: 0x6033, size: 0x8, addend: 0x0, symName: __ZN7testing8internal12TypeIdHelperIN12_GLOBAL__N_115CaesarDec_CleanEE6dummy_E, symObjAddr: 0x675F40, symBinAddr: 0x1004B1B80, symSize: 0x0 }
  - { offset: 0x6067, size: 0x8, addend: 0x0, symName: __ZN7testing8internal12TypeIdHelperIN12_GLOBAL__N_121CaesarDec_SplitSpacesEE6dummy_E, symObjAddr: 0x675F60, symBinAddr: 0x1004B1BA0, symSize: 0x0 }
  - { offset: 0x609B, size: 0x8, addend: 0x0, symName: __ZN7testing8internal12TypeIdHelperIN12_GLOBAL__N_124CaesarDec_JoinWithSpacesEE6dummy_E, symObjAddr: 0x675F80, symBinAddr: 0x1004B1BC0, symSize: 0x0 }
  - { offset: 0x60CF, size: 0x8, addend: 0x0, symName: __ZN7testing8internal12TypeIdHelperIN12_GLOBAL__N_120CaesarDec_NumWordsInEE6dummy_E, symObjAddr: 0x675FA0, symBinAddr: 0x1004B1BE0, symSize: 0x0 }
  - { offset: 0x6103, size: 0x8, addend: 0x0, symName: __ZN7testing8internal12TypeIdHelperIN12_GLOBAL__N_127CaesarDec_CustomDictCommandEE6dummy_E, symObjAddr: 0x675FC0, symBinAddr: 0x1004B1C00, symSize: 0x0 }
  - { offset: 0x6137, size: 0x8, addend: 0x0, symName: __ZN7testing8internal12TypeIdHelperIN12_GLOBAL__N_135CaesarDec_FullDictMainCommandPromptEE6dummy_E, symObjAddr: 0x675FE0, symBinAddr: 0x1004B1C20, symSize: 0x0 }
  - { offset: 0x616B, size: 0x8, addend: 0x0, symName: __ZN7testing8internal12TypeIdHelperIN12_GLOBAL__N_129CaesarDec_FullDictMainCommandEE6dummy_E, symObjAddr: 0x676000, symBinAddr: 0x1004B1C40, symSize: 0x0 }
  - { offset: 0x81DE, size: 0x8, addend: 0x0, symName: __ZN7testing8internal9GetTypeIdIN12_GLOBAL__N_135CaesarDec_FullDictMainCommandPromptEEEPKvv, symObjAddr: 0x1418C, symBinAddr: 0x1000157B4, symSize: 0xC }
  - { offset: 0x825B, size: 0x8, addend: 0x0, symName: __ZN7testing8internal33MakePredicateFormatterFromMatcherINS_18PolymorphicMatcherINS0_14IsEmptyMatcherEEEEENS0_29PredicateFormatterFromMatcherIT_EES6_, symObjAddr: 0x18E0C, symBinAddr: 0x10001A434, symSize: 0x1C8 }
  - { offset: 0x8293, size: 0x8, addend: 0x0, symName: __ZN7testing8internal20MatchPrintAndExplainIKNSt3__16vectorINS2_12basic_stringIcNS2_11char_traitsIcEENS2_9allocatorIcEEEENS7_IS9_EEEERSC_EEbRT_RKNS_7MatcherIT0_EEPNS_19MatchResultListenerE, symObjAddr: 0x1B0B0, symBinAddr: 0x10001C6D8, symSize: 0x928 }
  - { offset: 0x844F, size: 0x8, addend: 0x0, symName: __ZN7testing8internal14UniversalPrintINSt3__16vectorINS2_12basic_stringIcNS2_11char_traitsIcEENS2_9allocatorIcEEEENS7_IS9_EEEEEEvRKT_PNS2_13basic_ostreamIcS6_EE, symObjAddr: 0x25E6C, symBinAddr: 0x100027494, symSize: 0x64 }
  - { offset: 0x8491, size: 0x8, addend: 0x0, symName: __ZN7testing8internal11GetTypeNameIKNSt3__16vectorINS2_12basic_stringIcNS2_11char_traitsIcEENS2_9allocatorIcEEEENS7_IS9_EEEEEES9_v, symObjAddr: 0x25F78, symBinAddr: 0x1000275A0, symSize: 0x2C }
  - { offset: 0x84B8, size: 0x8, addend: 0x0, symName: __ZN7testing8internal18IsReadableTypeNameERKNSt3__112basic_stringIcNS1_11char_traitsIcEENS1_9allocatorIcEEEE, symObjAddr: 0x25FAC, symBinAddr: 0x1000275D4, symSize: 0xB4 }
  - { offset: 0x84E6, size: 0x8, addend: 0x0, symName: __ZN7testing8internal15PrintIfNotEmptyERKNSt3__112basic_stringIcNS1_11char_traitsIcEENS1_9allocatorIcEEEEPNS1_13basic_ostreamIcS4_EE, symObjAddr: 0x26068, symBinAddr: 0x100027690, symSize: 0x128 }
  - { offset: 0x854B, size: 0x8, addend: 0x0, symName: __ZN7testing8internal7PrintToINSt3__16vectorINS2_12basic_stringIcNS2_11char_traitsIcEENS2_9allocatorIcEEEENS7_IS9_EEEEEEvRKT_PNS2_13basic_ostreamIcS6_EE, symObjAddr: 0x26204, symBinAddr: 0x10002782C, symSize: 0x64 }
  - { offset: 0x858D, size: 0x8, addend: 0x0, symName: __ZN7testing8internal17PrintWithFallbackINSt3__16vectorINS2_12basic_stringIcNS2_11char_traitsIcEENS2_9allocatorIcEEEENS7_IS9_EEEEEEvRKT_PNS2_13basic_ostreamIcS6_EE, symObjAddr: 0x26270, symBinAddr: 0x100027898, symSize: 0x64 }
  - { offset: 0x85F9, size: 0x8, addend: 0x0, symName: __ZN7testing8internal14UniversalPrintINSt3__112basic_stringIcNS2_11char_traitsIcEENS2_9allocatorIcEEEEEEvRKT_PNS2_13basic_ostreamIcS5_EE, symObjAddr: 0x26D48, symBinAddr: 0x100028370, symSize: 0x64 }
  - { offset: 0x8665, size: 0x8, addend: 0x0, symName: __ZN7testing8internal7PrintToERKNSt3__112basic_stringIcNS1_11char_traitsIcEENS1_9allocatorIcEEEEPNS1_13basic_ostreamIcS4_EE, symObjAddr: 0x27398, symBinAddr: 0x1000289C0, symSize: 0x64 }
  - { offset: 0x869E, size: 0x8, addend: 0x0, symName: __ZN7testing8internal11GetTypeNameERKSt9type_info, symObjAddr: 0x27404, symBinAddr: 0x100028A2C, symSize: 0x420 }
  - { offset: 0x8714, size: 0x8, addend: 0x0, symName: __ZN7testing8internal33MakePredicateFormatterFromMatcherINS0_9EqMatcherIPNSt3__112basic_stringIcNS3_11char_traitsIcEENS3_9allocatorIcEEEEEEEENS0_29PredicateFormatterFromMatcherIT_EESD_, symObjAddr: 0x2E190, symBinAddr: 0x10002F7B8, symSize: 0x1C4 }
  - { offset: 0x874C, size: 0x8, addend: 0x0, symName: __ZN7testing8internal33MakePredicateFormatterFromMatcherINS0_23ElementsAreArrayMatcherIPKcEEEENS0_29PredicateFormatterFromMatcherIT_EES7_, symObjAddr: 0x2F1BC, symBinAddr: 0x1000307E4, symSize: 0x2D8 }
  - { offset: 0x8785, size: 0x8, addend: 0x0, symName: __ZN7testing8internal20MatchPrintAndExplainIKPNSt3__112basic_stringIcNS2_11char_traitsIcEENS2_9allocatorIcEEEERSA_EEbRT_RKNS_7MatcherIT0_EEPNS_19MatchResultListenerE, symObjAddr: 0x35EE8, symBinAddr: 0x100037510, symSize: 0x904 }
  - { offset: 0x88B7, size: 0x8, addend: 0x0, symName: __ZN7testing8internal14UniversalPrintIPNSt3__112basic_stringIcNS2_11char_traitsIcEENS2_9allocatorIcEEEEEEvRKT_PNS2_13basic_ostreamIcS5_EE, symObjAddr: 0x382C4, symBinAddr: 0x1000398EC, symSize: 0x64 }
  - { offset: 0x8925, size: 0x8, addend: 0x0, symName: __ZN7testing8internal7PrintToIPNSt3__112basic_stringIcNS2_11char_traitsIcEENS2_9allocatorIcEEEEEEvRKT_PNS2_13basic_ostreamIcS5_EE, symObjAddr: 0x3839C, symBinAddr: 0x1000399C4, symSize: 0x64 }
  - { offset: 0x8967, size: 0x8, addend: 0x0, symName: __ZN7testing8internal17PrintWithFallbackIPNSt3__112basic_stringIcNS2_11char_traitsIcEENS2_9allocatorIcEEEEEEvRKT_PNS2_13basic_ostreamIcS5_EE, symObjAddr: 0x38408, symBinAddr: 0x100039A30, symSize: 0x64 }
  - { offset: 0x89D2, size: 0x8, addend: 0x0, symName: __ZN7testing8internal11GetTypeNameIKPNSt3__112basic_stringIcNS2_11char_traitsIcEENS2_9allocatorIcEEEEEES8_v, symObjAddr: 0x398BC, symBinAddr: 0x10003AEE4, symSize: 0x2C }
  - { offset: 0x8BBD, size: 0x8, addend: 0x0, symName: __ZN7testing8internal33MakePredicateFormatterFromMatcherINS_18PolymorphicMatcherINS0_18StrEqualityMatcherINSt3__112basic_stringIcNS4_11char_traitsIcEENS4_9allocatorIcEEEEEEEEEENS0_29PredicateFormatterFromMatcherIT_EESE_, symObjAddr: 0x5C784, symBinAddr: 0x10005DDAC, symSize: 0x2D0 }
  - { offset: 0x8BF6, size: 0x8, addend: 0x0, symName: __ZN7testing8internal20MatchPrintAndExplainIKNSt3__112basic_stringIcNS2_11char_traitsIcEENS2_9allocatorIcEEEERS9_EEbRT_RKNS_7MatcherIT0_EEPNS_19MatchResultListenerE, symObjAddr: 0x5E560, symBinAddr: 0x10005FB88, symSize: 0x904 }
  - { offset: 0x8D28, size: 0x8, addend: 0x0, symName: __ZN7testing8internal27CaseInsensitiveStringEqualsINSt3__112basic_stringIcNS2_11char_traitsIcEENS2_9allocatorIcEEEEEEbRKT_SB_, symObjAddr: 0x603E8, symBinAddr: 0x100061A10, symSize: 0x580 }
  - { offset: 0x8DA0, size: 0x8, addend: 0x0, symName: __ZN7testing8internal28CaseInsensitiveCStringEqualsEPKcS2_, symObjAddr: 0x60970, symBinAddr: 0x100061F98, symSize: 0x2C }
  - { offset: 0x8DDD, size: 0x8, addend: 0x0, symName: __ZN7testing8internal11GetTypeNameIKNSt3__112basic_stringIcNS2_11char_traitsIcEENS2_9allocatorIcEEEEEES8_v, symObjAddr: 0x633C4, symBinAddr: 0x1000649EC, symSize: 0x2C }
  - { offset: 0x8E04, size: 0x8, addend: 0x0, symName: __ZN7testing8internal27CheckedDowncastToActualTypeIKNS0_30ValuesInIteratorRangeGeneratorINSt3__15tupleIJNS3_12basic_stringIcNS3_11char_traitsIcEENS3_9allocatorIcEEEESA_EEEE8IteratorEKNS0_22ParamIteratorInterfaceISB_EEEEPT_PT0_, symObjAddr: 0x6E518, symBinAddr: 0x10006FB40, symSize: 0x3A4 }
  - { offset: 0x8E45, size: 0x8, addend: 0x0, symName: __ZN7testing8internal11AlwaysFalseEv, symObjAddr: 0x72178, symBinAddr: 0x1000737A0, symSize: 0x18 }
  - { offset: 0x8E63, size: 0x8, addend: 0x0, symName: __ZN7testing8internal12TestNotEmptyIFNSt3__112basic_stringIcNS2_11char_traitsIcEENS2_9allocatorIcEEEERKNS_13TestParamInfoINS2_5tupleIJS8_S8_EEEEEEEEvRKT_, symObjAddr: 0x72198, symBinAddr: 0x1000737C0, symSize: 0x10 }
  - { offset: 0x8E92, size: 0x8, addend: 0x0, symName: __ZN7testing8internal16DefaultParamNameINSt3__15tupleIJNS2_12basic_stringIcNS2_11char_traitsIcEENS2_9allocatorIcEEEES9_EEEEES9_RKNS_13TestParamInfoIT_EE, symObjAddr: 0x721B0, symBinAddr: 0x1000737D8, symSize: 0xA0 }
  - { offset: 0x8EC9, size: 0x8, addend: 0x0, symName: __ZN7testing8internal33MakePredicateFormatterFromMatcherINS0_23ElementsAreArrayMatcherINSt3__112basic_stringIcNS3_11char_traitsIcEENS3_9allocatorIcEEEEEEEENS0_29PredicateFormatterFromMatcherIT_EESC_, symObjAddr: 0x7C8C8, symBinAddr: 0x10007DEF0, symSize: 0x2D8 }
  - { offset: 0x903E, size: 0x8, addend: 0x0, symName: __ZN7testing8internal27CheckedDowncastToActualTypeIKNS0_30ValuesInIteratorRangeGeneratorINSt3__15tupleIJNS3_12basic_stringIcNS3_11char_traitsIcEENS3_9allocatorIcEEEENS3_6vectorISA_NS8_ISA_EEEEEEEE8IteratorEKNS0_22ParamIteratorInterfaceISE_EEEEPT_PT0_, symObjAddr: 0x8D9A4, symBinAddr: 0x10008EFCC, symSize: 0x3A4 }
  - { offset: 0x907F, size: 0x8, addend: 0x0, symName: __ZN7testing8internal12TestNotEmptyIFNSt3__112basic_stringIcNS2_11char_traitsIcEENS2_9allocatorIcEEEERKNS_13TestParamInfoINS2_5tupleIJS8_NS2_6vectorIS8_NS6_IS8_EEEEEEEEEEEEvRKT_, symObjAddr: 0x9196C, symBinAddr: 0x100092F94, symSize: 0x10 }
  - { offset: 0x90AE, size: 0x8, addend: 0x0, symName: __ZN7testing8internal16DefaultParamNameINSt3__15tupleIJNS2_12basic_stringIcNS2_11char_traitsIcEENS2_9allocatorIcEEEENS2_6vectorIS9_NS7_IS9_EEEEEEEEES9_RKNS_13TestParamInfoIT_EE, symObjAddr: 0x91984, symBinAddr: 0x100092FAC, symSize: 0xA0 }
  - { offset: 0x90E5, size: 0x8, addend: 0x0, symName: __ZN7testing8internal27CheckedDowncastToActualTypeIKNS0_30ValuesInIteratorRangeGeneratorINSt3__15tupleIJNS3_6vectorINS3_12basic_stringIcNS3_11char_traitsIcEENS3_9allocatorIcEEEENS9_ISB_EEEESB_EEEE8IteratorEKNS0_22ParamIteratorInterfaceISE_EEEEPT_PT0_, symObjAddr: 0xA73DC, symBinAddr: 0x1000A8A04, symSize: 0x3A4 }
  - { offset: 0x9126, size: 0x8, addend: 0x0, symName: __ZN7testing8internal12TestNotEmptyIFNSt3__112basic_stringIcNS2_11char_traitsIcEENS2_9allocatorIcEEEERKNS_13TestParamInfoINS2_5tupleIJNS2_6vectorIS8_NS6_IS8_EEEES8_EEEEEEEEvRKT_, symObjAddr: 0xAB13C, symBinAddr: 0x1000AC764, symSize: 0x10 }
  - { offset: 0x9155, size: 0x8, addend: 0x0, symName: __ZN7testing8internal16DefaultParamNameINSt3__15tupleIJNS2_6vectorINS2_12basic_stringIcNS2_11char_traitsIcEENS2_9allocatorIcEEEENS8_ISA_EEEESA_EEEEESA_RKNS_13TestParamInfoIT_EE, symObjAddr: 0xAB154, symBinAddr: 0x1000AC77C, symSize: 0xA0 }
  - { offset: 0x918C, size: 0x8, addend: 0x0, symName: __ZN7testing8internal33MakePredicateFormatterFromMatcherINS0_9EqMatcherIiEEEENS0_29PredicateFormatterFromMatcherIT_EES5_, symObjAddr: 0xB4BCC, symBinAddr: 0x1000B61F4, symSize: 0x1C8 }
  - { offset: 0x91C4, size: 0x8, addend: 0x0, symName: __ZN7testing8internal20MatchPrintAndExplainIKiRS2_EEbRT_RKNS_7MatcherIT0_EEPNS_19MatchResultListenerE, symObjAddr: 0xB668C, symBinAddr: 0x1000B7CB4, symSize: 0x904 }
  - { offset: 0x92F6, size: 0x8, addend: 0x0, symName: __ZN7testing8internal14UniversalPrintIiEEvRKT_PNSt3__113basic_ostreamIcNS5_11char_traitsIcEEEE, symObjAddr: 0xB8AB8, symBinAddr: 0x1000BA0E0, symSize: 0x64 }
  - { offset: 0x9364, size: 0x8, addend: 0x0, symName: __ZN7testing8internal7PrintToIiEEvRKT_PNSt3__113basic_ostreamIcNS5_11char_traitsIcEEEE, symObjAddr: 0xB8B90, symBinAddr: 0x1000BA1B8, symSize: 0x64 }
  - { offset: 0x93A6, size: 0x8, addend: 0x0, symName: __ZN7testing8internal17PrintWithFallbackIiEEvRKT_PNSt3__113basic_ostreamIcNS5_11char_traitsIcEEEE, symObjAddr: 0xB8BFC, symBinAddr: 0x1000BA224, symSize: 0x64 }
  - { offset: 0x9418, size: 0x8, addend: 0x0, symName: __ZN7testing8internal11GetTypeNameIKiEENSt3__112basic_stringIcNS3_11char_traitsIcEENS3_9allocatorIcEEEEv, symObjAddr: 0xBA0B8, symBinAddr: 0x1000BB6E0, symSize: 0x2C }
  - { offset: 0x943F, size: 0x8, addend: 0x0, symName: __ZN7testing8internal27CheckedDowncastToActualTypeIKNS0_30ValuesInIteratorRangeGeneratorINSt3__15tupleIJNS3_6vectorINS3_12basic_stringIcNS3_11char_traitsIcEENS3_9allocatorIcEEEENS9_ISB_EEEESD_iEEEE8IteratorEKNS0_22ParamIteratorInterfaceISE_EEEEPT_PT0_, symObjAddr: 0xC4F60, symBinAddr: 0x1000C6588, symSize: 0x3A4 }
  - { offset: 0x9480, size: 0x8, addend: 0x0, symName: __ZN7testing8internal12TestNotEmptyIFNSt3__112basic_stringIcNS2_11char_traitsIcEENS2_9allocatorIcEEEERKNS_13TestParamInfoINS2_5tupleIJNS2_6vectorIS8_NS6_IS8_EEEESD_iEEEEEEEEvRKT_, symObjAddr: 0xC85E0, symBinAddr: 0x1000C9C08, symSize: 0x10 }
  - { offset: 0x94AF, size: 0x8, addend: 0x0, symName: __ZN7testing8internal16DefaultParamNameINSt3__15tupleIJNS2_6vectorINS2_12basic_stringIcNS2_11char_traitsIcEENS2_9allocatorIcEEEENS8_ISA_EEEESC_iEEEEESA_RKNS_13TestParamInfoIT_EE, symObjAddr: 0xC85F8, symBinAddr: 0x1000C9C20, symSize: 0xA0 }
  - { offset: 0x94E6, size: 0x8, addend: 0x0, symName: __ZN7testing8internal33MakePredicateFormatterFromMatcherINS_18PolymorphicMatcherINS0_16HasSubstrMatcherINSt3__112basic_stringIcNS4_11char_traitsIcEENS4_9allocatorIcEEEEEEEEEENS0_29PredicateFormatterFromMatcherIT_EESE_, symObjAddr: 0xD3B14, symBinAddr: 0x1000D513C, symSize: 0x2D8 }
  - { offset: 0x951F, size: 0x8, addend: 0x0, symName: __ZN7testing8internal33MakePredicateFormatterFromMatcherINS0_10NotMatcherINS_18PolymorphicMatcherINS0_16HasSubstrMatcherINSt3__112basic_stringIcNS5_11char_traitsIcEENS5_9allocatorIcEEEEEEEEEEEENS0_29PredicateFormatterFromMatcherIT_EESG_, symObjAddr: 0xD5080, symBinAddr: 0x1000D66A8, symSize: 0x2D8 }
  - { offset: 0xA22F, size: 0x8, addend: 0x0, symName: __ZN7testing8internal27CheckedDowncastToActualTypeIKNS0_30ValuesInIteratorRangeGeneratorINSt3__15tupleIJNS3_12basic_stringIcNS3_11char_traitsIcEENS3_9allocatorIcEEEENS3_6vectorISA_NS8_ISA_EEEESA_SA_EEEE8IteratorEKNS0_22ParamIteratorInterfaceISE_EEEEPT_PT0_, symObjAddr: 0xE8F78, symBinAddr: 0x1000EA5A0, symSize: 0x3A4 }
  - { offset: 0xA270, size: 0x8, addend: 0x0, symName: '__ZN7testing8internal12TestNotEmptyIZN12_GLOBAL__N_151gtest_CaesarDec_CustomDictCommand_EvalGenerateName_ERKNS_13TestParamInfoINSt3__15tupleIJNS4_12basic_stringIcNS4_11char_traitsIcEENS4_9allocatorIcEEEENS4_6vectorISB_NS9_ISB_EEEESB_SB_EEEEEE3$_1EEvRKT_', symObjAddr: 0xEE060, symBinAddr: 0x1000EF688, symSize: 0x10 }
  - { offset: 0xA8D3, size: 0x8, addend: 0x0, symName: __ZN7testing8internal27CheckedDowncastToActualTypeIKNS0_30ValuesInIteratorRangeGeneratorINSt3__15tupleIJNS3_12basic_stringIcNS3_11char_traitsIcEENS3_9allocatorIcEEEESA_SA_EEEE8IteratorEKNS0_22ParamIteratorInterfaceISB_EEEEPT_PT0_, symObjAddr: 0x106818, symBinAddr: 0x100107E40, symSize: 0x3A4 }
  - { offset: 0xA914, size: 0x8, addend: 0x0, symName: '__ZN7testing8internal12TestNotEmptyIZN12_GLOBAL__N_153gtest_CaesarDec_FullDictMainCommand_EvalGenerateName_ERKNS_13TestParamInfoINSt3__15tupleIJNS4_12basic_stringIcNS4_11char_traitsIcEENS4_9allocatorIcEEEESB_SB_EEEEEE3$_1EEvRKT_', symObjAddr: 0x10ADF8, symBinAddr: 0x10010C420, symSize: 0x10 }
  - { offset: 0xA943, size: 0x8, addend: 0x0, symName: __ZN7testing8internal19GetNotDefaultOrNullEPFvvES2_, symObjAddr: 0x10BF8C, symBinAddr: 0x10010D5B4, symSize: 0x44 }
  - { offset: 0xA980, size: 0x8, addend: 0x0, symName: __ZN7testing8internal9GetTypeIdIN12_GLOBAL__N_115CaesarDec_CleanEEEPKvv, symObjAddr: 0x10C788, symBinAddr: 0x10010DDB0, symSize: 0xC }
  - { offset: 0xA9AD, size: 0x8, addend: 0x0, symName: __ZN7testing8internal5posix5AbortEv, symObjAddr: 0x10C79C, symBinAddr: 0x10010DDC4, symSize: 0x2C }
  - { offset: 0xA9C8, size: 0x8, addend: 0x0, symName: __ZN7testing8internal27CheckedDowncastToActualTypeINS0_26ParameterizedTestSuiteInfoIN12_GLOBAL__N_115CaesarDec_CleanEEENS0_30ParameterizedTestSuiteInfoBaseEEEPT_PT0_, symObjAddr: 0x10C7D0, symBinAddr: 0x10010DDF8, symSize: 0x3A4 }
  - { offset: 0xAA5D, size: 0x8, addend: 0x0, symName: __ZN7testing8internal7IsAlNumEc, symObjAddr: 0x119404, symBinAddr: 0x10011AA2C, symSize: 0x2C }
  - { offset: 0xAAB7, size: 0x8, addend: 0x0, symName: __ZN7testing8internal14UniversalPrintINSt3__15tupleIJNS2_12basic_stringIcNS2_11char_traitsIcEENS2_9allocatorIcEEEES9_EEEEEvRKT_PNS2_13basic_ostreamIcS6_EE, symObjAddr: 0x120B5C, symBinAddr: 0x100122184, symSize: 0x64 }
  - { offset: 0xAB23, size: 0x8, addend: 0x0, symName: __ZN7testing8internal7PrintToIJNSt3__112basic_stringIcNS2_11char_traitsIcEENS2_9allocatorIcEEEES8_EEEvRKNS2_5tupleIJDpT_EEEPNS2_13basic_ostreamIcS5_EE, symObjAddr: 0x120C34, symBinAddr: 0x10012225C, symSize: 0xF4 }
  - { offset: 0xAB6C, size: 0x8, addend: 0x0, symName: __ZN7testing8internal12PrintTupleToINSt3__15tupleIJNS2_12basic_stringIcNS2_11char_traitsIcEENS2_9allocatorIcEEEES9_EEELm2EEEvRKT_NS2_17integral_constantImXT0_EEEPNS2_13basic_ostreamIcS6_EE, symObjAddr: 0x120D30, symBinAddr: 0x100122358, symSize: 0x12C }
  - { offset: 0xABC3, size: 0x8, addend: 0x0, symName: __ZN7testing8internal12PrintTupleToINSt3__15tupleIJNS2_12basic_stringIcNS2_11char_traitsIcEENS2_9allocatorIcEEEES9_EEELm1EEEvRKT_NS2_17integral_constantImXT0_EEEPNS2_13basic_ostreamIcS6_EE, symObjAddr: 0x120E64, symBinAddr: 0x10012248C, symSize: 0xE4 }
  - { offset: 0xAC1A, size: 0x8, addend: 0x0, symName: __ZN7testing8internal12PrintTupleToINSt3__15tupleIJNS2_12basic_stringIcNS2_11char_traitsIcEENS2_9allocatorIcEEEES9_EEEEEvRKT_NS2_17integral_constantImLm0EEEPNS2_13basic_ostreamIcS6_EE, symObjAddr: 0x120F50, symBinAddr: 0x100122578, symSize: 0x14 }
  - { offset: 0xAC5F, size: 0x8, addend: 0x0, symName: __ZN7testing8internal9GetTypeIdIN12_GLOBAL__N_121CaesarDec_SplitSpacesEEEPKvv, symObjAddr: 0x131D64, symBinAddr: 0x10013338C, symSize: 0xC }
  - { offset: 0xAC87, size: 0x8, addend: 0x0, symName: __ZN7testing8internal27CheckedDowncastToActualTypeINS0_26ParameterizedTestSuiteInfoIN12_GLOBAL__N_121CaesarDec_SplitSpacesEEENS0_30ParameterizedTestSuiteInfoBaseEEEPT_PT0_, symObjAddr: 0x131D78, symBinAddr: 0x1001333A0, symSize: 0x3A4 }
  - { offset: 0xAD48, size: 0x8, addend: 0x0, symName: __ZN7testing8internal14UniversalPrintINSt3__15tupleIJNS2_12basic_stringIcNS2_11char_traitsIcEENS2_9allocatorIcEEEENS2_6vectorIS9_NS7_IS9_EEEEEEEEEvRKT_PNS2_13basic_ostreamIcS6_EE, symObjAddr: 0x139E34, symBinAddr: 0x10013B45C, symSize: 0x64 }
  - { offset: 0xADB4, size: 0x8, addend: 0x0, symName: __ZN7testing8internal7PrintToIJNSt3__112basic_stringIcNS2_11char_traitsIcEENS2_9allocatorIcEEEENS2_6vectorIS8_NS6_IS8_EEEEEEEvRKNS2_5tupleIJDpT_EEEPNS2_13basic_ostreamIcS5_EE, symObjAddr: 0x139F0C, symBinAddr: 0x10013B534, symSize: 0xF4 }
  - { offset: 0xADFD, size: 0x8, addend: 0x0, symName: __ZN7testing8internal12PrintTupleToINSt3__15tupleIJNS2_12basic_stringIcNS2_11char_traitsIcEENS2_9allocatorIcEEEENS2_6vectorIS9_NS7_IS9_EEEEEEELm2EEEvRKT_NS2_17integral_constantImXT0_EEEPNS2_13basic_ostreamIcS6_EE, symObjAddr: 0x13A008, symBinAddr: 0x10013B630, symSize: 0x12C }
  - { offset: 0xAE54, size: 0x8, addend: 0x0, symName: __ZN7testing8internal12PrintTupleToINSt3__15tupleIJNS2_12basic_stringIcNS2_11char_traitsIcEENS2_9allocatorIcEEEENS2_6vectorIS9_NS7_IS9_EEEEEEELm1EEEvRKT_NS2_17integral_constantImXT0_EEEPNS2_13basic_ostreamIcS6_EE, symObjAddr: 0x13A13C, symBinAddr: 0x10013B764, symSize: 0xE4 }
  - { offset: 0xAEAB, size: 0x8, addend: 0x0, symName: __ZN7testing8internal12PrintTupleToINSt3__15tupleIJNS2_12basic_stringIcNS2_11char_traitsIcEENS2_9allocatorIcEEEENS2_6vectorIS9_NS7_IS9_EEEEEEEEEvRKT_NS2_17integral_constantImLm0EEEPNS2_13basic_ostreamIcS6_EE, symObjAddr: 0x13A228, symBinAddr: 0x10013B850, symSize: 0x14 }
  - { offset: 0xAEF0, size: 0x8, addend: 0x0, symName: __ZN7testing8internal9GetTypeIdIN12_GLOBAL__N_124CaesarDec_JoinWithSpacesEEEPKvv, symObjAddr: 0x1408A0, symBinAddr: 0x100141EC8, symSize: 0xC }
  - { offset: 0xAF18, size: 0x8, addend: 0x0, symName: __ZN7testing8internal27CheckedDowncastToActualTypeINS0_26ParameterizedTestSuiteInfoIN12_GLOBAL__N_124CaesarDec_JoinWithSpacesEEENS0_30ParameterizedTestSuiteInfoBaseEEEPT_PT0_, symObjAddr: 0x1408B4, symBinAddr: 0x100141EDC, symSize: 0x3A4 }
  - { offset: 0xAFD9, size: 0x8, addend: 0x0, symName: __ZN7testing8internal14UniversalPrintINSt3__15tupleIJNS2_6vectorINS2_12basic_stringIcNS2_11char_traitsIcEENS2_9allocatorIcEEEENS8_ISA_EEEESA_EEEEEvRKT_PNS2_13basic_ostreamIcS7_EE, symObjAddr: 0x148970, symBinAddr: 0x100149F98, symSize: 0x64 }
  - { offset: 0xB045, size: 0x8, addend: 0x0, symName: __ZN7testing8internal7PrintToIJNSt3__16vectorINS2_12basic_stringIcNS2_11char_traitsIcEENS2_9allocatorIcEEEENS7_IS9_EEEES9_EEEvRKNS2_5tupleIJDpT_EEEPNS2_13basic_ostreamIcS6_EE, symObjAddr: 0x148A48, symBinAddr: 0x10014A070, symSize: 0xF4 }
  - { offset: 0xB08E, size: 0x8, addend: 0x0, symName: __ZN7testing8internal12PrintTupleToINSt3__15tupleIJNS2_6vectorINS2_12basic_stringIcNS2_11char_traitsIcEENS2_9allocatorIcEEEENS8_ISA_EEEESA_EEELm2EEEvRKT_NS2_17integral_constantImXT0_EEEPNS2_13basic_ostreamIcS7_EE, symObjAddr: 0x148B44, symBinAddr: 0x10014A16C, symSize: 0x12C }
  - { offset: 0xB0E5, size: 0x8, addend: 0x0, symName: __ZN7testing8internal12PrintTupleToINSt3__15tupleIJNS2_6vectorINS2_12basic_stringIcNS2_11char_traitsIcEENS2_9allocatorIcEEEENS8_ISA_EEEESA_EEELm1EEEvRKT_NS2_17integral_constantImXT0_EEEPNS2_13basic_ostreamIcS7_EE, symObjAddr: 0x148C78, symBinAddr: 0x10014A2A0, symSize: 0xE4 }
  - { offset: 0xB13C, size: 0x8, addend: 0x0, symName: __ZN7testing8internal12PrintTupleToINSt3__15tupleIJNS2_6vectorINS2_12basic_stringIcNS2_11char_traitsIcEENS2_9allocatorIcEEEENS8_ISA_EEEESA_EEEEEvRKT_NS2_17integral_constantImLm0EEEPNS2_13basic_ostreamIcS7_EE, symObjAddr: 0x148D64, symBinAddr: 0x10014A38C, symSize: 0x14 }
  - { offset: 0xB181, size: 0x8, addend: 0x0, symName: __ZN7testing8internal9GetTypeIdIN12_GLOBAL__N_120CaesarDec_NumWordsInEEEPKvv, symObjAddr: 0x14F3DC, symBinAddr: 0x100150A04, symSize: 0xC }
  - { offset: 0xB1A9, size: 0x8, addend: 0x0, symName: __ZN7testing8internal27CheckedDowncastToActualTypeINS0_26ParameterizedTestSuiteInfoIN12_GLOBAL__N_120CaesarDec_NumWordsInEEENS0_30ParameterizedTestSuiteInfoBaseEEEPT_PT0_, symObjAddr: 0x14F3F0, symBinAddr: 0x100150A18, symSize: 0x3A4 }
  - { offset: 0xB26A, size: 0x8, addend: 0x0, symName: __ZN7testing8internal14UniversalPrintINSt3__15tupleIJNS2_6vectorINS2_12basic_stringIcNS2_11char_traitsIcEENS2_9allocatorIcEEEENS8_ISA_EEEESC_iEEEEEvRKT_PNS2_13basic_ostreamIcS7_EE, symObjAddr: 0x157454, symBinAddr: 0x100158A7C, symSize: 0x64 }
  - { offset: 0xB2D6, size: 0x8, addend: 0x0, symName: __ZN7testing8internal7PrintToIJNSt3__16vectorINS2_12basic_stringIcNS2_11char_traitsIcEENS2_9allocatorIcEEEENS7_IS9_EEEESB_iEEEvRKNS2_5tupleIJDpT_EEEPNS2_13basic_ostreamIcS6_EE, symObjAddr: 0x15752C, symBinAddr: 0x100158B54, symSize: 0xF4 }
  - { offset: 0xB324, size: 0x8, addend: 0x0, symName: __ZN7testing8internal12PrintTupleToINSt3__15tupleIJNS2_6vectorINS2_12basic_stringIcNS2_11char_traitsIcEENS2_9allocatorIcEEEENS8_ISA_EEEESC_iEEELm3EEEvRKT_NS2_17integral_constantImXT0_EEEPNS2_13basic_ostreamIcS7_EE, symObjAddr: 0x157628, symBinAddr: 0x100158C50, symSize: 0x12C }
  - { offset: 0xB37B, size: 0x8, addend: 0x0, symName: __ZN7testing8internal12PrintTupleToINSt3__15tupleIJNS2_6vectorINS2_12basic_stringIcNS2_11char_traitsIcEENS2_9allocatorIcEEEENS8_ISA_EEEESC_iEEELm2EEEvRKT_NS2_17integral_constantImXT0_EEEPNS2_13basic_ostreamIcS7_EE, symObjAddr: 0x15775C, symBinAddr: 0x100158D84, symSize: 0x12C }
  - { offset: 0xB3D2, size: 0x8, addend: 0x0, symName: __ZN7testing8internal12PrintTupleToINSt3__15tupleIJNS2_6vectorINS2_12basic_stringIcNS2_11char_traitsIcEENS2_9allocatorIcEEEENS8_ISA_EEEESC_iEEELm1EEEvRKT_NS2_17integral_constantImXT0_EEEPNS2_13basic_ostreamIcS7_EE, symObjAddr: 0x157890, symBinAddr: 0x100158EB8, symSize: 0xE4 }
  - { offset: 0xB429, size: 0x8, addend: 0x0, symName: __ZN7testing8internal12PrintTupleToINSt3__15tupleIJNS2_6vectorINS2_12basic_stringIcNS2_11char_traitsIcEENS2_9allocatorIcEEEENS8_ISA_EEEESC_iEEEEEvRKT_NS2_17integral_constantImLm0EEEPNS2_13basic_ostreamIcS7_EE, symObjAddr: 0x15797C, symBinAddr: 0x100158FA4, symSize: 0x14 }
  - { offset: 0xB46E, size: 0x8, addend: 0x0, symName: __ZN7testing8internal9GetTypeIdIN12_GLOBAL__N_127CaesarDec_CustomDictCommandEEEPKvv, symObjAddr: 0x15DFF4, symBinAddr: 0x10015F61C, symSize: 0xC }
  - { offset: 0xB496, size: 0x8, addend: 0x0, symName: __ZN7testing8internal27CheckedDowncastToActualTypeINS0_26ParameterizedTestSuiteInfoIN12_GLOBAL__N_127CaesarDec_CustomDictCommandEEENS0_30ParameterizedTestSuiteInfoBaseEEEPT_PT0_, symObjAddr: 0x15E008, symBinAddr: 0x10015F630, symSize: 0x3A4 }
  - { offset: 0xB558, size: 0x8, addend: 0x0, symName: __ZN7testing8internal14UniversalPrintINSt3__15tupleIJNS2_12basic_stringIcNS2_11char_traitsIcEENS2_9allocatorIcEEEENS2_6vectorIS9_NS7_IS9_EEEES9_S9_EEEEEvRKT_PNS2_13basic_ostreamIcS6_EE, symObjAddr: 0x1660D0, symBinAddr: 0x1001676F8, symSize: 0x64 }
  - { offset: 0xB5C4, size: 0x8, addend: 0x0, symName: __ZN7testing8internal7PrintToIJNSt3__112basic_stringIcNS2_11char_traitsIcEENS2_9allocatorIcEEEENS2_6vectorIS8_NS6_IS8_EEEES8_S8_EEEvRKNS2_5tupleIJDpT_EEEPNS2_13basic_ostreamIcS5_EE, symObjAddr: 0x1661A8, symBinAddr: 0x1001677D0, symSize: 0xF4 }
  - { offset: 0xB617, size: 0x8, addend: 0x0, symName: __ZN7testing8internal12PrintTupleToINSt3__15tupleIJNS2_12basic_stringIcNS2_11char_traitsIcEENS2_9allocatorIcEEEENS2_6vectorIS9_NS7_IS9_EEEES9_S9_EEELm4EEEvRKT_NS2_17integral_constantImXT0_EEEPNS2_13basic_ostreamIcS6_EE, symObjAddr: 0x1662A4, symBinAddr: 0x1001678CC, symSize: 0x12C }
  - { offset: 0xB66E, size: 0x8, addend: 0x0, symName: __ZN7testing8internal12PrintTupleToINSt3__15tupleIJNS2_12basic_stringIcNS2_11char_traitsIcEENS2_9allocatorIcEEEENS2_6vectorIS9_NS7_IS9_EEEES9_S9_EEELm3EEEvRKT_NS2_17integral_constantImXT0_EEEPNS2_13basic_ostreamIcS6_EE, symObjAddr: 0x1663D8, symBinAddr: 0x100167A00, symSize: 0x12C }
  - { offset: 0xB6C5, size: 0x8, addend: 0x0, symName: __ZN7testing8internal12PrintTupleToINSt3__15tupleIJNS2_12basic_stringIcNS2_11char_traitsIcEENS2_9allocatorIcEEEENS2_6vectorIS9_NS7_IS9_EEEES9_S9_EEELm2EEEvRKT_NS2_17integral_constantImXT0_EEEPNS2_13basic_ostreamIcS6_EE, symObjAddr: 0x1665DC, symBinAddr: 0x100167C04, symSize: 0x12C }
  - { offset: 0xB71C, size: 0x8, addend: 0x0, symName: __ZN7testing8internal12PrintTupleToINSt3__15tupleIJNS2_12basic_stringIcNS2_11char_traitsIcEENS2_9allocatorIcEEEENS2_6vectorIS9_NS7_IS9_EEEES9_S9_EEELm1EEEvRKT_NS2_17integral_constantImXT0_EEEPNS2_13basic_ostreamIcS6_EE, symObjAddr: 0x166710, symBinAddr: 0x100167D38, symSize: 0xE4 }
  - { offset: 0xB773, size: 0x8, addend: 0x0, symName: __ZN7testing8internal12PrintTupleToINSt3__15tupleIJNS2_12basic_stringIcNS2_11char_traitsIcEENS2_9allocatorIcEEEENS2_6vectorIS9_NS7_IS9_EEEES9_S9_EEEEEvRKT_NS2_17integral_constantImLm0EEEPNS2_13basic_ostreamIcS6_EE, symObjAddr: 0x1667FC, symBinAddr: 0x100167E24, symSize: 0x14 }
  - { offset: 0xB7B8, size: 0x8, addend: 0x0, symName: __ZN7testing8internal9GetTypeIdIN12_GLOBAL__N_129CaesarDec_FullDictMainCommandEEEPKvv, symObjAddr: 0x16CF00, symBinAddr: 0x10016E528, symSize: 0xC }
  - { offset: 0xB7E0, size: 0x8, addend: 0x0, symName: __ZN7testing8internal27CheckedDowncastToActualTypeINS0_26ParameterizedTestSuiteInfoIN12_GLOBAL__N_129CaesarDec_FullDictMainCommandEEENS0_30ParameterizedTestSuiteInfoBaseEEEPT_PT0_, symObjAddr: 0x16CF14, symBinAddr: 0x10016E53C, symSize: 0x3A4 }
  - { offset: 0xB8A2, size: 0x8, addend: 0x0, symName: __ZN7testing8internal14UniversalPrintINSt3__15tupleIJNS2_12basic_stringIcNS2_11char_traitsIcEENS2_9allocatorIcEEEES9_S9_EEEEEvRKT_PNS2_13basic_ostreamIcS6_EE, symObjAddr: 0x174FA8, symBinAddr: 0x1001765D0, symSize: 0x64 }
  - { offset: 0xB90E, size: 0x8, addend: 0x0, symName: __ZN7testing8internal7PrintToIJNSt3__112basic_stringIcNS2_11char_traitsIcEENS2_9allocatorIcEEEES8_S8_EEEvRKNS2_5tupleIJDpT_EEEPNS2_13basic_ostreamIcS5_EE, symObjAddr: 0x175080, symBinAddr: 0x1001766A8, symSize: 0xF4 }
  - { offset: 0xB95C, size: 0x8, addend: 0x0, symName: __ZN7testing8internal12PrintTupleToINSt3__15tupleIJNS2_12basic_stringIcNS2_11char_traitsIcEENS2_9allocatorIcEEEES9_S9_EEELm3EEEvRKT_NS2_17integral_constantImXT0_EEEPNS2_13basic_ostreamIcS6_EE, symObjAddr: 0x17517C, symBinAddr: 0x1001767A4, symSize: 0x12C }
  - { offset: 0xB9B3, size: 0x8, addend: 0x0, symName: __ZN7testing8internal12PrintTupleToINSt3__15tupleIJNS2_12basic_stringIcNS2_11char_traitsIcEENS2_9allocatorIcEEEES9_S9_EEELm2EEEvRKT_NS2_17integral_constantImXT0_EEEPNS2_13basic_ostreamIcS6_EE, symObjAddr: 0x1752B0, symBinAddr: 0x1001768D8, symSize: 0x12C }
  - { offset: 0xBA0A, size: 0x8, addend: 0x0, symName: __ZN7testing8internal12PrintTupleToINSt3__15tupleIJNS2_12basic_stringIcNS2_11char_traitsIcEENS2_9allocatorIcEEEES9_S9_EEELm1EEEvRKT_NS2_17integral_constantImXT0_EEEPNS2_13basic_ostreamIcS6_EE, symObjAddr: 0x1754B4, symBinAddr: 0x100176ADC, symSize: 0xE4 }
  - { offset: 0xBA61, size: 0x8, addend: 0x0, symName: __ZN7testing8internal12PrintTupleToINSt3__15tupleIJNS2_12basic_stringIcNS2_11char_traitsIcEENS2_9allocatorIcEEEES9_S9_EEEEEvRKT_NS2_17integral_constantImLm0EEEPNS2_13basic_ostreamIcS6_EE, symObjAddr: 0x1755A0, symBinAddr: 0x100176BC8, symSize: 0x14 }
  - { offset: 0xD245, size: 0x8, addend: 0x0, symName: __ZN7testing18WithParamInterfaceINSt3__15tupleIJNS1_12basic_stringIcNS1_11char_traitsIcEENS1_9allocatorIcEEEES8_EEEE10parameter_E, symObjAddr: 0x21C500, symBinAddr: 0x100409D90, symSize: 0x0 }
  - { offset: 0xD410, size: 0x8, addend: 0x0, symName: __ZN7testing18WithParamInterfaceINSt3__15tupleIJNS1_12basic_stringIcNS1_11char_traitsIcEENS1_9allocatorIcEEEENS1_6vectorIS8_NS6_IS8_EEEEEEEE10parameter_E, symObjAddr: 0x223170, symBinAddr: 0x100410A00, symSize: 0x0 }
  - { offset: 0xD475, size: 0x8, addend: 0x0, symName: __ZN7testing18WithParamInterfaceINSt3__15tupleIJNS1_6vectorINS1_12basic_stringIcNS1_11char_traitsIcEENS1_9allocatorIcEEEENS7_IS9_EEEES9_EEEE10parameter_E, symObjAddr: 0x22A6E0, symBinAddr: 0x100417F70, symSize: 0x0 }
  - { offset: 0xD4DA, size: 0x8, addend: 0x0, symName: __ZN7testing18WithParamInterfaceINSt3__15tupleIJNS1_6vectorINS1_12basic_stringIcNS1_11char_traitsIcEENS1_9allocatorIcEEEENS7_IS9_EEEESB_iEEEE10parameter_E, symObjAddr: 0x230410, symBinAddr: 0x10041DCA0, symSize: 0x0 }
  - { offset: 0xD5D1, size: 0x8, addend: 0x0, symName: __ZN7testing18WithParamInterfaceINSt3__15tupleIJNS1_12basic_stringIcNS1_11char_traitsIcEENS1_9allocatorIcEEEENS1_6vectorIS8_NS6_IS8_EEEES8_S8_EEEE10parameter_E, symObjAddr: 0x2370A0, symBinAddr: 0x100424930, symSize: 0x0 }
  - { offset: 0xD7AD, size: 0x8, addend: 0x0, symName: __ZN7testing18WithParamInterfaceINSt3__15tupleIJNS1_12basic_stringIcNS1_11char_traitsIcEENS1_9allocatorIcEEEES8_S8_EEEE10parameter_E, symObjAddr: 0x242030, symBinAddr: 0x10042F8C0, symSize: 0x0 }
  - { offset: 0xD7BB, size: 0x8, addend: 0x0, symName: __ZN7testing7IsEmptyEv, symObjAddr: 0x18FDC, symBinAddr: 0x10001A604, symSize: 0x1B8 }
  - { offset: 0xD8F7, size: 0x8, addend: 0x0, symName: __ZN7testing22MakePolymorphicMatcherINS_8internal14IsEmptyMatcherEEENS_18PolymorphicMatcherIT_EERKS4_, symObjAddr: 0x1A1F4, symBinAddr: 0x10001B81C, symSize: 0x1D0 }
  - { offset: 0xD92F, size: 0x8, addend: 0x0, symName: __ZN7testing15SafeMatcherCastIRKNSt3__16vectorINS1_12basic_stringIcNS1_11char_traitsIcEENS1_9allocatorIcEEEENS6_IS8_EEEENS_18PolymorphicMatcherINS_8internal14IsEmptyMatcherEEEEENS_7MatcherIT_EERKT0_, symObjAddr: 0x1A470, symBinAddr: 0x10001BA98, symSize: 0x54 }
  - { offset: 0xD96F, size: 0x8, addend: 0x0, symName: __ZN7testing11MatcherCastIRKNSt3__16vectorINS1_12basic_stringIcNS1_11char_traitsIcEENS1_9allocatorIcEEEENS6_IS8_EEEENS_18PolymorphicMatcherINS_8internal14IsEmptyMatcherEEEEENS_7MatcherIT_EERKT0_, symObjAddr: 0x1C0D4, symBinAddr: 0x10001D6FC, symSize: 0x54 }
  - { offset: 0xD9AF, size: 0x8, addend: 0x0, symName: __ZN7testing2EqIPNSt3__112basic_stringIcNS1_11char_traitsIcEENS1_9allocatorIcEEEEEENS_8internal9EqMatcherIT_EESB_, symObjAddr: 0x2E35C, symBinAddr: 0x10002F984, symSize: 0x1E0 }
  - { offset: 0xD9EA, size: 0x8, addend: 0x0, symName: __ZN7testing16ElementsAreArrayIPKcEEDTcl16ElementsAreArraycldtfp_5beginEcldtfp_3endEEESt16initializer_listIT_E, symObjAddr: 0x2F49C, symBinAddr: 0x100030AC4, symSize: 0x1D0 }
  - { offset: 0xDA25, size: 0x8, addend: 0x0, symName: __ZN7testing15SafeMatcherCastIRKPNSt3__112basic_stringIcNS1_11char_traitsIcEENS1_9allocatorIcEEEENS_8internal9EqMatcherIS8_EEEENS_7MatcherIT_EERKT0_, symObjAddr: 0x356D0, symBinAddr: 0x100036CF8, symSize: 0x68 }
  - { offset: 0xDA65, size: 0x8, addend: 0x0, symName: __ZN7testing11MatcherCastIRKPNSt3__112basic_stringIcNS1_11char_traitsIcEENS1_9allocatorIcEEEENS_8internal9EqMatcherIS8_EEEENS_7MatcherIT_EERKT0_, symObjAddr: 0x36858, symBinAddr: 0x100037E80, symSize: 0x68 }
  - { offset: 0xDAA5, size: 0x8, addend: 0x0, symName: __ZN7testing16ElementsAreArrayIPKPKcEENS_8internal23ElementsAreArrayMatcherINSt3__115iterator_traitsIT_E10value_typeEEES9_S9_, symObjAddr: 0x3EBAC, symBinAddr: 0x1000401D4, symSize: 0x78 }
  - { offset: 0xDAEB, size: 0x8, addend: 0x0, symName: __ZN7testing15SafeMatcherCastIRKNSt3__16vectorINS1_12basic_stringIcNS1_11char_traitsIcEENS1_9allocatorIcEEEENS6_IS8_EEEENS_8internal23ElementsAreArrayMatcherIPKcEEEENS_7MatcherIT_EERKT0_, symObjAddr: 0x41BA8, symBinAddr: 0x1000431D0, symSize: 0x68 }
  - { offset: 0xDB2B, size: 0x8, addend: 0x0, symName: __ZN7testing11MatcherCastIRKNSt3__16vectorINS1_12basic_stringIcNS1_11char_traitsIcEENS1_9allocatorIcEEEENS6_IS8_EEEENS_8internal23ElementsAreArrayMatcherIPKcEEEENS_7MatcherIT_EERKT0_, symObjAddr: 0x41C18, symBinAddr: 0x100043240, symSize: 0x68 }
  - { offset: 0xDB6B, size: 0x8, addend: 0x0, symName: __ZN7testing11MatcherCastIRKNSt3__112basic_stringIcNS1_11char_traitsIcEENS1_9allocatorIcEEEEPKcEENS_7MatcherIT_EERKT0_, symObjAddr: 0x42B40, symBinAddr: 0x100044168, symSize: 0x68 }
  - { offset: 0xDBAB, size: 0x8, addend: 0x0, symName: __ZN7testinglsERNSt3__113basic_ostreamIcNS0_11char_traitsIcEEEERKNS_7MessageE, symObjAddr: 0x4E09C, symBinAddr: 0x10004F6C4, symSize: 0x350 }
  - { offset: 0xDBE7, size: 0x8, addend: 0x0, symName: __ZN7testing13PrintToStringINSt3__112basic_stringIcNS1_11char_traitsIcEENS1_9allocatorIcEEEEEES7_RKT_, symObjAddr: 0x50428, symBinAddr: 0x100051A50, symSize: 0x3D0 }
  - { offset: 0xDC32, size: 0x8, addend: 0x0, symName: __ZN7testing5StrEqINSt3__112basic_stringIcNS1_11char_traitsIcEENS1_9allocatorIcEEEEEENS_18PolymorphicMatcherINS_8internal18StrEqualityMatcherIS7_EEEERKT_, symObjAddr: 0x5CA5C, symBinAddr: 0x10005E084, symSize: 0x358 }
  - { offset: 0xDC6A, size: 0x8, addend: 0x0, symName: __ZN7testing22MakePolymorphicMatcherINS_8internal18StrEqualityMatcherINSt3__112basic_stringIcNS3_11char_traitsIcEENS3_9allocatorIcEEEEEEEENS_18PolymorphicMatcherIT_EERKSC_, symObjAddr: 0x5DE88, symBinAddr: 0x10005F4B0, symSize: 0x9C }
  - { offset: 0xDCA1, size: 0x8, addend: 0x0, symName: __ZN7testing15SafeMatcherCastIRKNSt3__112basic_stringIcNS1_11char_traitsIcEENS1_9allocatorIcEEEENS_18PolymorphicMatcherINS_8internal18StrEqualityMatcherIS7_EEEEEENS_7MatcherIT_EERKT0_, symObjAddr: 0x5E4F0, symBinAddr: 0x10005FB18, symSize: 0x68 }
  - { offset: 0xDCE1, size: 0x8, addend: 0x0, symName: __ZN7testing11MatcherCastIRKNSt3__112basic_stringIcNS1_11char_traitsIcEENS1_9allocatorIcEEEENS_18PolymorphicMatcherINS_8internal18StrEqualityMatcherIS7_EEEEEENS_7MatcherIT_EERKT0_, symObjAddr: 0x5EE6C, symBinAddr: 0x100060494, symSize: 0x68 }
  - { offset: 0xDD21, size: 0x8, addend: 0x0, symName: __ZN7testing6ValuesIJNSt3__15tupleIJPKcS4_EEES5_S5_S5_EEENS_8internal10ValueArrayIJDpT_EEES9_, symObjAddr: 0x6365C, symBinAddr: 0x100064C84, symSize: 0x104 }
  - { offset: 0xDD96, size: 0x8, addend: 0x0, symName: __ZN7testing8ValuesInINSt3__16vectorINS1_5tupleIJNS1_12basic_stringIcNS1_11char_traitsIcEENS1_9allocatorIcEEEES9_EEENS7_ISA_EEEEEENS_8internal14ParamGeneratorINT_10value_typeEEERKSF_, symObjAddr: 0x65260, symBinAddr: 0x100066888, symSize: 0x9C }
  - { offset: 0xDDCD, size: 0x8, addend: 0x0, symName: __ZN7testing8ValuesInINSt3__111__wrap_iterIPKNS1_5tupleIJNS1_12basic_stringIcNS1_11char_traitsIcEENS1_9allocatorIcEEEES9_EEEEEEENS_8internal14ParamGeneratorINS1_15iterator_traitsIT_E10value_typeEEESH_SH_, symObjAddr: 0x65B54, symBinAddr: 0x10006717C, symSize: 0x138 }
  - { offset: 0xDE13, size: 0x8, addend: 0x0, symName: __ZN7testing16ElementsAreArrayINSt3__16vectorINS1_12basic_stringIcNS1_11char_traitsIcEENS1_9allocatorIcEEEENS6_IS8_EEEEEEDTcl16ElementsAreArraycldtfp_5beginEcldtfp_3endEEERKT_, symObjAddr: 0x7CBA8, symBinAddr: 0x10007E1D0, symSize: 0x9C }
  - { offset: 0xDE4A, size: 0x8, addend: 0x0, symName: __ZN7testing16ElementsAreArrayINSt3__111__wrap_iterIPKNS1_12basic_stringIcNS1_11char_traitsIcEENS1_9allocatorIcEEEEEEEENS_8internal23ElementsAreArrayMatcherINS1_15iterator_traitsIT_E10value_typeEEESF_SF_, symObjAddr: 0x7DB30, symBinAddr: 0x10007F158, symSize: 0xA0 }
  - { offset: 0xDE90, size: 0x8, addend: 0x0, symName: __ZN7testing15SafeMatcherCastIRKNSt3__16vectorINS1_12basic_stringIcNS1_11char_traitsIcEENS1_9allocatorIcEEEENS6_IS8_EEEENS_8internal23ElementsAreArrayMatcherIS8_EEEENS_7MatcherIT_EERKT0_, symObjAddr: 0x7F380, symBinAddr: 0x1000809A8, symSize: 0x68 }
  - { offset: 0xDED0, size: 0x8, addend: 0x0, symName: __ZN7testing11MatcherCastIRKNSt3__16vectorINS1_12basic_stringIcNS1_11char_traitsIcEENS1_9allocatorIcEEEENS6_IS8_EEEENS_8internal23ElementsAreArrayMatcherIS8_EEEENS_7MatcherIT_EERKT0_, symObjAddr: 0x7F3F0, symBinAddr: 0x100080A18, symSize: 0x68 }
  - { offset: 0xDF10, size: 0x8, addend: 0x0, symName: __ZN7testing11MatcherCastIRKNSt3__112basic_stringIcNS1_11char_traitsIcEENS1_9allocatorIcEEEES7_EENS_7MatcherIT_EERKT0_, symObjAddr: 0x7FCB0, symBinAddr: 0x1000812D8, symSize: 0x68 }
  - { offset: 0xDF50, size: 0x8, addend: 0x0, symName: __ZN7testing6ValuesIJNSt3__15tupleIJPKcNS1_6vectorINS1_12basic_stringIcNS1_11char_traitsIcEENS1_9allocatorIcEEEENS9_ISB_EEEEEEESE_SE_SE_SE_SE_SE_EEENS_8internal10ValueArrayIJDpT_EEESI_, symObjAddr: 0x80140, symBinAddr: 0x100081768, symSize: 0x5B0 }
  - { offset: 0xE00F, size: 0x8, addend: 0x0, symName: __ZN7testing8ValuesInINSt3__16vectorINS1_5tupleIJNS1_12basic_stringIcNS1_11char_traitsIcEENS1_9allocatorIcEEEENS2_IS9_NS7_IS9_EEEEEEENS7_ISC_EEEEEENS_8internal14ParamGeneratorINT_10value_typeEEERKSH_, symObjAddr: 0x84658, symBinAddr: 0x100085C80, symSize: 0x9C }
  - { offset: 0xE046, size: 0x8, addend: 0x0, symName: __ZN7testing8ValuesInINSt3__111__wrap_iterIPKNS1_5tupleIJNS1_12basic_stringIcNS1_11char_traitsIcEENS1_9allocatorIcEEEENS1_6vectorIS9_NS7_IS9_EEEEEEEEEEENS_8internal14ParamGeneratorINS1_15iterator_traitsIT_E10value_typeEEESK_SK_, symObjAddr: 0x852B0, symBinAddr: 0x1000868D8, symSize: 0x138 }
  - { offset: 0xE08C, size: 0x8, addend: 0x0, symName: __ZN7testing6ValuesIJNSt3__15tupleIJNS1_6vectorINS1_12basic_stringIcNS1_11char_traitsIcEENS1_9allocatorIcEEEENS7_IS9_EEEEPKcEEESE_SE_SE_EEENS_8internal10ValueArrayIJDpT_EEESI_, symObjAddr: 0x9BA6C, symBinAddr: 0x10009D094, symSize: 0x43C }
  - { offset: 0xE109, size: 0x8, addend: 0x0, symName: __ZN7testing8ValuesInINSt3__16vectorINS1_5tupleIJNS2_INS1_12basic_stringIcNS1_11char_traitsIcEENS1_9allocatorIcEEEENS7_IS9_EEEES9_EEENS7_ISC_EEEEEENS_8internal14ParamGeneratorINT_10value_typeEEERKSH_, symObjAddr: 0x9E3F4, symBinAddr: 0x10009FA1C, symSize: 0x9C }
  - { offset: 0xE140, size: 0x8, addend: 0x0, symName: __ZN7testing8ValuesInINSt3__111__wrap_iterIPKNS1_5tupleIJNS1_6vectorINS1_12basic_stringIcNS1_11char_traitsIcEENS1_9allocatorIcEEEENS8_ISA_EEEESA_EEEEEEENS_8internal14ParamGeneratorINS1_15iterator_traitsIT_E10value_typeEEESK_SK_, symObjAddr: 0x9ECE8, symBinAddr: 0x1000A0310, symSize: 0x138 }
  - { offset: 0xE186, size: 0x8, addend: 0x0, symName: __ZN7testing2EqIiEENS_8internal9EqMatcherIT_EES3_, symObjAddr: 0xB4D9C, symBinAddr: 0x1000B63C4, symSize: 0x1B0 }
  - { offset: 0xE1C1, size: 0x8, addend: 0x0, symName: __ZN7testing15SafeMatcherCastIRKiNS_8internal9EqMatcherIiEEEENS_7MatcherIT_EERKT0_, symObjAddr: 0xB5E74, symBinAddr: 0x1000B749C, symSize: 0x68 }
  - { offset: 0xE201, size: 0x8, addend: 0x0, symName: __ZN7testing11MatcherCastIRKiNS_8internal9EqMatcherIiEEEENS_7MatcherIT_EERKT0_, symObjAddr: 0xB6FFC, symBinAddr: 0x1000B8624, symSize: 0x68 }
  - { offset: 0xE241, size: 0x8, addend: 0x0, symName: __ZN7testing6ValuesIJNSt3__15tupleIJNS1_6vectorINS1_12basic_stringIcNS1_11char_traitsIcEENS1_9allocatorIcEEEENS7_IS9_EEEESB_iEEESC_SC_SC_EEENS_8internal10ValueArrayIJDpT_EEESG_, symObjAddr: 0xBA288, symBinAddr: 0x1000BB8B0, symSize: 0x45C }
  - { offset: 0xE2BE, size: 0x8, addend: 0x0, symName: __ZN7testing8ValuesInINSt3__16vectorINS1_5tupleIJNS2_INS1_12basic_stringIcNS1_11char_traitsIcEENS1_9allocatorIcEEEENS7_IS9_EEEESB_iEEENS7_ISC_EEEEEENS_8internal14ParamGeneratorINT_10value_typeEEERKSH_, symObjAddr: 0xBBF64, symBinAddr: 0x1000BD58C, symSize: 0x9C }
  - { offset: 0xE2F5, size: 0x8, addend: 0x0, symName: __ZN7testing8ValuesInINSt3__111__wrap_iterIPKNS1_5tupleIJNS1_6vectorINS1_12basic_stringIcNS1_11char_traitsIcEENS1_9allocatorIcEEEENS8_ISA_EEEESC_iEEEEEEENS_8internal14ParamGeneratorINS1_15iterator_traitsIT_E10value_typeEEESK_SK_, symObjAddr: 0xBC86C, symBinAddr: 0x1000BDE94, symSize: 0x138 }
  - { offset: 0xE33B, size: 0x8, addend: 0x0, symName: __ZN7testing9HasSubstrINSt3__112basic_stringIcNS1_11char_traitsIcEENS1_9allocatorIcEEEEEENS_18PolymorphicMatcherINS_8internal16HasSubstrMatcherIS7_EEEERKT_, symObjAddr: 0xD3DF4, symBinAddr: 0x1000D541C, symSize: 0x3A0 }
  - { offset: 0xE373, size: 0x8, addend: 0x0, symName: __ZN7testing3NotINS_18PolymorphicMatcherINS_8internal16HasSubstrMatcherINSt3__112basic_stringIcNS4_11char_traitsIcEENS4_9allocatorIcEEEEEEEEEENS2_10NotMatcherIT_EESE_, symObjAddr: 0xD5360, symBinAddr: 0x1000D6988, symSize: 0x2D8 }
  - { offset: 0xE3AC, size: 0x8, addend: 0x0, symName: __ZN7testing22MakePolymorphicMatcherINS_8internal16HasSubstrMatcherINSt3__112basic_stringIcNS3_11char_traitsIcEENS3_9allocatorIcEEEEEEEENS_18PolymorphicMatcherIT_EERKSC_, symObjAddr: 0xD6A28, symBinAddr: 0x1000D8050, symSize: 0x9C }
  - { offset: 0xE3E3, size: 0x8, addend: 0x0, symName: __ZN7testing15SafeMatcherCastIRKNSt3__112basic_stringIcNS1_11char_traitsIcEENS1_9allocatorIcEEEENS_18PolymorphicMatcherINS_8internal16HasSubstrMatcherIS7_EEEEEENS_7MatcherIT_EERKT0_, symObjAddr: 0xD6EC4, symBinAddr: 0x1000D84EC, symSize: 0x68 }
  - { offset: 0xE423, size: 0x8, addend: 0x0, symName: __ZN7testing11MatcherCastIRKNSt3__112basic_stringIcNS1_11char_traitsIcEENS1_9allocatorIcEEEENS_18PolymorphicMatcherINS_8internal16HasSubstrMatcherIS7_EEEEEENS_7MatcherIT_EERKT0_, symObjAddr: 0xD6F34, symBinAddr: 0x1000D855C, symSize: 0x68 }
  - { offset: 0xE463, size: 0x8, addend: 0x0, symName: __ZN7testing15SafeMatcherCastIRKNSt3__112basic_stringIcNS1_11char_traitsIcEENS1_9allocatorIcEEEENS_8internal10NotMatcherINS_18PolymorphicMatcherINSA_16HasSubstrMatcherIS7_EEEEEEEENS_7MatcherIT_EERKT0_, symObjAddr: 0xD8154, symBinAddr: 0x1000D977C, symSize: 0x68 }
  - { offset: 0xE4A3, size: 0x8, addend: 0x0, symName: __ZN7testing11MatcherCastIRKNSt3__112basic_stringIcNS1_11char_traitsIcEENS1_9allocatorIcEEEENS_8internal10NotMatcherINS_18PolymorphicMatcherINSA_16HasSubstrMatcherIS7_EEEEEEEENS_7MatcherIT_EERKT0_, symObjAddr: 0xD81C4, symBinAddr: 0x1000D97EC, symSize: 0x68 }
  - { offset: 0xE4E3, size: 0x8, addend: 0x0, symName: __ZN7testing6ValuesIJNSt3__15tupleIJPKcNS1_6vectorINS1_12basic_stringIcNS1_11char_traitsIcEENS1_9allocatorIcEEEENS9_ISB_EEEESB_S4_EEENS2_IJS4_SD_S4_S4_EEESF_SF_SF_SF_SF_SE_SF_EEENS_8internal10ValueArrayIJDpT_EEESJ_, symObjAddr: 0xD8FCC, symBinAddr: 0x1000DA5F4, symSize: 0x6E0 }
  - { offset: 0xE5CE, size: 0x8, addend: 0x0, symName: __ZN7testing8ValuesInINSt3__16vectorINS1_5tupleIJNS1_12basic_stringIcNS1_11char_traitsIcEENS1_9allocatorIcEEEENS2_IS9_NS7_IS9_EEEES9_S9_EEENS7_ISC_EEEEEENS_8internal14ParamGeneratorINT_10value_typeEEERKSH_, symObjAddr: 0xDFB34, symBinAddr: 0x1000E115C, symSize: 0x9C }
  - { offset: 0xE605, size: 0x8, addend: 0x0, symName: __ZN7testing8ValuesInINSt3__111__wrap_iterIPKNS1_5tupleIJNS1_12basic_stringIcNS1_11char_traitsIcEENS1_9allocatorIcEEEENS1_6vectorIS9_NS7_IS9_EEEES9_S9_EEEEEEENS_8internal14ParamGeneratorINS1_15iterator_traitsIT_E10value_typeEEESK_SK_, symObjAddr: 0xE0884, symBinAddr: 0x1000E1EAC, symSize: 0x138 }
  - { offset: 0xE64B, size: 0x8, addend: 0x0, symName: __ZN7testing6ValuesIJNSt3__15tupleIJPKcS4_S4_EEES5_S5_S5_NS2_IJS4_NS1_12basic_stringIcNS1_11char_traitsIcEENS1_9allocatorIcEEEES4_EEEEEENS_8internal10ValueArrayIJDpT_EEESG_, symObjAddr: 0xFAA0C, symBinAddr: 0x1000FC034, symSize: 0x404 }
  - { offset: 0xE6DE, size: 0x8, addend: 0x0, symName: __ZN7testing8ValuesInINSt3__16vectorINS1_5tupleIJNS1_12basic_stringIcNS1_11char_traitsIcEENS1_9allocatorIcEEEES9_S9_EEENS7_ISA_EEEEEENS_8internal14ParamGeneratorINT_10value_typeEEERKSF_, symObjAddr: 0xFD684, symBinAddr: 0x1000FECAC, symSize: 0x9C }
  - { offset: 0xE715, size: 0x8, addend: 0x0, symName: __ZN7testing8ValuesInINSt3__111__wrap_iterIPKNS1_5tupleIJNS1_12basic_stringIcNS1_11char_traitsIcEENS1_9allocatorIcEEEES9_S9_EEEEEEENS_8internal14ParamGeneratorINS1_15iterator_traitsIT_E10value_typeEEESH_SH_, symObjAddr: 0xFE124, symBinAddr: 0x1000FF74C, symSize: 0x138 }
  - { offset: 0xE75B, size: 0x8, addend: 0x0, symName: __ZN7testing13PrintToStringINSt3__15tupleIJNS1_12basic_stringIcNS1_11char_traitsIcEENS1_9allocatorIcEEEES8_EEEEES8_RKT_, symObjAddr: 0x115030, symBinAddr: 0x100116658, symSize: 0x3D0 }
  - { offset: 0xE7A6, size: 0x8, addend: 0x0, symName: __ZN7testing13PrintToStringINSt3__15tupleIJNS1_12basic_stringIcNS1_11char_traitsIcEENS1_9allocatorIcEEEENS1_6vectorIS8_NS6_IS8_EEEEEEEEES8_RKT_, symObjAddr: 0x1378D4, symBinAddr: 0x100138EFC, symSize: 0x3D0 }
  - { offset: 0xE7F1, size: 0x8, addend: 0x0, symName: __ZN7testing13PrintToStringINSt3__15tupleIJNS1_6vectorINS1_12basic_stringIcNS1_11char_traitsIcEENS1_9allocatorIcEEEENS7_IS9_EEEES9_EEEEES9_RKT_, symObjAddr: 0x146410, symBinAddr: 0x100147A38, symSize: 0x3D0 }
  - { offset: 0xE83C, size: 0x8, addend: 0x0, symName: __ZN7testing13PrintToStringINSt3__15tupleIJNS1_6vectorINS1_12basic_stringIcNS1_11char_traitsIcEENS1_9allocatorIcEEEENS7_IS9_EEEESB_iEEEEES9_RKT_, symObjAddr: 0x154EF4, symBinAddr: 0x10015651C, symSize: 0x3D0 }
  - { offset: 0xE887, size: 0x8, addend: 0x0, symName: __ZN7testing13PrintToStringINSt3__15tupleIJNS1_12basic_stringIcNS1_11char_traitsIcEENS1_9allocatorIcEEEENS1_6vectorIS8_NS6_IS8_EEEES8_S8_EEEEES8_RKT_, symObjAddr: 0x163B70, symBinAddr: 0x100165198, symSize: 0x3D0 }
  - { offset: 0xE8D2, size: 0x8, addend: 0x0, symName: __ZN7testing13PrintToStringINSt3__15tupleIJNS1_12basic_stringIcNS1_11char_traitsIcEENS1_9allocatorIcEEEES8_S8_EEEEES8_RKT_, symObjAddr: 0x172A48, symBinAddr: 0x100174070, symSize: 0x3D0 }
  - { offset: 0x36351, size: 0x8, addend: 0x0, symName: __ZNSt3__124__put_character_sequenceB8ne210108IcNS_11char_traitsIcEEEERNS_13basic_ostreamIT_T0_EES7_PKS4_m, symObjAddr: 0x23838, symBinAddr: 0x100024E60, symSize: 0xA20 }
  - { offset: 0x41E7D, size: 0x8, addend: 0x0, symName: __ZNSt3__118__constexpr_strlenB8ne210108IcEEmPKT_, symObjAddr: 0x16A40, symBinAddr: 0x100018068, symSize: 0x24 }
  - { offset: 0x41EB3, size: 0x8, addend: 0x0, symName: __ZNSt3__112__to_addressB8ne210108IKcEEPT_S3_, symObjAddr: 0x1797C, symBinAddr: 0x100018FA4, symSize: 0x14 }
  - { offset: 0x41F1C, size: 0x8, addend: 0x0, symName: __ZNSt3__1lsB8ne210108INS_11char_traitsIcEEEERNS_13basic_ostreamIcT_EES6_PKc, symObjAddr: 0x1AAC8, symBinAddr: 0x10001C0F0, symSize: 0xB0 }
  - { offset: 0x41F62, size: 0x8, addend: 0x0, symName: __ZNSt3__1lsB8ne210108IcNS_11char_traitsIcEENS_9allocatorIcEEEERNS_13basic_ostreamIT_T0_EES9_RKNS_12basic_stringIS6_S7_T1_EE, symObjAddr: 0x1B9E0, symBinAddr: 0x10001D008, symSize: 0x104 }
  - { offset: 0x41FBA, size: 0x8, addend: 0x0, symName: __ZNSt3__13getB8ne210108ILm1EJPKN7testing8internal11MatcherBaseIRKNS_6vectorINS_12basic_stringIcNS_11char_traitsIcEENS_9allocatorIcEEEENS8_ISA_EEEEEEPKNS1_16MatcherInterfaceISE_EEEEEONS_13tuple_elementIXT_ENS_5tupleIJDpT0_EEEE4typeEOSQ_, symObjAddr: 0x1F08C, symBinAddr: 0x1000206B4, symSize: 0xC8 }
  - { offset: 0x42002, size: 0x8, addend: 0x0, symName: __ZNSt3__110make_tupleB8ne210108IJPKN7testing8internal11MatcherBaseIRKNS_6vectorINS_12basic_stringIcNS_11char_traitsIcEENS_9allocatorIcEEEENS8_ISA_EEEEEEPKNS1_16MatcherInterfaceISE_EEEEENS_5tupleIJDpNS_18__unwrap_referenceIu7__decayIT_EE4typeEEEEDpOSO_, symObjAddr: 0x1F15C, symBinAddr: 0x100020784, symSize: 0x230 }
  - { offset: 0x4247B, size: 0x8, addend: 0x0, symName: __ZNSt3__122__cxx_atomic_fetch_subB8ne210108IiEET_PNS_22__cxx_atomic_base_implIS1_EES1_NS_12memory_orderE, symObjAddr: 0x20F00, symBinAddr: 0x100022528, symSize: 0x2E4 }
  - { offset: 0x424CD, size: 0x8, addend: 0x0, symName: __ZNSt3__112__to_addressB8ne210108IcEEPT_S2_, symObjAddr: 0x23524, symBinAddr: 0x100024B4C, symSize: 0x14 }
  - { offset: 0x42502, size: 0x8, addend: 0x0, symName: __ZNSt3__116__pad_and_outputB8ne210108IcNS_11char_traitsIcEEEENS_19ostreambuf_iteratorIT_T0_EES6_PKS4_S8_S8_RNS_8ios_baseES4_, symObjAddr: 0x24348, symBinAddr: 0x100025970, symSize: 0x60C }
  - { offset: 0x425D1, size: 0x8, addend: 0x0, symName: __ZNSt3__19use_facetB8ne210108INS_5ctypeIcEEEERKT_RKNS_6localeE, symObjAddr: 0x25918, symBinAddr: 0x100026F40, symSize: 0xC0 }
  - { offset: 0x42AAC, size: 0x8, addend: 0x0, symName: __ZNSt3__1lsB8ne210108INS_11char_traitsIcEEEERNS_13basic_ostreamIcT_EES6_c, symObjAddr: 0x2684C, symBinAddr: 0x100027E74, symSize: 0x21C }
  - { offset: 0x42AF7, size: 0x8, addend: 0x0, symName: __ZNSt3__1eqB8ne210108IPKNS_12basic_stringIcNS_11char_traitsIcEENS_9allocatorIcEEEEEEbRKNS_11__wrap_iterIT_EESD_, symObjAddr: 0x26BDC, symBinAddr: 0x100028204, symSize: 0x90 }
  - { offset: 0x42B3A, size: 0x8, addend: 0x0, symName: __ZNSt3__110__str_findB8ne210108IcmNS_11char_traitsIcEETnT0_Lm18446744073709551615EEES3_PKT_S3_S6_S3_S3_, symObjAddr: 0x27BD0, symBinAddr: 0x1000291F8, symSize: 0x388 }
  - { offset: 0x42BE1, size: 0x8, addend: 0x0, symName: __ZNSt3__118__search_substringB8ne210108IcNS_11char_traitsIcEEEEPKT_S5_S5_S5_S5_, symObjAddr: 0x27F60, symBinAddr: 0x100029588, symSize: 0x444 }
  - { offset: 0x42C85, size: 0x8, addend: 0x0, symName: __ZNSt3__118__constexpr_memchrB8ne210108IKccEEPT_S3_T0_m, symObjAddr: 0x284A0, symBinAddr: 0x100029AC8, symSize: 0x4C }
  - { offset: 0x42CFB, size: 0x8, addend: 0x0, symName: __ZNSt3__119__str_find_first_ofB8ne210108IcmNS_11char_traitsIcEETnT0_Lm18446744073709551615EEES3_PKT_S3_S6_S3_S3_, symObjAddr: 0x285F8, symBinAddr: 0x100029C20, symSize: 0x3A0 }
  - { offset: 0x42DA2, size: 0x8, addend: 0x0, symName: __ZNSt3__118__find_first_of_ceB8ne210108IPKcS2_RDoFbccEEET_S5_S5_T0_S6_OT1_, symObjAddr: 0x289A0, symBinAddr: 0x100029FC8, symSize: 0x308 }
  - { offset: 0x42E3D, size: 0x8, addend: 0x0, symName: __ZNSt3__1eqB8ne210108INS_12basic_stringIcNS_11char_traitsIcEENS_9allocatorIcEEEENS_14default_deleteIS6_EEEEbRKNS_10unique_ptrIT_T0_EEDn, symObjAddr: 0x2933C, symBinAddr: 0x10002A964, symSize: 0x54 }
  - { offset: 0x42E88, size: 0x8, addend: 0x0, symName: __ZNSt3__111make_uniqueB8ne210108INS_12basic_stringIcNS_11char_traitsIcEENS_9allocatorIcEEEEJETnNS_9enable_ifIXntsr8is_arrayIT_EE5valueEiE4typeELi0EEENS_10unique_ptrIS8_NS_14default_deleteIS8_EEEEDpOT0_, symObjAddr: 0x29398, symBinAddr: 0x10002A9C0, symSize: 0xA4 }
  - { offset: 0x42EBD, size: 0x8, addend: 0x0, symName: __ZNSt3__110to_addressB8ne210108IcEEDaPT_, symObjAddr: 0x2ACE8, symBinAddr: 0x10002C310, symSize: 0x24 }
  - { offset: 0x42EF3, size: 0x8, addend: 0x0, symName: __ZNSt3__112__to_addressB8ne210108INS_12basic_stringIcNS_11char_traitsIcEENS_9allocatorIcEEEEEEPT_S8_, symObjAddr: 0x2CB78, symBinAddr: 0x10002E1A0, symSize: 0x14 }
  - { offset: 0x42F29, size: 0x8, addend: 0x0, symName: __ZNSt3__112__destroy_atB8ne210108INS_12basic_stringIcNS_11char_traitsIcEENS_9allocatorIcEEEETnNS_9enable_ifIXntsr8is_arrayIT_EE5valueEiE4typeELi0EEEvPS8_, symObjAddr: 0x2CB94, symBinAddr: 0x10002E1BC, symSize: 0x5C }
  - { offset: 0x42F62, size: 0x8, addend: 0x0, symName: __ZNSt3__131__annotate_contiguous_containerB8ne210108INS_9allocatorINS_12basic_stringIcNS_11char_traitsIcEENS1_IcEEEEEEEEvPKvS9_S9_S9_, symObjAddr: 0x2CDE4, symBinAddr: 0x10002E40C, symSize: 0x4C }
  - { offset: 0x42FBE, size: 0x8, addend: 0x0, symName: __ZNSt3__119__libcpp_deallocateB8ne210108INS_12basic_stringIcNS_11char_traitsIcEENS_9allocatorIcEEEEEEvPNS_15__type_identityIT_E4typeENS_15__element_countEm, symObjAddr: 0x2CE90, symBinAddr: 0x10002E4B8, symSize: 0x78 }
  - { offset: 0x4301A, size: 0x8, addend: 0x0, symName: __ZNSt3__124__is_overaligned_for_newB8ne210108Em, symObjAddr: 0x2CF10, symBinAddr: 0x10002E538, symSize: 0x1C }
  - { offset: 0x43046, size: 0x8, addend: 0x0, symName: __ZNSt3__122__make_exception_guardB8ne210108INS_6vectorINS_12basic_stringIcNS_11char_traitsIcEENS_9allocatorIcEEEENS5_IS7_EEE16__destroy_vectorEEENS_28__exception_guard_exceptionsIT_EESC_, symObjAddr: 0x30B74, symBinAddr: 0x10003219C, symSize: 0x74 }
  - { offset: 0x4307B, size: 0x8, addend: 0x0, symName: __ZNSt3__119__allocate_at_leastB8ne210108INS_9allocatorINS_12basic_stringIcNS_11char_traitsIcEENS1_IcEEEEEEEENS_19__allocation_resultINS_16allocator_traitsIT_E7pointerEEERSA_m, symObjAddr: 0x319F4, symBinAddr: 0x10003301C, symSize: 0x40 }
  - { offset: 0x430BE, size: 0x8, addend: 0x0, symName: __ZNSt3__13minB8ne210108ImEERKT_S3_S3_, symObjAddr: 0x31C3C, symBinAddr: 0x100033264, symSize: 0xD4 }
  - { offset: 0x432EB, size: 0x8, addend: 0x0, symName: __ZNSt3__13minB8ne210108ImNS_6__lessIvvEEEERKT_S5_S5_T0_, symObjAddr: 0x31D90, symBinAddr: 0x1000333B8, symSize: 0x270 }
  - { offset: 0x43393, size: 0x8, addend: 0x0, symName: __ZNSt3__120__throw_length_errorB8ne210108EPKc, symObjAddr: 0x32114, symBinAddr: 0x10003373C, symSize: 0xA4 }
  - { offset: 0x433BB, size: 0x8, addend: 0x0, symName: __ZNSt3__117__libcpp_allocateB8ne210108INS_12basic_stringIcNS_11char_traitsIcEENS_9allocatorIcEEEEEEPT_NS_15__element_countEm, symObjAddr: 0x3245C, symBinAddr: 0x100033A84, symSize: 0xB4 }
  - { offset: 0x4340C, size: 0x8, addend: 0x0, symName: __ZNSt3__130__uninitialized_allocator_copyB8ne210108INS_9allocatorINS_12basic_stringIcNS_11char_traitsIcEENS1_IcEEEEEEPKS6_S9_PS6_EET2_RT_T0_T1_SB_, symObjAddr: 0x3258C, symBinAddr: 0x100033BB4, symSize: 0x278 }
  - { offset: 0x434B2, size: 0x8, addend: 0x0, symName: __ZNSt3__114__unwrap_rangeB8ne210108IPKNS_12basic_stringIcNS_11char_traitsIcEENS_9allocatorIcEEEES8_EEDaT_T0_, symObjAddr: 0x32E8C, symBinAddr: 0x1000344B4, symSize: 0x3C }
  - { offset: 0x434FE, size: 0x8, addend: 0x0, symName: __ZNSt3__135__uninitialized_allocator_copy_implB8ne210108INS_9allocatorINS_12basic_stringIcNS_11char_traitsIcEENS1_IcEEEEEEPKS6_S9_PS6_EET2_RT_T0_T1_SB_, symObjAddr: 0x32ED0, symBinAddr: 0x1000344F8, symSize: 0x520 }
  - { offset: 0x435AA, size: 0x8, addend: 0x0, symName: __ZNSt3__113__unwrap_iterB8ne210108IPNS_12basic_stringIcNS_11char_traitsIcEENS_9allocatorIcEEEENS_18__unwrap_iter_implIS7_Lb1EEETnNS_9enable_ifIXsr21is_copy_constructibleIT_EE5valueEiE4typeELi0EEEDTclsrT0_8__unwrapclsr3stdE7declvalISB_EEEESB_, symObjAddr: 0x333F8, symBinAddr: 0x100034A20, symSize: 0x24 }
  - { offset: 0x435EF, size: 0x8, addend: 0x0, symName: __ZNSt3__113__rewrap_iterB8ne210108IPNS_12basic_stringIcNS_11char_traitsIcEENS_9allocatorIcEEEES7_NS_18__unwrap_iter_implIS7_Lb1EEEEET_SA_T0_, symObjAddr: 0x33424, symBinAddr: 0x100034A4C, symSize: 0x48 }
  - { offset: 0x43745, size: 0x8, addend: 0x0, symName: __ZNSt3__113__unwrap_iterB8ne210108IPKNS_12basic_stringIcNS_11char_traitsIcEENS_9allocatorIcEEEENS_18__unwrap_iter_implIS8_Lb1EEETnNS_9enable_ifIXsr21is_copy_constructibleIT_EE5valueEiE4typeELi0EEEDTclsrT0_8__unwrapclsr3stdE7declvalISC_EEEESC_, symObjAddr: 0x336C4, symBinAddr: 0x100034CEC, symSize: 0x24 }
  - { offset: 0x437D3, size: 0x8, addend: 0x0, symName: __ZNSt3__112__to_addressB8ne210108IKNS_12basic_stringIcNS_11char_traitsIcEENS_9allocatorIcEEEEEEPT_S9_, symObjAddr: 0x33790, symBinAddr: 0x100034DB8, symSize: 0x14 }
  - { offset: 0x43808, size: 0x8, addend: 0x0, symName: __ZNSt3__122__make_exception_guardB8ne210108INS_29_AllocatorDestroyRangeReverseINS_9allocatorINS_12basic_stringIcNS_11char_traitsIcEENS2_IcEEEEEEPS7_EEEENS_28__exception_guard_exceptionsIT_EESC_, symObjAddr: 0x33984, symBinAddr: 0x100034FAC, symSize: 0x204 }
  - { offset: 0x4383F, size: 0x8, addend: 0x0, symName: __ZNSt3__114__construct_atB8ne210108INS_12basic_stringIcNS_11char_traitsIcEENS_9allocatorIcEEEEJRKS6_EPS6_EEPT_SB_DpOT0_, symObjAddr: 0x340C4, symBinAddr: 0x1000356EC, symSize: 0x6C }
  - { offset: 0x43892, size: 0x8, addend: 0x0, symName: __ZNSt3__112construct_atB8ne210108INS_12basic_stringIcNS_11char_traitsIcEENS_9allocatorIcEEEEJRKS6_EPS6_EEPT_SB_DpOT0_, symObjAddr: 0x34138, symBinAddr: 0x100035760, symSize: 0xA0 }
  - { offset: 0x438E6, size: 0x8, addend: 0x0, symName: __ZNSt3__119__allocator_destroyB8ne210108INS_9allocatorINS_12basic_stringIcNS_11char_traitsIcEENS1_IcEEEEEENS_16reverse_iteratorIPS6_EESA_EEvRT_T0_T1_, symObjAddr: 0x34674, symBinAddr: 0x100035C9C, symSize: 0x244 }
  - { offset: 0x4394E, size: 0x8, addend: 0x0, symName: __ZNSt3__1neB8ne210108IPNS_12basic_stringIcNS_11char_traitsIcEENS_9allocatorIcEEEES7_EEbRKNS_16reverse_iteratorIT_EERKNS8_IT0_EEQrqXnecldtfp_4baseEcldtfp0_4baseERNS_14convertible_toIbEEE, symObjAddr: 0x3492C, symBinAddr: 0x100035F54, symSize: 0x90 }
  - { offset: 0x439E2, size: 0x8, addend: 0x0, symName: __ZNSt3__13getB8ne210108ILm0EJPKN7testing8internal11MatcherBaseIRKPNS_12basic_stringIcNS_11char_traitsIcEENS_9allocatorIcEEEEEEPKNS2_9EqMatcherISA_EEEEEONS_13tuple_elementIXT_ENS_5tupleIJDpT0_EEEE4typeEOSO_, symObjAddr: 0x38550, symBinAddr: 0x100039B78, symSize: 0xB8 }
  - { offset: 0x43A2A, size: 0x8, addend: 0x0, symName: __ZNSt3__110make_tupleB8ne210108IJPKN7testing8internal11MatcherBaseIRKPNS_12basic_stringIcNS_11char_traitsIcEENS_9allocatorIcEEEEEEPKNS2_9EqMatcherISA_EEEEENS_5tupleIJDpNS_18__unwrap_referenceIu7__decayIT_EE4typeEEEEDpOSM_, symObjAddr: 0x38610, symBinAddr: 0x100039C38, symSize: 0x230 }
  - { offset: 0x43E87, size: 0x8, addend: 0x0, symName: __ZNSt3__122__make_exception_guardB8ne210108INS_6vectorIPKcNS_9allocatorIS3_EEE16__destroy_vectorEEENS_28__exception_guard_exceptionsIT_EES9_, symObjAddr: 0x3A24C, symBinAddr: 0x10003B874, symSize: 0x74 }
  - { offset: 0x43EBC, size: 0x8, addend: 0x0, symName: __ZNSt3__119__allocate_at_leastB8ne210108INS_9allocatorIPKcEEEENS_19__allocation_resultINS_16allocator_traitsIT_E7pointerEEERS7_m, symObjAddr: 0x3B218, symBinAddr: 0x10003C840, symSize: 0x40 }
  - { offset: 0x43EFF, size: 0x8, addend: 0x0, symName: __ZNSt3__117__libcpp_allocateB8ne210108IPKcEEPT_NS_15__element_countEm, symObjAddr: 0x3B560, symBinAddr: 0x10003CB88, symSize: 0xB0 }
  - { offset: 0x43F51, size: 0x8, addend: 0x0, symName: __ZNSt3__131__annotate_contiguous_containerB8ne210108INS_9allocatorIPKcEEEEvPKvS6_S6_S6_, symObjAddr: 0x3B91C, symBinAddr: 0x10003CF44, symSize: 0x4C }
  - { offset: 0x43FAD, size: 0x8, addend: 0x0, symName: __ZNSt3__112__to_addressB8ne210108IPKcEEPT_S4_, symObjAddr: 0x3B970, symBinAddr: 0x10003CF98, symSize: 0x14 }
  - { offset: 0x43FE2, size: 0x8, addend: 0x0, symName: __ZNSt3__130__uninitialized_allocator_copyB8ne210108INS_9allocatorIPKcEEPS3_S5_S5_EET2_RT_T0_T1_S6_, symObjAddr: 0x3BA00, symBinAddr: 0x10003D028, symSize: 0x278 }
  - { offset: 0x44088, size: 0x8, addend: 0x0, symName: __ZNSt3__114__unwrap_rangeB8ne210108IPPKcS3_EEDaT_T0_, symObjAddr: 0x3C2E0, symBinAddr: 0x10003D908, symSize: 0x3C }
  - { offset: 0x440D4, size: 0x8, addend: 0x0, symName: __ZNSt3__135__uninitialized_allocator_copy_implB8ne210108INS_9allocatorIPKcEES3_S3_TnNS_9enable_ifIXaaaaaasr31is_trivially_copy_constructibleIT0_EE5valuesr28is_trivially_copy_assignableIS6_EE5valuesr7is_sameIu14__remove_constIS6_Eu14__remove_constIT1_EEE5value40__allocator_has_trivial_copy_construct_vIT_S6_EEiE4typeELi0EEEPS8_RSA_PS6_SF_SD_, symObjAddr: 0x3C324, symBinAddr: 0x10003D94C, symSize: 0x38 }
  - { offset: 0x4414D, size: 0x8, addend: 0x0, symName: __ZNSt3__113__unwrap_iterB8ne210108IPPKcNS_18__unwrap_iter_implIS3_Lb1EEETnNS_9enable_ifIXsr21is_copy_constructibleIT_EE5valueEiE4typeELi0EEEDTclsrT0_8__unwrapclsr3stdE7declvalIS7_EEEES7_, symObjAddr: 0x3C364, symBinAddr: 0x10003D98C, symSize: 0x24 }
  - { offset: 0x44192, size: 0x8, addend: 0x0, symName: __ZNSt3__113__rewrap_iterB8ne210108IPPKcS3_NS_18__unwrap_iter_implIS3_Lb1EEEEET_S6_T0_, symObjAddr: 0x3C390, symBinAddr: 0x10003D9B8, symSize: 0x48 }
  - { offset: 0x44332, size: 0x8, addend: 0x0, symName: __ZNSt3__14copyB8ne210108IPPKcS3_EET0_T_S5_S4_, symObjAddr: 0x3C87C, symBinAddr: 0x10003DEA4, symSize: 0x218 }
  - { offset: 0x4438F, size: 0x8, addend: 0x0, symName: __ZNSt3__16__copyB8ne210108IPPKcS3_S3_EENS_4pairIT_T1_EES5_T0_S6_, symObjAddr: 0x3CA9C, symBinAddr: 0x10003E0C4, symSize: 0x44 }
  - { offset: 0x443F2, size: 0x8, addend: 0x0, symName: __ZNSt3__124__copy_move_unwrap_itersB8ne210108INS_11__copy_implEPPKcS4_S4_TnNS_9enable_ifIXsr12__can_rewrapIT0_T2_EE5valueEiE4typeELi0EEENS_4pairIS6_S7_EES6_T1_S7_, symObjAddr: 0x3CAE8, symBinAddr: 0x10003E110, symSize: 0x3B8 }
  - { offset: 0x444D3, size: 0x8, addend: 0x0, symName: __ZNSt3__19make_pairB8ne210108IPPKcS3_EENS_4pairINS_18__unwrap_referenceIu7__decayIT_EE4typeENS5_Iu7__decayIT0_EE4typeEEEOS6_OSA_, symObjAddr: 0x3CF14, symBinAddr: 0x10003E53C, symSize: 0x230 }
  - { offset: 0x44524, size: 0x8, addend: 0x0, symName: __ZNSt3__114__rewrap_rangeB8ne210108IPPKcS3_S3_EET0_S4_T1_, symObjAddr: 0x3D14C, symBinAddr: 0x10003E774, symSize: 0x2C }
  - { offset: 0x44579, size: 0x8, addend: 0x0, symName: __ZNSt3__119__copy_trivial_implB8ne210108IPKcS2_EENS_4pairIPT_PT0_EES5_S5_S7_, symObjAddr: 0x3D180, symBinAddr: 0x10003E7A8, symSize: 0x2F0 }
  - { offset: 0x445E8, size: 0x8, addend: 0x0, symName: __ZNSt3__119__constexpr_memmoveB8ne210108IPKcS2_EEPT_S4_PT0_NS_15__element_countE, symObjAddr: 0x3D478, symBinAddr: 0x10003EAA0, symSize: 0xBC }
  - { offset: 0x44650, size: 0x8, addend: 0x0, symName: __ZNSt3__19make_pairB8ne210108IRPPKcS3_EENS_4pairINS_18__unwrap_referenceIu7__decayIT_EE4typeENS6_Iu7__decayIT0_EE4typeEEEOS7_OSB_, symObjAddr: 0x3D53C, symBinAddr: 0x10003EB64, symSize: 0x230 }
  - { offset: 0x446EA, size: 0x8, addend: 0x0, symName: __ZNSt3__112__destroy_atB8ne210108IPKcTnNS_9enable_ifIXntsr8is_arrayIT_EE5valueEiE4typeELi0EEEvPS4_, symObjAddr: 0x3EA1C, symBinAddr: 0x100040044, symSize: 0x10 }
  - { offset: 0x44723, size: 0x8, addend: 0x0, symName: __ZNSt3__119__libcpp_deallocateB8ne210108IPKcEEvPNS_15__type_identityIT_E4typeENS_15__element_countEm, symObjAddr: 0x3EA8C, symBinAddr: 0x1000400B4, symSize: 0x74 }
  - { offset: 0x4477E, size: 0x8, addend: 0x0, symName: __ZNSt3__18distanceB8ne210108IPKPKcEENS_15iterator_traitsIT_E15difference_typeES6_S6_, symObjAddr: 0x3F130, symBinAddr: 0x100040758, symSize: 0x2C }
  - { offset: 0x447C2, size: 0x8, addend: 0x0, symName: __ZNSt3__110__distanceB8ne210108IPKPKcEENS_15iterator_traitsIT_E15difference_typeES6_S6_NS_26random_access_iterator_tagE, symObjAddr: 0x3F58C, symBinAddr: 0x100040BB4, symSize: 0x28 }
  - { offset: 0x44810, size: 0x8, addend: 0x0, symName: __ZNSt3__130__uninitialized_allocator_copyB8ne210108INS_9allocatorIPKcEEPKS3_S6_PS3_EET2_RT_T0_T1_S8_, symObjAddr: 0x3F990, symBinAddr: 0x100040FB8, symSize: 0x278 }
  - { offset: 0x448B6, size: 0x8, addend: 0x0, symName: __ZNSt3__114__unwrap_rangeB8ne210108IPKPKcS4_EEDaT_T0_, symObjAddr: 0x3FC10, symBinAddr: 0x100041238, symSize: 0x3C }
  - { offset: 0x44902, size: 0x8, addend: 0x0, symName: __ZNSt3__135__uninitialized_allocator_copy_implB8ne210108INS_9allocatorIPKcEEPKS3_S6_PS3_EET2_RT_T0_T1_S8_, symObjAddr: 0x3FC54, symBinAddr: 0x10004127C, symSize: 0x520 }
  - { offset: 0x44AAF, size: 0x8, addend: 0x0, symName: __ZNSt3__113__unwrap_iterB8ne210108IPKPKcNS_18__unwrap_iter_implIS4_Lb1EEETnNS_9enable_ifIXsr21is_copy_constructibleIT_EE5valueEiE4typeELi0EEEDTclsrT0_8__unwrapclsr3stdE7declvalIS8_EEEES8_, symObjAddr: 0x403CC, symBinAddr: 0x1000419F4, symSize: 0x24 }
  - { offset: 0x44B3D, size: 0x8, addend: 0x0, symName: __ZNSt3__112__to_addressB8ne210108IKPKcEEPT_S5_, symObjAddr: 0x40498, symBinAddr: 0x100041AC0, symSize: 0x14 }
  - { offset: 0x44B72, size: 0x8, addend: 0x0, symName: __ZNSt3__122__make_exception_guardB8ne210108INS_29_AllocatorDestroyRangeReverseINS_9allocatorIPKcEEPS4_EEEENS_28__exception_guard_exceptionsIT_EES9_, symObjAddr: 0x4068C, symBinAddr: 0x100041CB4, symSize: 0x204 }
  - { offset: 0x44BA9, size: 0x8, addend: 0x0, symName: __ZNSt3__114__construct_atB8ne210108IPKcJRKS2_EPS2_EEPT_S7_DpOT0_, symObjAddr: 0x40DCC, symBinAddr: 0x1000423F4, symSize: 0x6C }
  - { offset: 0x44BFC, size: 0x8, addend: 0x0, symName: __ZNSt3__112construct_atB8ne210108IPKcJRKS2_EPS2_EEPT_S7_DpOT0_, symObjAddr: 0x40E40, symBinAddr: 0x100042468, symSize: 0x118 }
  - { offset: 0x44C50, size: 0x8, addend: 0x0, symName: __ZNSt3__119__allocator_destroyB8ne210108INS_9allocatorIPKcEENS_16reverse_iteratorIPS3_EES7_EEvRT_T0_T1_, symObjAddr: 0x413F4, symBinAddr: 0x100042A1C, symSize: 0x244 }
  - { offset: 0x44CB8, size: 0x8, addend: 0x0, symName: __ZNSt3__1neB8ne210108IPPKcS3_EEbRKNS_16reverse_iteratorIT_EERKNS4_IT0_EEQrqXnecldtfp_4baseEcldtfp0_4baseERNS_14convertible_toIbEEE, symObjAddr: 0x416AC, symBinAddr: 0x100042CD4, symSize: 0x90 }
  - { offset: 0x44D04, size: 0x8, addend: 0x0, symName: __ZNSt3__1eqB8ne210108IPKPKcEEbRKNS_11__wrap_iterIT_EES9_, symObjAddr: 0x42A0C, symBinAddr: 0x100044034, symSize: 0x90 }
  - { offset: 0x44D48, size: 0x8, addend: 0x0, symName: __ZNSt3__112__to_addressB8ne210108IN7testing7MatcherIRKNS_12basic_stringIcNS_11char_traitsIcEENS_9allocatorIcEEEEEEEEPT_SD_, symObjAddr: 0x460D8, symBinAddr: 0x100047700, symSize: 0x14 }
  - { offset: 0x44D7E, size: 0x8, addend: 0x0, symName: __ZNSt3__131__annotate_contiguous_containerB8ne210108INS_9allocatorIN7testing7MatcherIRKNS_12basic_stringIcNS_11char_traitsIcEENS1_IcEEEEEEEEEEvPKvSE_SE_SE_, symObjAddr: 0x46A40, symBinAddr: 0x100048068, symSize: 0x4C }
  - { offset: 0x44DD9, size: 0x8, addend: 0x0, symName: __ZNSt3__114__construct_atB8ne210108IN7testing7MatcherIRKNS_12basic_stringIcNS_11char_traitsIcEENS_9allocatorIcEEEEEEJSB_EPSB_EEPT_SE_DpOT0_, symObjAddr: 0x46BB4, symBinAddr: 0x1000481DC, symSize: 0x6C }
  - { offset: 0x44E2C, size: 0x8, addend: 0x0, symName: __ZNSt3__112construct_atB8ne210108IN7testing7MatcherIRKNS_12basic_stringIcNS_11char_traitsIcEENS_9allocatorIcEEEEEEJSB_EPSB_EEPT_SE_DpOT0_, symObjAddr: 0x46C28, symBinAddr: 0x100048250, symSize: 0xA0 }
  - { offset: 0x44E7F, size: 0x8, addend: 0x0, symName: __ZNSt3__13maxB8ne210108ImEERKT_S3_S3_, symObjAddr: 0x493FC, symBinAddr: 0x10004AA24, symSize: 0xD4 }
  - { offset: 0x44EC2, size: 0x8, addend: 0x0, symName: __ZNSt3__13maxB8ne210108ImNS_6__lessIvvEEEERKT_S5_S5_T0_, symObjAddr: 0x49534, symBinAddr: 0x10004AB5C, symSize: 0x270 }
  - { offset: 0x44F22, size: 0x8, addend: 0x0, symName: __ZNSt3__119__allocate_at_leastB8ne210108INS_9allocatorIN7testing7MatcherIRKNS_12basic_stringIcNS_11char_traitsIcEENS1_IcEEEEEEEEEENS_19__allocation_resultINS_16allocator_traitsIT_E7pointerEEERSF_m, symObjAddr: 0x49E10, symBinAddr: 0x10004B438, symSize: 0x40 }
  - { offset: 0x44F65, size: 0x8, addend: 0x0, symName: __ZNSt3__117__libcpp_allocateB8ne210108IN7testing7MatcherIRKNS_12basic_stringIcNS_11char_traitsIcEENS_9allocatorIcEEEEEEEEPT_NS_15__element_countEm, symObjAddr: 0x49F0C, symBinAddr: 0x10004B534, symSize: 0xB4 }
  - { offset: 0x44FB6, size: 0x8, addend: 0x0, symName: __ZNSt3__134__uninitialized_allocator_relocateB8ne210108INS_9allocatorIN7testing7MatcherIRKNS_12basic_stringIcNS_11char_traitsIcEENS1_IcEEEEEEEEPSB_EEvRT_T0_SG_SG_, symObjAddr: 0x4A1D8, symBinAddr: 0x10004B800, symSize: 0x550 }
  - { offset: 0x45062, size: 0x8, addend: 0x0, symName: __ZNSt3__14swapB8ne210108IPN7testing7MatcherIRKNS_12basic_stringIcNS_11char_traitsIcEENS_9allocatorIcEEEEEEEENS_9enable_ifIXaasr21is_move_constructibleIT_EE5valuesr18is_move_assignableISE_EE5valueEvE4typeERSE_SH_, symObjAddr: 0x4A730, symBinAddr: 0x10004BD58, symSize: 0x190 }
  - { offset: 0x450B3, size: 0x8, addend: 0x0, symName: __ZNSt3__122__make_exception_guardB8ne210108INS_29_AllocatorDestroyRangeReverseINS_9allocatorIN7testing7MatcherIRKNS_12basic_stringIcNS_11char_traitsIcEENS2_IcEEEEEEEEPSC_EEEENS_28__exception_guard_exceptionsIT_EESH_, symObjAddr: 0x4AAC8, symBinAddr: 0x10004C0F0, symSize: 0x204 }
  - { offset: 0x450EB, size: 0x8, addend: 0x0, symName: __ZNSt3__119__allocator_destroyB8ne210108INS_9allocatorIN7testing7MatcherIRKNS_12basic_stringIcNS_11char_traitsIcEENS1_IcEEEEEEEEPSB_SD_EEvRT_T0_T1_, symObjAddr: 0x4AE8C, symBinAddr: 0x10004C4B4, symSize: 0xEC }
  - { offset: 0x4514A, size: 0x8, addend: 0x0, symName: __ZNSt3__114__construct_atB8ne210108IN7testing7MatcherIRKNS_12basic_stringIcNS_11char_traitsIcEENS_9allocatorIcEEEEEEJRKSB_EPSB_EEPT_SG_DpOT0_, symObjAddr: 0x4B2FC, symBinAddr: 0x10004C924, symSize: 0x6C }
  - { offset: 0x4519D, size: 0x8, addend: 0x0, symName: __ZNSt3__112construct_atB8ne210108IN7testing7MatcherIRKNS_12basic_stringIcNS_11char_traitsIcEENS_9allocatorIcEEEEEEJRKSB_EPSB_EEPT_SG_DpOT0_, symObjAddr: 0x4B370, symBinAddr: 0x10004C998, symSize: 0xA0 }
  - { offset: 0x451F0, size: 0x8, addend: 0x0, symName: __ZNSt3__122__cxx_atomic_fetch_addB8ne210108IiEET_PNS_22__cxx_atomic_base_implIS1_EES1_NS_12memory_orderE, symObjAddr: 0x4BA00, symBinAddr: 0x10004D028, symSize: 0x2D0 }
  - { offset: 0x45242, size: 0x8, addend: 0x0, symName: __ZNSt3__112__destroy_atB8ne210108IN7testing7MatcherIRKNS_12basic_stringIcNS_11char_traitsIcEENS_9allocatorIcEEEEEETnNS_9enable_ifIXntsr8is_arrayIT_EE5valueEiE4typeELi0EEEvPSD_, symObjAddr: 0x4BD08, symBinAddr: 0x10004D330, symSize: 0xD4 }
  - { offset: 0x4527B, size: 0x8, addend: 0x0, symName: __ZNSt3__119__allocator_destroyB8ne210108INS_9allocatorIN7testing7MatcherIRKNS_12basic_stringIcNS_11char_traitsIcEENS1_IcEEEEEEEENS_16reverse_iteratorIPSB_EESF_EEvRT_T0_T1_, symObjAddr: 0x4C278, symBinAddr: 0x10004D8A0, symSize: 0x244 }
  - { offset: 0x452E3, size: 0x8, addend: 0x0, symName: __ZNSt3__1neB8ne210108IPN7testing7MatcherIRKNS_12basic_stringIcNS_11char_traitsIcEENS_9allocatorIcEEEEEESC_EEbRKNS_16reverse_iteratorIT_EERKNSD_IT0_EEQrqXnecldtfp_4baseEcldtfp0_4baseERNS_14convertible_toIbEEE, symObjAddr: 0x4C530, symBinAddr: 0x10004DB58, symSize: 0x90 }
  - { offset: 0x45330, size: 0x8, addend: 0x0, symName: __ZNSt3__119__libcpp_deallocateB8ne210108IN7testing7MatcherIRKNS_12basic_stringIcNS_11char_traitsIcEENS_9allocatorIcEEEEEEEEvPNS_15__type_identityIT_E4typeENS_15__element_countEm, symObjAddr: 0x4D06C, symBinAddr: 0x10004E694, symSize: 0x78 }
  - { offset: 0x4538B, size: 0x8, addend: 0x0, symName: __ZNSt3__114__construct_atB8ne210108INS_12basic_stringIcNS_11char_traitsIcEENS_9allocatorIcEEEEJEPS6_EEPT_S9_DpOT0_, symObjAddr: 0x51244, symBinAddr: 0x10005286C, symSize: 0x24 }
  - { offset: 0x453CB, size: 0x8, addend: 0x0, symName: __ZNSt3__112construct_atB8ne210108INS_12basic_stringIcNS_11char_traitsIcEENS_9allocatorIcEEEEJEPS6_EEPT_S9_DpOT0_, symObjAddr: 0x51270, symBinAddr: 0x100052898, symSize: 0x60 }
  - { offset: 0x4540C, size: 0x8, addend: 0x0, symName: __ZNSt3__119__libcpp_deallocateB8ne210108IcEEvPNS_15__type_identityIT_E4typeENS_15__element_countEm, symObjAddr: 0x51F18, symBinAddr: 0x100053540, symSize: 0x74 }
  - { offset: 0x45468, size: 0x8, addend: 0x0, symName: __ZNSt3__112__to_addressB8ne210108INS_10shared_ptrIN7testing8internal26ParameterizedTestSuiteInfoIN12_GLOBAL__N_115CaesarDec_CleanEE8TestInfoEEEEEPT_SB_, symObjAddr: 0x54564, symBinAddr: 0x100055B8C, symSize: 0x14 }
  - { offset: 0x4549E, size: 0x8, addend: 0x0, symName: __ZNSt3__131__annotate_contiguous_containerB8ne210108INS_9allocatorINS_10shared_ptrIN7testing8internal26ParameterizedTestSuiteInfoIN12_GLOBAL__N_115CaesarDec_CleanEE8TestInfoEEEEEEEvPKvSD_SD_SD_, symObjAddr: 0x54EA4, symBinAddr: 0x1000564CC, symSize: 0x4C }
  - { offset: 0x454F9, size: 0x8, addend: 0x0, symName: __ZNSt3__114__construct_atB8ne210108INS_10shared_ptrIN7testing8internal26ParameterizedTestSuiteInfoIN12_GLOBAL__N_115CaesarDec_CleanEE8TestInfoEEEJPS8_EPS9_EEPT_SD_DpOT0_, symObjAddr: 0x55018, symBinAddr: 0x100056640, symSize: 0x6C }
  - { offset: 0x4554C, size: 0x8, addend: 0x0, symName: __ZNSt3__112construct_atB8ne210108INS_10shared_ptrIN7testing8internal26ParameterizedTestSuiteInfoIN12_GLOBAL__N_115CaesarDec_CleanEE8TestInfoEEEJPS8_EPS9_EEPT_SD_DpOT0_, symObjAddr: 0x5508C, symBinAddr: 0x1000566B4, symSize: 0xE4 }
  - { offset: 0x4584E, size: 0x8, addend: 0x0, symName: __ZNSt3__119__libcpp_deallocateB8ne210108INS_20__shared_ptr_pointerIPN7testing8internal26ParameterizedTestSuiteInfoIN12_GLOBAL__N_115CaesarDec_CleanEE8TestInfoENS_10shared_ptrIS8_E27__shared_ptr_default_deleteIS8_S8_EENS_9allocatorIS8_EEEEEEvPNS_15__type_identityIT_E4typeENS_15__element_countEm, symObjAddr: 0x56BE8, symBinAddr: 0x100058210, symSize: 0x74 }
  - { offset: 0x458A9, size: 0x8, addend: 0x0, symName: __ZNSt3__119__allocate_at_leastB8ne210108INS_9allocatorINS_10shared_ptrIN7testing8internal26ParameterizedTestSuiteInfoIN12_GLOBAL__N_115CaesarDec_CleanEE8TestInfoEEEEEEENS_19__allocation_resultINS_16allocator_traitsIT_E7pointerEEERSE_m, symObjAddr: 0x5880C, symBinAddr: 0x100059E34, symSize: 0x40 }
  - { offset: 0x458EC, size: 0x8, addend: 0x0, symName: __ZNSt3__117__libcpp_allocateB8ne210108INS_10shared_ptrIN7testing8internal26ParameterizedTestSuiteInfoIN12_GLOBAL__N_115CaesarDec_CleanEE8TestInfoEEEEEPT_NS_15__element_countEm, symObjAddr: 0x58908, symBinAddr: 0x100059F30, symSize: 0xB0 }
  - { offset: 0x4593E, size: 0x8, addend: 0x0, symName: __ZNSt3__134__uninitialized_allocator_relocateB8ne210108INS_9allocatorINS_10shared_ptrIN7testing8internal26ParameterizedTestSuiteInfoIN12_GLOBAL__N_115CaesarDec_CleanEE8TestInfoEEEEEPSA_EEvRT_T0_SF_SF_, symObjAddr: 0x58BC0, symBinAddr: 0x10005A1E8, symSize: 0x8C }
  - { offset: 0x459A7, size: 0x8, addend: 0x0, symName: __ZNSt3__14swapB8ne210108IPNS_10shared_ptrIN7testing8internal26ParameterizedTestSuiteInfoIN12_GLOBAL__N_115CaesarDec_CleanEE8TestInfoEEEEENS_9enable_ifIXaasr21is_move_constructibleIT_EE5valuesr18is_move_assignableISC_EE5valueEvE4typeERSC_SF_, symObjAddr: 0x58C54, symBinAddr: 0x10005A27C, symSize: 0x190 }
  - { offset: 0x459F9, size: 0x8, addend: 0x0, symName: __ZNSt3__112__destroy_atB8ne210108INS_10shared_ptrIN7testing8internal26ParameterizedTestSuiteInfoIN12_GLOBAL__N_115CaesarDec_CleanEE8TestInfoEEETnNS_9enable_ifIXntsr8is_arrayIT_EE5valueEiE4typeELi0EEEvPSB_, symObjAddr: 0x595F4, symBinAddr: 0x10005AC1C, symSize: 0x5C }
  - { offset: 0x45A31, size: 0x8, addend: 0x0, symName: __ZNSt3__134__libcpp_atomic_refcount_decrementB8ne210108IlEET_RS1_, symObjAddr: 0x599D8, symBinAddr: 0x10005B000, symSize: 0x78 }
  - { offset: 0x45A67, size: 0x8, addend: 0x0, symName: __ZNSt3__119__libcpp_deallocateB8ne210108INS_10shared_ptrIN7testing8internal26ParameterizedTestSuiteInfoIN12_GLOBAL__N_115CaesarDec_CleanEE8TestInfoEEEEEvPNS_15__type_identityIT_E4typeENS_15__element_countEm, symObjAddr: 0x59AB0, symBinAddr: 0x10005B0D8, symSize: 0x74 }
  - { offset: 0x45AC2, size: 0x8, addend: 0x0, symName: __ZNSt3__13getB8ne210108ILm0EJNS_12basic_stringIcNS_11char_traitsIcEENS_9allocatorIcEEEES6_EEERKNS_13tuple_elementIXT_ENS_5tupleIJDpT0_EEEE4typeERKSB_, symObjAddr: 0x5C5F4, symBinAddr: 0x10005DC1C, symSize: 0xB8 }
  - { offset: 0x45B0A, size: 0x8, addend: 0x0, symName: __ZNSt3__13getB8ne210108ILm1EJNS_12basic_stringIcNS_11char_traitsIcEENS_9allocatorIcEEEES6_EEERKNS_13tuple_elementIXT_ENS_5tupleIJDpT0_EEEE4typeERKSB_, symObjAddr: 0x5C6B4, symBinAddr: 0x10005DCDC, symSize: 0xC8 }
  - { offset: 0x45B52, size: 0x8, addend: 0x0, symName: __ZNSt3__1eqB8ne210108IcNS_11char_traitsIcEENS_9allocatorIcEEEEbRKNS_12basic_stringIT_T0_T1_EESB_, symObjAddr: 0x602B0, symBinAddr: 0x1000618D8, symSize: 0x130 }
  - { offset: 0x45BB9, size: 0x8, addend: 0x0, symName: __ZNSt3__13getB8ne210108ILm1EJPKN7testing8internal11MatcherBaseIRKNS_12basic_stringIcNS_11char_traitsIcEENS_9allocatorIcEEEEEEPKNS1_16MatcherInterfaceISB_EEEEEONS_13tuple_elementIXT_ENS_5tupleIJDpT0_EEEE4typeEOSN_, symObjAddr: 0x620C0, symBinAddr: 0x1000636E8, symSize: 0xC8 }
  - { offset: 0x45C01, size: 0x8, addend: 0x0, symName: __ZNSt3__110make_tupleB8ne210108IJPKN7testing8internal11MatcherBaseIRKNS_12basic_stringIcNS_11char_traitsIcEENS_9allocatorIcEEEEEEPKNS1_16MatcherInterfaceISB_EEEEENS_5tupleIJDpNS_18__unwrap_referenceIu7__decayIT_EE4typeEEEEDpOSL_, symObjAddr: 0x62190, symBinAddr: 0x1000637B8, symSize: 0x230 }
  - { offset: 0x4605E, size: 0x8, addend: 0x0, symName: __ZNSt3__110make_tupleB8ne210108IJRA1_KcS3_EEENS_5tupleIJDpNS_18__unwrap_referenceIu7__decayIT_EE4typeEEEEDpOS6_, symObjAddr: 0x63768, symBinAddr: 0x100064D90, symSize: 0x220 }
  - { offset: 0x460AD, size: 0x8, addend: 0x0, symName: __ZNSt3__110make_tupleB8ne210108IJRA17_KcS3_EEENS_5tupleIJDpNS_18__unwrap_referenceIu7__decayIT_EE4typeEEEEDpOS6_, symObjAddr: 0x63990, symBinAddr: 0x100064FB8, symSize: 0x220 }
  - { offset: 0x460FC, size: 0x8, addend: 0x0, symName: __ZNSt3__110make_tupleB8ne210108IJRA24_KcRA1_S1_EEENS_5tupleIJDpNS_18__unwrap_referenceIu7__decayIT_EE4typeEEEEDpOS8_, symObjAddr: 0x63BB8, symBinAddr: 0x1000651E0, symSize: 0x220 }
  - { offset: 0x4614B, size: 0x8, addend: 0x0, symName: __ZNSt3__110make_tupleB8ne210108IJRA6_KcRA4_S1_EEENS_5tupleIJDpNS_18__unwrap_referenceIu7__decayIT_EE4typeEEEEDpOS8_, symObjAddr: 0x63DE0, symBinAddr: 0x100065408, symSize: 0x220 }
  - { offset: 0x461C0, size: 0x8, addend: 0x0, symName: __ZNSt3__18distanceB8ne210108INS_11__wrap_iterIPKNS_5tupleIJNS_12basic_stringIcNS_11char_traitsIcEENS_9allocatorIcEEEES8_EEEEEEENS_15iterator_traitsIT_E15difference_typeESE_SE_, symObjAddr: 0x66808, symBinAddr: 0x100067E30, symSize: 0x5C }
  - { offset: 0x46203, size: 0x8, addend: 0x0, symName: __ZNSt3__110__distanceB8ne210108INS_11__wrap_iterIPKNS_5tupleIJNS_12basic_stringIcNS_11char_traitsIcEENS_9allocatorIcEEEES8_EEEEEEENS_15iterator_traitsIT_E15difference_typeESE_SE_NS_26random_access_iterator_tagE, symObjAddr: 0x66CD8, symBinAddr: 0x100068300, symSize: 0x1E0 }
  - { offset: 0x4625A, size: 0x8, addend: 0x0, symName: __ZNSt3__1miB8ne210108IPKNS_5tupleIJNS_12basic_stringIcNS_11char_traitsIcEENS_9allocatorIcEEEES7_EEESA_EEDTmicldtfp_4baseEcldtfp0_4baseEERKNS_11__wrap_iterIT_EERKNSC_IT0_EE, symObjAddr: 0x66EC0, symBinAddr: 0x1000684E8, symSize: 0x94 }
  - { offset: 0x462A6, size: 0x8, addend: 0x0, symName: __ZNSt3__122__make_exception_guardB8ne210108INS_6vectorINS_5tupleIJNS_12basic_stringIcNS_11char_traitsIcEENS_9allocatorIcEEEES8_EEENS6_IS9_EEE16__destroy_vectorEEENS_28__exception_guard_exceptionsIT_EESE_, symObjAddr: 0x66FF8, symBinAddr: 0x100068620, symSize: 0x74 }
  - { offset: 0x462DB, size: 0x8, addend: 0x0, symName: __ZNSt3__119__allocate_at_leastB8ne210108INS_9allocatorINS_5tupleIJNS_12basic_stringIcNS_11char_traitsIcEENS1_IcEEEES7_EEEEEEENS_19__allocation_resultINS_16allocator_traitsIT_E7pointerEEERSC_m, symObjAddr: 0x68000, symBinAddr: 0x100069628, symSize: 0x40 }
  - { offset: 0x4631E, size: 0x8, addend: 0x0, symName: __ZNSt3__117__libcpp_allocateB8ne210108INS_5tupleIJNS_12basic_stringIcNS_11char_traitsIcEENS_9allocatorIcEEEES7_EEEEEPT_NS_15__element_countEm, symObjAddr: 0x68358, symBinAddr: 0x100069980, symSize: 0xB4 }
  - { offset: 0x46370, size: 0x8, addend: 0x0, symName: __ZNSt3__131__annotate_contiguous_containerB8ne210108INS_9allocatorINS_5tupleIJNS_12basic_stringIcNS_11char_traitsIcEENS1_IcEEEES7_EEEEEEEvPKvSB_SB_SB_, symObjAddr: 0x68720, symBinAddr: 0x100069D48, symSize: 0x4C }
  - { offset: 0x463CC, size: 0x8, addend: 0x0, symName: __ZNSt3__112__to_addressB8ne210108INS_5tupleIJNS_12basic_stringIcNS_11char_traitsIcEENS_9allocatorIcEEEES7_EEEEEPT_SA_, symObjAddr: 0x68774, symBinAddr: 0x100069D9C, symSize: 0x14 }
  - { offset: 0x46401, size: 0x8, addend: 0x0, symName: __ZNSt3__130__uninitialized_allocator_copyB8ne210108INS_9allocatorINS_5tupleIJNS_12basic_stringIcNS_11char_traitsIcEENS1_IcEEEES7_EEEEENS_11__wrap_iterIPKS8_EESD_PS8_EET2_RT_T0_T1_SF_, symObjAddr: 0x68804, symBinAddr: 0x100069E2C, symSize: 0x2C4 }
  - { offset: 0x464A7, size: 0x8, addend: 0x0, symName: __ZNSt3__114__unwrap_rangeB8ne210108INS_11__wrap_iterIPKNS_5tupleIJNS_12basic_stringIcNS_11char_traitsIcEENS_9allocatorIcEEEES8_EEEEESC_EEDaT_T0_, symObjAddr: 0x69230, symBinAddr: 0x10006A858, symSize: 0x6C }
  - { offset: 0x464F3, size: 0x8, addend: 0x0, symName: __ZNSt3__135__uninitialized_allocator_copy_implB8ne210108INS_9allocatorINS_5tupleIJNS_12basic_stringIcNS_11char_traitsIcEENS1_IcEEEES7_EEEEEPKS8_SB_PS8_EET2_RT_T0_T1_SD_, symObjAddr: 0x692A4, symBinAddr: 0x10006A8CC, symSize: 0x520 }
  - { offset: 0x4659F, size: 0x8, addend: 0x0, symName: __ZNSt3__113__unwrap_iterB8ne210108IPNS_5tupleIJNS_12basic_stringIcNS_11char_traitsIcEENS_9allocatorIcEEEES7_EEENS_18__unwrap_iter_implIS9_Lb1EEETnNS_9enable_ifIXsr21is_copy_constructibleIT_EE5valueEiE4typeELi0EEEDTclsrT0_8__unwrapclsr3stdE7declvalISD_EEEESD_, symObjAddr: 0x697CC, symBinAddr: 0x10006ADF4, symSize: 0x24 }
  - { offset: 0x465E4, size: 0x8, addend: 0x0, symName: __ZNSt3__113__rewrap_iterB8ne210108IPNS_5tupleIJNS_12basic_stringIcNS_11char_traitsIcEENS_9allocatorIcEEEES7_EEES9_NS_18__unwrap_iter_implIS9_Lb1EEEEET_SC_T0_, symObjAddr: 0x697F8, symBinAddr: 0x10006AE20, symSize: 0x48 }
  - { offset: 0x4673A, size: 0x8, addend: 0x0, symName: __ZNSt3__113__unwrap_iterB8ne210108INS_11__wrap_iterIPKNS_5tupleIJNS_12basic_stringIcNS_11char_traitsIcEENS_9allocatorIcEEEES8_EEEEENS_18__unwrap_iter_implISC_Lb1EEETnNS_9enable_ifIXsr21is_copy_constructibleIT_EE5valueEiE4typeELi0EEEDTclsrT0_8__unwrapclsr3stdE7declvalISG_EEEESG_, symObjAddr: 0x69AD4, symBinAddr: 0x10006B0FC, symSize: 0x34 }
  - { offset: 0x46847, size: 0x8, addend: 0x0, symName: __ZNSt3__112__to_addressB8ne210108INS_11__wrap_iterIPKNS_5tupleIJNS_12basic_stringIcNS_11char_traitsIcEENS_9allocatorIcEEEES8_EEEEETnNS_9enable_ifIXsr4_AndINS_8is_classIT_EENS_15_IsFancyPointerISF_EEEE5valueEiE4typeELi0EEEu7__decayIDTclsr19__to_address_helperISF_EE6__callclsr3stdE7declvalIRKSF_EEEEESM_, symObjAddr: 0x69D2C, symBinAddr: 0x10006B354, symSize: 0x5C }
  - { offset: 0x468AE, size: 0x8, addend: 0x0, symName: __ZNSt3__112__to_addressB8ne210108IKNS_5tupleIJNS_12basic_stringIcNS_11char_traitsIcEENS_9allocatorIcEEEES7_EEEEEPT_SB_, symObjAddr: 0x69F78, symBinAddr: 0x10006B5A0, symSize: 0x14 }
  - { offset: 0x468E3, size: 0x8, addend: 0x0, symName: __ZNSt3__122__make_exception_guardB8ne210108INS_29_AllocatorDestroyRangeReverseINS_9allocatorINS_5tupleIJNS_12basic_stringIcNS_11char_traitsIcEENS2_IcEEEES8_EEEEEPS9_EEEENS_28__exception_guard_exceptionsIT_EESE_, symObjAddr: 0x6A16C, symBinAddr: 0x10006B794, symSize: 0x204 }
  - { offset: 0x4691A, size: 0x8, addend: 0x0, symName: __ZNSt3__114__construct_atB8ne210108INS_5tupleIJNS_12basic_stringIcNS_11char_traitsIcEENS_9allocatorIcEEEES7_EEEJRKS8_EPS8_EEPT_SD_DpOT0_, symObjAddr: 0x6A8AC, symBinAddr: 0x10006BED4, symSize: 0x6C }
  - { offset: 0x4696D, size: 0x8, addend: 0x0, symName: __ZNSt3__112construct_atB8ne210108INS_5tupleIJNS_12basic_stringIcNS_11char_traitsIcEENS_9allocatorIcEEEES7_EEEJRKS8_EPS8_EEPT_SD_DpOT0_, symObjAddr: 0x6A920, symBinAddr: 0x10006BF48, symSize: 0xA0 }
  - { offset: 0x469C1, size: 0x8, addend: 0x0, symName: __ZNSt3__119__allocator_destroyB8ne210108INS_9allocatorINS_5tupleIJNS_12basic_stringIcNS_11char_traitsIcEENS1_IcEEEES7_EEEEENS_16reverse_iteratorIPS8_EESC_EEvRT_T0_T1_, symObjAddr: 0x6AE5C, symBinAddr: 0x10006C484, symSize: 0x244 }
  - { offset: 0x46A29, size: 0x8, addend: 0x0, symName: __ZNSt3__1neB8ne210108IPNS_5tupleIJNS_12basic_stringIcNS_11char_traitsIcEENS_9allocatorIcEEEES7_EEES9_EEbRKNS_16reverse_iteratorIT_EERKNSA_IT0_EEQrqXnecldtfp_4baseEcldtfp0_4baseERNS_14convertible_toIbEEE, symObjAddr: 0x6B114, symBinAddr: 0x10006C73C, symSize: 0x90 }
  - { offset: 0x46A76, size: 0x8, addend: 0x0, symName: __ZNSt3__112__destroy_atB8ne210108INS_5tupleIJNS_12basic_stringIcNS_11char_traitsIcEENS_9allocatorIcEEEES7_EEETnNS_9enable_ifIXntsr8is_arrayIT_EE5valueEiE4typeELi0EEEvPSA_, symObjAddr: 0x6B54C, symBinAddr: 0x10006CB74, symSize: 0x5C }
  - { offset: 0x46AF7, size: 0x8, addend: 0x0, symName: __ZNSt3__119__libcpp_deallocateB8ne210108INS_5tupleIJNS_12basic_stringIcNS_11char_traitsIcEENS_9allocatorIcEEEES7_EEEEEvPNS_15__type_identityIT_E4typeENS_15__element_countEm, symObjAddr: 0x6C71C, symBinAddr: 0x10006DD44, symSize: 0x78 }
  - { offset: 0x46B52, size: 0x8, addend: 0x0, symName: __ZNSt3__14endlB8ne210108IcNS_11char_traitsIcEEEERNS_13basic_ostreamIT_T0_EES7_, symObjAddr: 0x6E2D4, symBinAddr: 0x10006F8FC, symSize: 0x1A4 }
  - { offset: 0x46B92, size: 0x8, addend: 0x0, symName: __ZNSt3__1eqB8ne210108IPKNS_5tupleIJNS_12basic_stringIcNS_11char_traitsIcEENS_9allocatorIcEEEES7_EEEEEbRKNS_11__wrap_iterIT_EESF_, symObjAddr: 0x6E480, symBinAddr: 0x10006FAA8, symSize: 0x90 }
  - { offset: 0x46E80, size: 0x8, addend: 0x0, symName: __ZNSt3__119__libcpp_deallocateB8ne210108INS_20__shared_ptr_pointerIPN7testing8internal23ParamGeneratorInterfaceINS_5tupleIJNS_12basic_stringIcNS_11char_traitsIcEENS_9allocatorIcEEEESB_EEEEENS_10shared_ptrIKSD_E27__shared_ptr_default_deleteISG_SD_EENS9_ISD_EEEEEEvPNS_15__type_identityIT_E4typeENS_15__element_countEm, symObjAddr: 0x6FBB4, symBinAddr: 0x1000711DC, symSize: 0x74 }
  - { offset: 0x46EDB, size: 0x8, addend: 0x0, symName: __ZNSt3__13getB8ne210108ILm0EJPKcS2_EEERKNS_13tuple_elementIXT_ENS_5tupleIJDpT0_EEEE4typeERKS7_, symObjAddr: 0x70870, symBinAddr: 0x100071E98, symSize: 0xB8 }
  - { offset: 0x46F22, size: 0x8, addend: 0x0, symName: __ZNSt3__13getB8ne210108ILm1EJPKcS2_EEERKNS_13tuple_elementIXT_ENS_5tupleIJDpT0_EEEE4typeERKS7_, symObjAddr: 0x70A18, symBinAddr: 0x100072040, symSize: 0xC8 }
  - { offset: 0x46F69, size: 0x8, addend: 0x0, symName: __ZNSt3__130__uninitialized_allocator_copyB8ne210108INS_9allocatorINS_5tupleIJNS_12basic_stringIcNS_11char_traitsIcEENS1_IcEEEES7_EEEEEPKS8_SB_PS8_EET2_RT_T0_T1_SD_, symObjAddr: 0x719BC, symBinAddr: 0x100072FE4, symSize: 0x278 }
  - { offset: 0x4700F, size: 0x8, addend: 0x0, symName: __ZNSt3__114__unwrap_rangeB8ne210108IPKNS_5tupleIJNS_12basic_stringIcNS_11char_traitsIcEENS_9allocatorIcEEEES7_EEESA_EEDaT_T0_, symObjAddr: 0x71C3C, symBinAddr: 0x100073264, symSize: 0x3C }
  - { offset: 0x47091, size: 0x8, addend: 0x0, symName: __ZNSt3__113__unwrap_iterB8ne210108IPKNS_5tupleIJNS_12basic_stringIcNS_11char_traitsIcEENS_9allocatorIcEEEES7_EEENS_18__unwrap_iter_implISA_Lb1EEETnNS_9enable_ifIXsr21is_copy_constructibleIT_EE5valueEiE4typeELi0EEEDTclsrT0_8__unwrapclsr3stdE7declvalISE_EEEESE_, symObjAddr: 0x71ED0, symBinAddr: 0x1000734F8, symSize: 0x24 }
  - { offset: 0x4711E, size: 0x8, addend: 0x0, symName: __ZNSt3__110make_tupleB8ne210108IJN7testing8internal10ValueArrayIJNS_5tupleIJPKcS6_EEES7_S7_S7_EEEEEENS4_IJDpNS_18__unwrap_referenceIu7__decayIT_EE4typeEEEEDpOSA_, symObjAddr: 0x72258, symBinAddr: 0x100073880, symSize: 0x98 }
  - { offset: 0x4716D, size: 0x8, addend: 0x0, symName: __ZNSt3__112__to_addressB8ne210108INS_10shared_ptrIN7testing8internal26ParameterizedTestSuiteInfoIN12_GLOBAL__N_121CaesarDec_SplitSpacesEE8TestInfoEEEEEPT_SB_, symObjAddr: 0x737CC, symBinAddr: 0x100074DF4, symSize: 0x14 }
  - { offset: 0x471A3, size: 0x8, addend: 0x0, symName: __ZNSt3__131__annotate_contiguous_containerB8ne210108INS_9allocatorINS_10shared_ptrIN7testing8internal26ParameterizedTestSuiteInfoIN12_GLOBAL__N_121CaesarDec_SplitSpacesEE8TestInfoEEEEEEEvPKvSD_SD_SD_, symObjAddr: 0x7410C, symBinAddr: 0x100075734, symSize: 0x4C }
  - { offset: 0x471FE, size: 0x8, addend: 0x0, symName: __ZNSt3__114__construct_atB8ne210108INS_10shared_ptrIN7testing8internal26ParameterizedTestSuiteInfoIN12_GLOBAL__N_121CaesarDec_SplitSpacesEE8TestInfoEEEJPS8_EPS9_EEPT_SD_DpOT0_, symObjAddr: 0x74280, symBinAddr: 0x1000758A8, symSize: 0x6C }
  - { offset: 0x47251, size: 0x8, addend: 0x0, symName: __ZNSt3__112construct_atB8ne210108INS_10shared_ptrIN7testing8internal26ParameterizedTestSuiteInfoIN12_GLOBAL__N_121CaesarDec_SplitSpacesEE8TestInfoEEEJPS8_EPS9_EEPT_SD_DpOT0_, symObjAddr: 0x742F4, symBinAddr: 0x10007591C, symSize: 0xE4 }
  - { offset: 0x47553, size: 0x8, addend: 0x0, symName: __ZNSt3__119__libcpp_deallocateB8ne210108INS_20__shared_ptr_pointerIPN7testing8internal26ParameterizedTestSuiteInfoIN12_GLOBAL__N_121CaesarDec_SplitSpacesEE8TestInfoENS_10shared_ptrIS8_E27__shared_ptr_default_deleteIS8_S8_EENS_9allocatorIS8_EEEEEEvPNS_15__type_identityIT_E4typeENS_15__element_countEm, symObjAddr: 0x75A40, symBinAddr: 0x100077068, symSize: 0x74 }
  - { offset: 0x475AE, size: 0x8, addend: 0x0, symName: __ZNSt3__119__allocate_at_leastB8ne210108INS_9allocatorINS_10shared_ptrIN7testing8internal26ParameterizedTestSuiteInfoIN12_GLOBAL__N_121CaesarDec_SplitSpacesEE8TestInfoEEEEEEENS_19__allocation_resultINS_16allocator_traitsIT_E7pointerEEERSE_m, symObjAddr: 0x77664, symBinAddr: 0x100078C8C, symSize: 0x40 }
  - { offset: 0x475F1, size: 0x8, addend: 0x0, symName: __ZNSt3__117__libcpp_allocateB8ne210108INS_10shared_ptrIN7testing8internal26ParameterizedTestSuiteInfoIN12_GLOBAL__N_121CaesarDec_SplitSpacesEE8TestInfoEEEEEPT_NS_15__element_countEm, symObjAddr: 0x77760, symBinAddr: 0x100078D88, symSize: 0xB0 }
  - { offset: 0x47643, size: 0x8, addend: 0x0, symName: __ZNSt3__134__uninitialized_allocator_relocateB8ne210108INS_9allocatorINS_10shared_ptrIN7testing8internal26ParameterizedTestSuiteInfoIN12_GLOBAL__N_121CaesarDec_SplitSpacesEE8TestInfoEEEEEPSA_EEvRT_T0_SF_SF_, symObjAddr: 0x77A18, symBinAddr: 0x100079040, symSize: 0x8C }
  - { offset: 0x476AC, size: 0x8, addend: 0x0, symName: __ZNSt3__14swapB8ne210108IPNS_10shared_ptrIN7testing8internal26ParameterizedTestSuiteInfoIN12_GLOBAL__N_121CaesarDec_SplitSpacesEE8TestInfoEEEEENS_9enable_ifIXaasr21is_move_constructibleIT_EE5valuesr18is_move_assignableISC_EE5valueEvE4typeERSC_SF_, symObjAddr: 0x77AAC, symBinAddr: 0x1000790D4, symSize: 0x190 }
  - { offset: 0x476FE, size: 0x8, addend: 0x0, symName: __ZNSt3__112__destroy_atB8ne210108INS_10shared_ptrIN7testing8internal26ParameterizedTestSuiteInfoIN12_GLOBAL__N_121CaesarDec_SplitSpacesEE8TestInfoEEETnNS_9enable_ifIXntsr8is_arrayIT_EE5valueEiE4typeELi0EEEvPSB_, symObjAddr: 0x7844C, symBinAddr: 0x100079A74, symSize: 0x5C }
  - { offset: 0x47737, size: 0x8, addend: 0x0, symName: __ZNSt3__119__libcpp_deallocateB8ne210108INS_10shared_ptrIN7testing8internal26ParameterizedTestSuiteInfoIN12_GLOBAL__N_121CaesarDec_SplitSpacesEE8TestInfoEEEEEvPNS_15__type_identityIT_E4typeENS_15__element_countEm, symObjAddr: 0x78694, symBinAddr: 0x100079CBC, symSize: 0x74 }
  - { offset: 0x47792, size: 0x8, addend: 0x0, symName: __ZNSt3__130__uninitialized_allocator_copyB8ne210108INS_9allocatorINS_12basic_stringIcNS_11char_traitsIcEENS1_IcEEEEEEPS6_S8_S8_EET2_RT_T0_T1_S9_, symObjAddr: 0x79FA8, symBinAddr: 0x10007B5D0, symSize: 0x278 }
  - { offset: 0x47838, size: 0x8, addend: 0x0, symName: __ZNSt3__114__unwrap_rangeB8ne210108IPNS_12basic_stringIcNS_11char_traitsIcEENS_9allocatorIcEEEES7_EEDaT_T0_, symObjAddr: 0x7A228, symBinAddr: 0x10007B850, symSize: 0x3C }
  - { offset: 0x47884, size: 0x8, addend: 0x0, symName: __ZNSt3__135__uninitialized_allocator_copy_implB8ne210108INS_9allocatorINS_12basic_stringIcNS_11char_traitsIcEENS1_IcEEEEEEPS6_S8_S8_EET2_RT_T0_T1_S9_, symObjAddr: 0x7A26C, symBinAddr: 0x10007B894, symSize: 0x520 }
  - { offset: 0x47A31, size: 0x8, addend: 0x0, symName: __ZNSt3__114__construct_atB8ne210108INS_12basic_stringIcNS_11char_traitsIcEENS_9allocatorIcEEEEJRS6_EPS6_EEPT_SA_DpOT0_, symObjAddr: 0x7ACA8, symBinAddr: 0x10007C2D0, symSize: 0x6C }
  - { offset: 0x47A84, size: 0x8, addend: 0x0, symName: __ZNSt3__112construct_atB8ne210108INS_12basic_stringIcNS_11char_traitsIcEENS_9allocatorIcEEEEJRS6_EPS6_EEPT_SA_DpOT0_, symObjAddr: 0x7AD1C, symBinAddr: 0x10007C344, symSize: 0xA0 }
  - { offset: 0x47AD7, size: 0x8, addend: 0x0, symName: __ZNSt3__13getB8ne210108ILm0EJNS_12basic_stringIcNS_11char_traitsIcEENS_9allocatorIcEEEENS_6vectorIS6_NS4_IS6_EEEEEEERKNS_13tuple_elementIXT_ENS_5tupleIJDpT0_EEEE4typeERKSE_, symObjAddr: 0x7C738, symBinAddr: 0x10007DD60, symSize: 0xB8 }
  - { offset: 0x47B1F, size: 0x8, addend: 0x0, symName: __ZNSt3__13getB8ne210108ILm1EJNS_12basic_stringIcNS_11char_traitsIcEENS_9allocatorIcEEEENS_6vectorIS6_NS4_IS6_EEEEEEERKNS_13tuple_elementIXT_ENS_5tupleIJDpT0_EEEE4typeERKSE_, symObjAddr: 0x7C7F8, symBinAddr: 0x10007DE20, symSize: 0xC8 }
  - { offset: 0x47B67, size: 0x8, addend: 0x0, symName: __ZNSt3__18distanceB8ne210108INS_11__wrap_iterIPKNS_12basic_stringIcNS_11char_traitsIcEENS_9allocatorIcEEEEEEEENS_15iterator_traitsIT_E15difference_typeESC_SC_, symObjAddr: 0x7DEE0, symBinAddr: 0x10007F508, symSize: 0x5C }
  - { offset: 0x47BAA, size: 0x8, addend: 0x0, symName: __ZNSt3__110__distanceB8ne210108INS_11__wrap_iterIPKNS_12basic_stringIcNS_11char_traitsIcEENS_9allocatorIcEEEEEEEENS_15iterator_traitsIT_E15difference_typeESC_SC_NS_26random_access_iterator_tagE, symObjAddr: 0x7E2F8, symBinAddr: 0x10007F920, symSize: 0x1E0 }
  - { offset: 0x47C01, size: 0x8, addend: 0x0, symName: __ZNSt3__1miB8ne210108IPKNS_12basic_stringIcNS_11char_traitsIcEENS_9allocatorIcEEEES8_EEDTmicldtfp_4baseEcldtfp0_4baseEERKNS_11__wrap_iterIT_EERKNSA_IT0_EE, symObjAddr: 0x7E4E0, symBinAddr: 0x10007FB08, symSize: 0x94 }
  - { offset: 0x47C4D, size: 0x8, addend: 0x0, symName: __ZNSt3__130__uninitialized_allocator_copyB8ne210108INS_9allocatorINS_12basic_stringIcNS_11char_traitsIcEENS1_IcEEEEEENS_11__wrap_iterIPKS6_EESB_PS6_EET2_RT_T0_T1_SD_, symObjAddr: 0x7E984, symBinAddr: 0x10007FFAC, symSize: 0x2C4 }
  - { offset: 0x47CF3, size: 0x8, addend: 0x0, symName: __ZNSt3__114__unwrap_rangeB8ne210108INS_11__wrap_iterIPKNS_12basic_stringIcNS_11char_traitsIcEENS_9allocatorIcEEEEEESA_EEDaT_T0_, symObjAddr: 0x7EC50, symBinAddr: 0x100080278, symSize: 0x6C }
  - { offset: 0x47D75, size: 0x8, addend: 0x0, symName: __ZNSt3__113__unwrap_iterB8ne210108INS_11__wrap_iterIPKNS_12basic_stringIcNS_11char_traitsIcEENS_9allocatorIcEEEEEENS_18__unwrap_iter_implISA_Lb1EEETnNS_9enable_ifIXsr21is_copy_constructibleIT_EE5valueEiE4typeELi0EEEDTclsrT0_8__unwrapclsr3stdE7declvalISE_EEEESE_, symObjAddr: 0x7EF50, symBinAddr: 0x100080578, symSize: 0x34 }
  - { offset: 0x47E82, size: 0x8, addend: 0x0, symName: __ZNSt3__112__to_addressB8ne210108INS_11__wrap_iterIPKNS_12basic_stringIcNS_11char_traitsIcEENS_9allocatorIcEEEEEETnNS_9enable_ifIXsr4_AndINS_8is_classIT_EENS_15_IsFancyPointerISD_EEEE5valueEiE4typeELi0EEEu7__decayIDTclsr19__to_address_helperISD_EE6__callclsr3stdE7declvalIRKSD_EEEEESK_, symObjAddr: 0x7F134, symBinAddr: 0x10008075C, symSize: 0x5C }
  - { offset: 0x47EE8, size: 0x8, addend: 0x0, symName: __ZNSt3__110make_tupleB8ne210108IJRA1_KcNS_6vectorINS_12basic_stringIcNS_11char_traitsIcEENS_9allocatorIcEEEENS8_ISA_EEEEEEENS_5tupleIJDpNS_18__unwrap_referenceIu7__decayIT_EE4typeEEEEDpOSF_, symObjAddr: 0x806F8, symBinAddr: 0x100081D20, symSize: 0xC8 }
  - { offset: 0x47F35, size: 0x8, addend: 0x0, symName: __ZNSt3__110make_tupleB8ne210108IJRA3_KcNS_6vectorINS_12basic_stringIcNS_11char_traitsIcEENS_9allocatorIcEEEENS8_ISA_EEEEEEENS_5tupleIJDpNS_18__unwrap_referenceIu7__decayIT_EE4typeEEEEDpOSF_, symObjAddr: 0x807C8, symBinAddr: 0x100081DF0, symSize: 0xC8 }
  - { offset: 0x47F82, size: 0x8, addend: 0x0, symName: __ZNSt3__110make_tupleB8ne210108IJRA9_KcNS_6vectorINS_12basic_stringIcNS_11char_traitsIcEENS_9allocatorIcEEEENS8_ISA_EEEEEEENS_5tupleIJDpNS_18__unwrap_referenceIu7__decayIT_EE4typeEEEEDpOSF_, symObjAddr: 0x80898, symBinAddr: 0x100081EC0, symSize: 0xC8 }
  - { offset: 0x47FCF, size: 0x8, addend: 0x0, symName: __ZNSt3__110make_tupleB8ne210108IJRA10_KcNS_6vectorINS_12basic_stringIcNS_11char_traitsIcEENS_9allocatorIcEEEENS8_ISA_EEEEEEENS_5tupleIJDpNS_18__unwrap_referenceIu7__decayIT_EE4typeEEEEDpOSF_, symObjAddr: 0x80968, symBinAddr: 0x100081F90, symSize: 0xC8 }
  - { offset: 0x4801C, size: 0x8, addend: 0x0, symName: __ZNSt3__110make_tupleB8ne210108IJRA32_KcNS_6vectorINS_12basic_stringIcNS_11char_traitsIcEENS_9allocatorIcEEEENS8_ISA_EEEEEEENS_5tupleIJDpNS_18__unwrap_referenceIu7__decayIT_EE4typeEEEEDpOSF_, symObjAddr: 0x80A38, symBinAddr: 0x100082060, symSize: 0xC8 }
  - { offset: 0x48069, size: 0x8, addend: 0x0, symName: __ZNSt3__110make_tupleB8ne210108IJRA11_KcNS_6vectorINS_12basic_stringIcNS_11char_traitsIcEENS_9allocatorIcEEEENS8_ISA_EEEEEEENS_5tupleIJDpNS_18__unwrap_referenceIu7__decayIT_EE4typeEEEEDpOSF_, symObjAddr: 0x80B08, symBinAddr: 0x100082130, symSize: 0xC8 }
  - { offset: 0x480B6, size: 0x8, addend: 0x0, symName: __ZNSt3__110make_tupleB8ne210108IJRA31_KcNS_6vectorINS_12basic_stringIcNS_11char_traitsIcEENS_9allocatorIcEEEENS8_ISA_EEEEEEENS_5tupleIJDpNS_18__unwrap_referenceIu7__decayIT_EE4typeEEEEDpOSF_, symObjAddr: 0x80BD8, symBinAddr: 0x100082200, symSize: 0xC8 }
  - { offset: 0x48129, size: 0x8, addend: 0x0, symName: __ZNSt3__18distanceB8ne210108INS_11__wrap_iterIPKNS_5tupleIJNS_12basic_stringIcNS_11char_traitsIcEENS_9allocatorIcEEEENS_6vectorIS8_NS6_IS8_EEEEEEEEEEENS_15iterator_traitsIT_E15difference_typeESH_SH_, symObjAddr: 0x85F64, symBinAddr: 0x10008758C, symSize: 0x5C }
  - { offset: 0x4816C, size: 0x8, addend: 0x0, symName: __ZNSt3__110__distanceB8ne210108INS_11__wrap_iterIPKNS_5tupleIJNS_12basic_stringIcNS_11char_traitsIcEENS_9allocatorIcEEEENS_6vectorIS8_NS6_IS8_EEEEEEEEEEENS_15iterator_traitsIT_E15difference_typeESH_SH_NS_26random_access_iterator_tagE, symObjAddr: 0x86434, symBinAddr: 0x100087A5C, symSize: 0x1E0 }
  - { offset: 0x481C3, size: 0x8, addend: 0x0, symName: __ZNSt3__1miB8ne210108IPKNS_5tupleIJNS_12basic_stringIcNS_11char_traitsIcEENS_9allocatorIcEEEENS_6vectorIS7_NS5_IS7_EEEEEEESD_EEDTmicldtfp_4baseEcldtfp0_4baseEERKNS_11__wrap_iterIT_EERKNSF_IT0_EE, symObjAddr: 0x8661C, symBinAddr: 0x100087C44, symSize: 0x94 }
  - { offset: 0x4820F, size: 0x8, addend: 0x0, symName: __ZNSt3__122__make_exception_guardB8ne210108INS_6vectorINS_5tupleIJNS_12basic_stringIcNS_11char_traitsIcEENS_9allocatorIcEEEENS1_IS8_NS6_IS8_EEEEEEENS6_ISB_EEE16__destroy_vectorEEENS_28__exception_guard_exceptionsIT_EESG_, symObjAddr: 0x86754, symBinAddr: 0x100087D7C, symSize: 0x74 }
  - { offset: 0x48244, size: 0x8, addend: 0x0, symName: __ZNSt3__119__allocate_at_leastB8ne210108INS_9allocatorINS_5tupleIJNS_12basic_stringIcNS_11char_traitsIcEENS1_IcEEEENS_6vectorIS7_NS1_IS7_EEEEEEEEEEENS_19__allocation_resultINS_16allocator_traitsIT_E7pointerEEERSF_m, symObjAddr: 0x8775C, symBinAddr: 0x100088D84, symSize: 0x40 }
  - { offset: 0x48287, size: 0x8, addend: 0x0, symName: __ZNSt3__117__libcpp_allocateB8ne210108INS_5tupleIJNS_12basic_stringIcNS_11char_traitsIcEENS_9allocatorIcEEEENS_6vectorIS7_NS5_IS7_EEEEEEEEEPT_NS_15__element_countEm, symObjAddr: 0x87AB4, symBinAddr: 0x1000890DC, symSize: 0xB4 }
  - { offset: 0x482D9, size: 0x8, addend: 0x0, symName: __ZNSt3__131__annotate_contiguous_containerB8ne210108INS_9allocatorINS_5tupleIJNS_12basic_stringIcNS_11char_traitsIcEENS1_IcEEEENS_6vectorIS7_NS1_IS7_EEEEEEEEEEEvPKvSE_SE_SE_, symObjAddr: 0x87E7C, symBinAddr: 0x1000894A4, symSize: 0x4C }
  - { offset: 0x48335, size: 0x8, addend: 0x0, symName: __ZNSt3__112__to_addressB8ne210108INS_5tupleIJNS_12basic_stringIcNS_11char_traitsIcEENS_9allocatorIcEEEENS_6vectorIS7_NS5_IS7_EEEEEEEEEPT_SD_, symObjAddr: 0x87ED0, symBinAddr: 0x1000894F8, symSize: 0x14 }
  - { offset: 0x4836A, size: 0x8, addend: 0x0, symName: __ZNSt3__130__uninitialized_allocator_copyB8ne210108INS_9allocatorINS_5tupleIJNS_12basic_stringIcNS_11char_traitsIcEENS1_IcEEEENS_6vectorIS7_NS1_IS7_EEEEEEEEENS_11__wrap_iterIPKSB_EESG_PSB_EET2_RT_T0_T1_SI_, symObjAddr: 0x87F60, symBinAddr: 0x100089588, symSize: 0x2C4 }
  - { offset: 0x48410, size: 0x8, addend: 0x0, symName: __ZNSt3__114__unwrap_rangeB8ne210108INS_11__wrap_iterIPKNS_5tupleIJNS_12basic_stringIcNS_11char_traitsIcEENS_9allocatorIcEEEENS_6vectorIS8_NS6_IS8_EEEEEEEEESF_EEDaT_T0_, symObjAddr: 0x8898C, symBinAddr: 0x100089FB4, symSize: 0x6C }
  - { offset: 0x4845C, size: 0x8, addend: 0x0, symName: __ZNSt3__135__uninitialized_allocator_copy_implB8ne210108INS_9allocatorINS_5tupleIJNS_12basic_stringIcNS_11char_traitsIcEENS1_IcEEEENS_6vectorIS7_NS1_IS7_EEEEEEEEEPKSB_SE_PSB_EET2_RT_T0_T1_SG_, symObjAddr: 0x88A00, symBinAddr: 0x10008A028, symSize: 0x520 }
  - { offset: 0x48508, size: 0x8, addend: 0x0, symName: __ZNSt3__113__unwrap_iterB8ne210108IPNS_5tupleIJNS_12basic_stringIcNS_11char_traitsIcEENS_9allocatorIcEEEENS_6vectorIS7_NS5_IS7_EEEEEEENS_18__unwrap_iter_implISC_Lb1EEETnNS_9enable_ifIXsr21is_copy_constructibleIT_EE5valueEiE4typeELi0EEEDTclsrT0_8__unwrapclsr3stdE7declvalISG_EEEESG_, symObjAddr: 0x88F28, symBinAddr: 0x10008A550, symSize: 0x24 }
  - { offset: 0x4854D, size: 0x8, addend: 0x0, symName: __ZNSt3__113__rewrap_iterB8ne210108IPNS_5tupleIJNS_12basic_stringIcNS_11char_traitsIcEENS_9allocatorIcEEEENS_6vectorIS7_NS5_IS7_EEEEEEESC_NS_18__unwrap_iter_implISC_Lb1EEEEET_SF_T0_, symObjAddr: 0x88F54, symBinAddr: 0x10008A57C, symSize: 0x48 }
  - { offset: 0x486A3, size: 0x8, addend: 0x0, symName: __ZNSt3__113__unwrap_iterB8ne210108INS_11__wrap_iterIPKNS_5tupleIJNS_12basic_stringIcNS_11char_traitsIcEENS_9allocatorIcEEEENS_6vectorIS8_NS6_IS8_EEEEEEEEENS_18__unwrap_iter_implISF_Lb1EEETnNS_9enable_ifIXsr21is_copy_constructibleIT_EE5valueEiE4typeELi0EEEDTclsrT0_8__unwrapclsr3stdE7declvalISJ_EEEESJ_, symObjAddr: 0x89230, symBinAddr: 0x10008A858, symSize: 0x34 }
  - { offset: 0x487B0, size: 0x8, addend: 0x0, symName: __ZNSt3__112__to_addressB8ne210108INS_11__wrap_iterIPKNS_5tupleIJNS_12basic_stringIcNS_11char_traitsIcEENS_9allocatorIcEEEENS_6vectorIS8_NS6_IS8_EEEEEEEEETnNS_9enable_ifIXsr4_AndINS_8is_classIT_EENS_15_IsFancyPointerISI_EEEE5valueEiE4typeELi0EEEu7__decayIDTclsr19__to_address_helperISI_EE6__callclsr3stdE7declvalIRKSI_EEEEESP_, symObjAddr: 0x89488, symBinAddr: 0x10008AAB0, symSize: 0x5C }
  - { offset: 0x48817, size: 0x8, addend: 0x0, symName: __ZNSt3__112__to_addressB8ne210108IKNS_5tupleIJNS_12basic_stringIcNS_11char_traitsIcEENS_9allocatorIcEEEENS_6vectorIS7_NS5_IS7_EEEEEEEEEPT_SE_, symObjAddr: 0x896D4, symBinAddr: 0x10008ACFC, symSize: 0x14 }
  - { offset: 0x4884C, size: 0x8, addend: 0x0, symName: __ZNSt3__122__make_exception_guardB8ne210108INS_29_AllocatorDestroyRangeReverseINS_9allocatorINS_5tupleIJNS_12basic_stringIcNS_11char_traitsIcEENS2_IcEEEENS_6vectorIS8_NS2_IS8_EEEEEEEEEPSC_EEEENS_28__exception_guard_exceptionsIT_EESH_, symObjAddr: 0x898C8, symBinAddr: 0x10008AEF0, symSize: 0x204 }
  - { offset: 0x48883, size: 0x8, addend: 0x0, symName: __ZNSt3__114__construct_atB8ne210108INS_5tupleIJNS_12basic_stringIcNS_11char_traitsIcEENS_9allocatorIcEEEENS_6vectorIS7_NS5_IS7_EEEEEEEJRKSB_EPSB_EEPT_SG_DpOT0_, symObjAddr: 0x8A008, symBinAddr: 0x10008B630, symSize: 0x6C }
  - { offset: 0x488D6, size: 0x8, addend: 0x0, symName: __ZNSt3__112construct_atB8ne210108INS_5tupleIJNS_12basic_stringIcNS_11char_traitsIcEENS_9allocatorIcEEEENS_6vectorIS7_NS5_IS7_EEEEEEEJRKSB_EPSB_EEPT_SG_DpOT0_, symObjAddr: 0x8A07C, symBinAddr: 0x10008B6A4, symSize: 0xA0 }
  - { offset: 0x4892A, size: 0x8, addend: 0x0, symName: __ZNSt3__119__allocator_destroyB8ne210108INS_9allocatorINS_5tupleIJNS_12basic_stringIcNS_11char_traitsIcEENS1_IcEEEENS_6vectorIS7_NS1_IS7_EEEEEEEEENS_16reverse_iteratorIPSB_EESF_EEvRT_T0_T1_, symObjAddr: 0x8A5B8, symBinAddr: 0x10008BBE0, symSize: 0x244 }
  - { offset: 0x48992, size: 0x8, addend: 0x0, symName: __ZNSt3__1neB8ne210108IPNS_5tupleIJNS_12basic_stringIcNS_11char_traitsIcEENS_9allocatorIcEEEENS_6vectorIS7_NS5_IS7_EEEEEEESC_EEbRKNS_16reverse_iteratorIT_EERKNSD_IT0_EEQrqXnecldtfp_4baseEcldtfp0_4baseERNS_14convertible_toIbEEE, symObjAddr: 0x8A870, symBinAddr: 0x10008BE98, symSize: 0x90 }
  - { offset: 0x489DF, size: 0x8, addend: 0x0, symName: __ZNSt3__112__destroy_atB8ne210108INS_5tupleIJNS_12basic_stringIcNS_11char_traitsIcEENS_9allocatorIcEEEENS_6vectorIS7_NS5_IS7_EEEEEEETnNS_9enable_ifIXntsr8is_arrayIT_EE5valueEiE4typeELi0EEEvPSD_, symObjAddr: 0x8ACA8, symBinAddr: 0x10008C2D0, symSize: 0x5C }
  - { offset: 0x48A60, size: 0x8, addend: 0x0, symName: __ZNSt3__119__libcpp_deallocateB8ne210108INS_5tupleIJNS_12basic_stringIcNS_11char_traitsIcEENS_9allocatorIcEEEENS_6vectorIS7_NS5_IS7_EEEEEEEEEvPNS_15__type_identityIT_E4typeENS_15__element_countEm, symObjAddr: 0x8BE78, symBinAddr: 0x10008D4A0, symSize: 0x78 }
  - { offset: 0x48ABB, size: 0x8, addend: 0x0, symName: __ZNSt3__1eqB8ne210108IPKNS_5tupleIJNS_12basic_stringIcNS_11char_traitsIcEENS_9allocatorIcEEEENS_6vectorIS7_NS5_IS7_EEEEEEEEEbRKNS_11__wrap_iterIT_EESI_, symObjAddr: 0x8D90C, symBinAddr: 0x10008EF34, symSize: 0x90 }
  - { offset: 0x48DA9, size: 0x8, addend: 0x0, symName: __ZNSt3__119__libcpp_deallocateB8ne210108INS_20__shared_ptr_pointerIPN7testing8internal23ParamGeneratorInterfaceINS_5tupleIJNS_12basic_stringIcNS_11char_traitsIcEENS_9allocatorIcEEEENS_6vectorISB_NS9_ISB_EEEEEEEEENS_10shared_ptrIKSG_E27__shared_ptr_default_deleteISJ_SG_EENS9_ISG_EEEEEEvPNS_15__type_identityIT_E4typeENS_15__element_countEm, symObjAddr: 0x8F040, symBinAddr: 0x100090668, symSize: 0x74 }
  - { offset: 0x48E04, size: 0x8, addend: 0x0, symName: __ZNSt3__13getB8ne210108ILm0EJPKcNS_6vectorINS_12basic_stringIcNS_11char_traitsIcEENS_9allocatorIcEEEENS7_IS9_EEEEEEERKNS_13tuple_elementIXT_ENS_5tupleIJDpT0_EEEE4typeERKSG_, symObjAddr: 0x8FF3C, symBinAddr: 0x100091564, symSize: 0xB8 }
  - { offset: 0x48E4B, size: 0x8, addend: 0x0, symName: __ZNSt3__13getB8ne210108ILm1EJPKcNS_6vectorINS_12basic_stringIcNS_11char_traitsIcEENS_9allocatorIcEEEENS7_IS9_EEEEEEERKNS_13tuple_elementIXT_ENS_5tupleIJDpT0_EEEE4typeERKSG_, symObjAddr: 0x8FFFC, symBinAddr: 0x100091624, symSize: 0xC8 }
  - { offset: 0x48E92, size: 0x8, addend: 0x0, symName: __ZNSt3__130__uninitialized_allocator_copyB8ne210108INS_9allocatorINS_5tupleIJNS_12basic_stringIcNS_11char_traitsIcEENS1_IcEEEENS_6vectorIS7_NS1_IS7_EEEEEEEEEPKSB_SE_PSB_EET2_RT_T0_T1_SG_, symObjAddr: 0x90E44, symBinAddr: 0x10009246C, symSize: 0x278 }
  - { offset: 0x48F38, size: 0x8, addend: 0x0, symName: __ZNSt3__114__unwrap_rangeB8ne210108IPKNS_5tupleIJNS_12basic_stringIcNS_11char_traitsIcEENS_9allocatorIcEEEENS_6vectorIS7_NS5_IS7_EEEEEEESD_EEDaT_T0_, symObjAddr: 0x910C4, symBinAddr: 0x1000926EC, symSize: 0x3C }
  - { offset: 0x48FBA, size: 0x8, addend: 0x0, symName: __ZNSt3__113__unwrap_iterB8ne210108IPKNS_5tupleIJNS_12basic_stringIcNS_11char_traitsIcEENS_9allocatorIcEEEENS_6vectorIS7_NS5_IS7_EEEEEEENS_18__unwrap_iter_implISD_Lb1EEETnNS_9enable_ifIXsr21is_copy_constructibleIT_EE5valueEiE4typeELi0EEEDTclsrT0_8__unwrapclsr3stdE7declvalISH_EEEESH_, symObjAddr: 0x91358, symBinAddr: 0x100092980, symSize: 0x24 }
  - { offset: 0x49047, size: 0x8, addend: 0x0, symName: __ZNSt3__110make_tupleB8ne210108IJN7testing8internal10ValueArrayIJNS_5tupleIJPKcNS_6vectorINS_12basic_stringIcNS_11char_traitsIcEENS_9allocatorIcEEEENSB_ISD_EEEEEEESG_SG_SG_SG_SG_SG_EEEEEENS4_IJDpNS_18__unwrap_referenceIu7__decayIT_EE4typeEEEEDpOSJ_, symObjAddr: 0x91A2C, symBinAddr: 0x100093054, symSize: 0x9C }
  - { offset: 0x49096, size: 0x8, addend: 0x0, symName: __ZNSt3__112__to_addressB8ne210108INS_10shared_ptrIN7testing8internal26ParameterizedTestSuiteInfoIN12_GLOBAL__N_124CaesarDec_JoinWithSpacesEE8TestInfoEEEEEPT_SB_, symObjAddr: 0x93FE4, symBinAddr: 0x10009560C, symSize: 0x14 }
  - { offset: 0x490CC, size: 0x8, addend: 0x0, symName: __ZNSt3__131__annotate_contiguous_containerB8ne210108INS_9allocatorINS_10shared_ptrIN7testing8internal26ParameterizedTestSuiteInfoIN12_GLOBAL__N_124CaesarDec_JoinWithSpacesEE8TestInfoEEEEEEEvPKvSD_SD_SD_, symObjAddr: 0x94924, symBinAddr: 0x100095F4C, symSize: 0x4C }
  - { offset: 0x49127, size: 0x8, addend: 0x0, symName: __ZNSt3__114__construct_atB8ne210108INS_10shared_ptrIN7testing8internal26ParameterizedTestSuiteInfoIN12_GLOBAL__N_124CaesarDec_JoinWithSpacesEE8TestInfoEEEJPS8_EPS9_EEPT_SD_DpOT0_, symObjAddr: 0x94A98, symBinAddr: 0x1000960C0, symSize: 0x6C }
  - { offset: 0x4917A, size: 0x8, addend: 0x0, symName: __ZNSt3__112construct_atB8ne210108INS_10shared_ptrIN7testing8internal26ParameterizedTestSuiteInfoIN12_GLOBAL__N_124CaesarDec_JoinWithSpacesEE8TestInfoEEEJPS8_EPS9_EEPT_SD_DpOT0_, symObjAddr: 0x94B0C, symBinAddr: 0x100096134, symSize: 0xE4 }
  - { offset: 0x4947C, size: 0x8, addend: 0x0, symName: __ZNSt3__119__libcpp_deallocateB8ne210108INS_20__shared_ptr_pointerIPN7testing8internal26ParameterizedTestSuiteInfoIN12_GLOBAL__N_124CaesarDec_JoinWithSpacesEE8TestInfoENS_10shared_ptrIS8_E27__shared_ptr_default_deleteIS8_S8_EENS_9allocatorIS8_EEEEEEvPNS_15__type_identityIT_E4typeENS_15__element_countEm, symObjAddr: 0x96258, symBinAddr: 0x100097880, symSize: 0x74 }
  - { offset: 0x494D7, size: 0x8, addend: 0x0, symName: __ZNSt3__119__allocate_at_leastB8ne210108INS_9allocatorINS_10shared_ptrIN7testing8internal26ParameterizedTestSuiteInfoIN12_GLOBAL__N_124CaesarDec_JoinWithSpacesEE8TestInfoEEEEEEENS_19__allocation_resultINS_16allocator_traitsIT_E7pointerEEERSE_m, symObjAddr: 0x97E7C, symBinAddr: 0x1000994A4, symSize: 0x40 }
  - { offset: 0x4951A, size: 0x8, addend: 0x0, symName: __ZNSt3__117__libcpp_allocateB8ne210108INS_10shared_ptrIN7testing8internal26ParameterizedTestSuiteInfoIN12_GLOBAL__N_124CaesarDec_JoinWithSpacesEE8TestInfoEEEEEPT_NS_15__element_countEm, symObjAddr: 0x97F78, symBinAddr: 0x1000995A0, symSize: 0xB0 }
  - { offset: 0x4956C, size: 0x8, addend: 0x0, symName: __ZNSt3__134__uninitialized_allocator_relocateB8ne210108INS_9allocatorINS_10shared_ptrIN7testing8internal26ParameterizedTestSuiteInfoIN12_GLOBAL__N_124CaesarDec_JoinWithSpacesEE8TestInfoEEEEEPSA_EEvRT_T0_SF_SF_, symObjAddr: 0x98230, symBinAddr: 0x100099858, symSize: 0x8C }
  - { offset: 0x495D5, size: 0x8, addend: 0x0, symName: __ZNSt3__14swapB8ne210108IPNS_10shared_ptrIN7testing8internal26ParameterizedTestSuiteInfoIN12_GLOBAL__N_124CaesarDec_JoinWithSpacesEE8TestInfoEEEEENS_9enable_ifIXaasr21is_move_constructibleIT_EE5valuesr18is_move_assignableISC_EE5valueEvE4typeERSC_SF_, symObjAddr: 0x982C4, symBinAddr: 0x1000998EC, symSize: 0x190 }
  - { offset: 0x49627, size: 0x8, addend: 0x0, symName: __ZNSt3__112__destroy_atB8ne210108INS_10shared_ptrIN7testing8internal26ParameterizedTestSuiteInfoIN12_GLOBAL__N_124CaesarDec_JoinWithSpacesEE8TestInfoEEETnNS_9enable_ifIXntsr8is_arrayIT_EE5valueEiE4typeELi0EEEvPSB_, symObjAddr: 0x98C64, symBinAddr: 0x10009A28C, symSize: 0x5C }
  - { offset: 0x49660, size: 0x8, addend: 0x0, symName: __ZNSt3__119__libcpp_deallocateB8ne210108INS_10shared_ptrIN7testing8internal26ParameterizedTestSuiteInfoIN12_GLOBAL__N_124CaesarDec_JoinWithSpacesEE8TestInfoEEEEEvPNS_15__type_identityIT_E4typeENS_15__element_countEm, symObjAddr: 0x98EAC, symBinAddr: 0x10009A4D4, symSize: 0x74 }
  - { offset: 0x496BB, size: 0x8, addend: 0x0, symName: __ZNSt3__13getB8ne210108ILm0EJNS_6vectorINS_12basic_stringIcNS_11char_traitsIcEENS_9allocatorIcEEEENS5_IS7_EEEES7_EEERKNS_13tuple_elementIXT_ENS_5tupleIJDpT0_EEEE4typeERKSE_, symObjAddr: 0x9B718, symBinAddr: 0x10009CD40, symSize: 0xB8 }
  - { offset: 0x49703, size: 0x8, addend: 0x0, symName: __ZNSt3__13getB8ne210108ILm1EJNS_6vectorINS_12basic_stringIcNS_11char_traitsIcEENS_9allocatorIcEEEENS5_IS7_EEEES7_EEERKNS_13tuple_elementIXT_ENS_5tupleIJDpT0_EEEE4typeERKSE_, symObjAddr: 0x9B7D8, symBinAddr: 0x10009CE00, symSize: 0xC8 }
  - { offset: 0x4974B, size: 0x8, addend: 0x0, symName: __ZNSt3__110make_tupleB8ne210108IJNS_6vectorINS_12basic_stringIcNS_11char_traitsIcEENS_9allocatorIcEEEENS5_IS7_EEEERA1_KcEEENS_5tupleIJDpNS_18__unwrap_referenceIu7__decayIT_EE4typeEEEEDpOSF_, symObjAddr: 0x9BEB0, symBinAddr: 0x10009D4D8, symSize: 0xC8 }
  - { offset: 0x49798, size: 0x8, addend: 0x0, symName: __ZNSt3__110make_tupleB8ne210108IJNS_6vectorINS_12basic_stringIcNS_11char_traitsIcEENS_9allocatorIcEEEENS5_IS7_EEEERA5_KcEEENS_5tupleIJDpNS_18__unwrap_referenceIu7__decayIT_EE4typeEEEEDpOSF_, symObjAddr: 0x9BF80, symBinAddr: 0x10009D5A8, symSize: 0xC8 }
  - { offset: 0x497E5, size: 0x8, addend: 0x0, symName: __ZNSt3__110make_tupleB8ne210108IJNS_6vectorINS_12basic_stringIcNS_11char_traitsIcEENS_9allocatorIcEEEENS5_IS7_EEEERA11_KcEEENS_5tupleIJDpNS_18__unwrap_referenceIu7__decayIT_EE4typeEEEEDpOSF_, symObjAddr: 0x9C050, symBinAddr: 0x10009D678, symSize: 0xC8 }
  - { offset: 0x49832, size: 0x8, addend: 0x0, symName: __ZNSt3__110make_tupleB8ne210108IJNS_6vectorINS_12basic_stringIcNS_11char_traitsIcEENS_9allocatorIcEEEENS5_IS7_EEEERA24_KcEEENS_5tupleIJDpNS_18__unwrap_referenceIu7__decayIT_EE4typeEEEEDpOSF_, symObjAddr: 0x9C120, symBinAddr: 0x10009D748, symSize: 0xC8 }
  - { offset: 0x49899, size: 0x8, addend: 0x0, symName: __ZNSt3__18distanceB8ne210108INS_11__wrap_iterIPKNS_5tupleIJNS_6vectorINS_12basic_stringIcNS_11char_traitsIcEENS_9allocatorIcEEEENS7_IS9_EEEES9_EEEEEEENS_15iterator_traitsIT_E15difference_typeESH_SH_, symObjAddr: 0x9F99C, symBinAddr: 0x1000A0FC4, symSize: 0x5C }
  - { offset: 0x498DC, size: 0x8, addend: 0x0, symName: __ZNSt3__110__distanceB8ne210108INS_11__wrap_iterIPKNS_5tupleIJNS_6vectorINS_12basic_stringIcNS_11char_traitsIcEENS_9allocatorIcEEEENS7_IS9_EEEES9_EEEEEEENS_15iterator_traitsIT_E15difference_typeESH_SH_NS_26random_access_iterator_tagE, symObjAddr: 0x9FE6C, symBinAddr: 0x1000A1494, symSize: 0x1E0 }
  - { offset: 0x49933, size: 0x8, addend: 0x0, symName: __ZNSt3__1miB8ne210108IPKNS_5tupleIJNS_6vectorINS_12basic_stringIcNS_11char_traitsIcEENS_9allocatorIcEEEENS6_IS8_EEEES8_EEESD_EEDTmicldtfp_4baseEcldtfp0_4baseEERKNS_11__wrap_iterIT_EERKNSF_IT0_EE, symObjAddr: 0xA0054, symBinAddr: 0x1000A167C, symSize: 0x94 }
  - { offset: 0x4997F, size: 0x8, addend: 0x0, symName: __ZNSt3__122__make_exception_guardB8ne210108INS_6vectorINS_5tupleIJNS1_INS_12basic_stringIcNS_11char_traitsIcEENS_9allocatorIcEEEENS6_IS8_EEEES8_EEENS6_ISB_EEE16__destroy_vectorEEENS_28__exception_guard_exceptionsIT_EESG_, symObjAddr: 0xA018C, symBinAddr: 0x1000A17B4, symSize: 0x74 }
  - { offset: 0x499B4, size: 0x8, addend: 0x0, symName: __ZNSt3__119__allocate_at_leastB8ne210108INS_9allocatorINS_5tupleIJNS_6vectorINS_12basic_stringIcNS_11char_traitsIcEENS1_IcEEEENS1_IS8_EEEES8_EEEEEEENS_19__allocation_resultINS_16allocator_traitsIT_E7pointerEEERSF_m, symObjAddr: 0xA1194, symBinAddr: 0x1000A27BC, symSize: 0x40 }
  - { offset: 0x499F7, size: 0x8, addend: 0x0, symName: __ZNSt3__117__libcpp_allocateB8ne210108INS_5tupleIJNS_6vectorINS_12basic_stringIcNS_11char_traitsIcEENS_9allocatorIcEEEENS6_IS8_EEEES8_EEEEEPT_NS_15__element_countEm, symObjAddr: 0xA14EC, symBinAddr: 0x1000A2B14, symSize: 0xB4 }
  - { offset: 0x49A49, size: 0x8, addend: 0x0, symName: __ZNSt3__131__annotate_contiguous_containerB8ne210108INS_9allocatorINS_5tupleIJNS_6vectorINS_12basic_stringIcNS_11char_traitsIcEENS1_IcEEEENS1_IS8_EEEES8_EEEEEEEvPKvSE_SE_SE_, symObjAddr: 0xA18B4, symBinAddr: 0x1000A2EDC, symSize: 0x4C }
  - { offset: 0x49AA5, size: 0x8, addend: 0x0, symName: __ZNSt3__112__to_addressB8ne210108INS_5tupleIJNS_6vectorINS_12basic_stringIcNS_11char_traitsIcEENS_9allocatorIcEEEENS6_IS8_EEEES8_EEEEEPT_SD_, symObjAddr: 0xA1908, symBinAddr: 0x1000A2F30, symSize: 0x14 }
  - { offset: 0x49ADA, size: 0x8, addend: 0x0, symName: __ZNSt3__130__uninitialized_allocator_copyB8ne210108INS_9allocatorINS_5tupleIJNS_6vectorINS_12basic_stringIcNS_11char_traitsIcEENS1_IcEEEENS1_IS8_EEEES8_EEEEENS_11__wrap_iterIPKSB_EESG_PSB_EET2_RT_T0_T1_SI_, symObjAddr: 0xA1998, symBinAddr: 0x1000A2FC0, symSize: 0x2C4 }
  - { offset: 0x49B80, size: 0x8, addend: 0x0, symName: __ZNSt3__114__unwrap_rangeB8ne210108INS_11__wrap_iterIPKNS_5tupleIJNS_6vectorINS_12basic_stringIcNS_11char_traitsIcEENS_9allocatorIcEEEENS7_IS9_EEEES9_EEEEESF_EEDaT_T0_, symObjAddr: 0xA23C4, symBinAddr: 0x1000A39EC, symSize: 0x6C }
  - { offset: 0x49BCC, size: 0x8, addend: 0x0, symName: __ZNSt3__135__uninitialized_allocator_copy_implB8ne210108INS_9allocatorINS_5tupleIJNS_6vectorINS_12basic_stringIcNS_11char_traitsIcEENS1_IcEEEENS1_IS8_EEEES8_EEEEEPKSB_SE_PSB_EET2_RT_T0_T1_SG_, symObjAddr: 0xA2438, symBinAddr: 0x1000A3A60, symSize: 0x520 }
  - { offset: 0x49C78, size: 0x8, addend: 0x0, symName: __ZNSt3__113__unwrap_iterB8ne210108IPNS_5tupleIJNS_6vectorINS_12basic_stringIcNS_11char_traitsIcEENS_9allocatorIcEEEENS6_IS8_EEEES8_EEENS_18__unwrap_iter_implISC_Lb1EEETnNS_9enable_ifIXsr21is_copy_constructibleIT_EE5valueEiE4typeELi0EEEDTclsrT0_8__unwrapclsr3stdE7declvalISG_EEEESG_, symObjAddr: 0xA2960, symBinAddr: 0x1000A3F88, symSize: 0x24 }
  - { offset: 0x49CBD, size: 0x8, addend: 0x0, symName: __ZNSt3__113__rewrap_iterB8ne210108IPNS_5tupleIJNS_6vectorINS_12basic_stringIcNS_11char_traitsIcEENS_9allocatorIcEEEENS6_IS8_EEEES8_EEESC_NS_18__unwrap_iter_implISC_Lb1EEEEET_SF_T0_, symObjAddr: 0xA298C, symBinAddr: 0x1000A3FB4, symSize: 0x48 }
  - { offset: 0x49E13, size: 0x8, addend: 0x0, symName: __ZNSt3__113__unwrap_iterB8ne210108INS_11__wrap_iterIPKNS_5tupleIJNS_6vectorINS_12basic_stringIcNS_11char_traitsIcEENS_9allocatorIcEEEENS7_IS9_EEEES9_EEEEENS_18__unwrap_iter_implISF_Lb1EEETnNS_9enable_ifIXsr21is_copy_constructibleIT_EE5valueEiE4typeELi0EEEDTclsrT0_8__unwrapclsr3stdE7declvalISJ_EEEESJ_, symObjAddr: 0xA2C68, symBinAddr: 0x1000A4290, symSize: 0x34 }
  - { offset: 0x49F20, size: 0x8, addend: 0x0, symName: __ZNSt3__112__to_addressB8ne210108INS_11__wrap_iterIPKNS_5tupleIJNS_6vectorINS_12basic_stringIcNS_11char_traitsIcEENS_9allocatorIcEEEENS7_IS9_EEEES9_EEEEETnNS_9enable_ifIXsr4_AndINS_8is_classIT_EENS_15_IsFancyPointerISI_EEEE5valueEiE4typeELi0EEEu7__decayIDTclsr19__to_address_helperISI_EE6__callclsr3stdE7declvalIRKSI_EEEEESP_, symObjAddr: 0xA2EC0, symBinAddr: 0x1000A44E8, symSize: 0x5C }
  - { offset: 0x49F87, size: 0x8, addend: 0x0, symName: __ZNSt3__112__to_addressB8ne210108IKNS_5tupleIJNS_6vectorINS_12basic_stringIcNS_11char_traitsIcEENS_9allocatorIcEEEENS6_IS8_EEEES8_EEEEEPT_SE_, symObjAddr: 0xA310C, symBinAddr: 0x1000A4734, symSize: 0x14 }
  - { offset: 0x49FBC, size: 0x8, addend: 0x0, symName: __ZNSt3__122__make_exception_guardB8ne210108INS_29_AllocatorDestroyRangeReverseINS_9allocatorINS_5tupleIJNS_6vectorINS_12basic_stringIcNS_11char_traitsIcEENS2_IcEEEENS2_IS9_EEEES9_EEEEEPSC_EEEENS_28__exception_guard_exceptionsIT_EESH_, symObjAddr: 0xA3300, symBinAddr: 0x1000A4928, symSize: 0x204 }
  - { offset: 0x49FF3, size: 0x8, addend: 0x0, symName: __ZNSt3__114__construct_atB8ne210108INS_5tupleIJNS_6vectorINS_12basic_stringIcNS_11char_traitsIcEENS_9allocatorIcEEEENS6_IS8_EEEES8_EEEJRKSB_EPSB_EEPT_SG_DpOT0_, symObjAddr: 0xA3A40, symBinAddr: 0x1000A5068, symSize: 0x6C }
  - { offset: 0x4A046, size: 0x8, addend: 0x0, symName: __ZNSt3__112construct_atB8ne210108INS_5tupleIJNS_6vectorINS_12basic_stringIcNS_11char_traitsIcEENS_9allocatorIcEEEENS6_IS8_EEEES8_EEEJRKSB_EPSB_EEPT_SG_DpOT0_, symObjAddr: 0xA3AB4, symBinAddr: 0x1000A50DC, symSize: 0xA0 }
  - { offset: 0x4A09A, size: 0x8, addend: 0x0, symName: __ZNSt3__119__allocator_destroyB8ne210108INS_9allocatorINS_5tupleIJNS_6vectorINS_12basic_stringIcNS_11char_traitsIcEENS1_IcEEEENS1_IS8_EEEES8_EEEEENS_16reverse_iteratorIPSB_EESF_EEvRT_T0_T1_, symObjAddr: 0xA3FF0, symBinAddr: 0x1000A5618, symSize: 0x244 }
  - { offset: 0x4A102, size: 0x8, addend: 0x0, symName: __ZNSt3__1neB8ne210108IPNS_5tupleIJNS_6vectorINS_12basic_stringIcNS_11char_traitsIcEENS_9allocatorIcEEEENS6_IS8_EEEES8_EEESC_EEbRKNS_16reverse_iteratorIT_EERKNSD_IT0_EEQrqXnecldtfp_4baseEcldtfp0_4baseERNS_14convertible_toIbEEE, symObjAddr: 0xA42A8, symBinAddr: 0x1000A58D0, symSize: 0x90 }
  - { offset: 0x4A14F, size: 0x8, addend: 0x0, symName: __ZNSt3__112__destroy_atB8ne210108INS_5tupleIJNS_6vectorINS_12basic_stringIcNS_11char_traitsIcEENS_9allocatorIcEEEENS6_IS8_EEEES8_EEETnNS_9enable_ifIXntsr8is_arrayIT_EE5valueEiE4typeELi0EEEvPSD_, symObjAddr: 0xA46E0, symBinAddr: 0x1000A5D08, symSize: 0x5C }
  - { offset: 0x4A1D0, size: 0x8, addend: 0x0, symName: __ZNSt3__119__libcpp_deallocateB8ne210108INS_5tupleIJNS_6vectorINS_12basic_stringIcNS_11char_traitsIcEENS_9allocatorIcEEEENS6_IS8_EEEES8_EEEEEvPNS_15__type_identityIT_E4typeENS_15__element_countEm, symObjAddr: 0xA58B0, symBinAddr: 0x1000A6ED8, symSize: 0x78 }
  - { offset: 0x4A22B, size: 0x8, addend: 0x0, symName: __ZNSt3__1eqB8ne210108IPKNS_5tupleIJNS_6vectorINS_12basic_stringIcNS_11char_traitsIcEENS_9allocatorIcEEEENS6_IS8_EEEES8_EEEEEbRKNS_11__wrap_iterIT_EESI_, symObjAddr: 0xA7344, symBinAddr: 0x1000A896C, symSize: 0x90 }
  - { offset: 0x4A519, size: 0x8, addend: 0x0, symName: __ZNSt3__119__libcpp_deallocateB8ne210108INS_20__shared_ptr_pointerIPN7testing8internal23ParamGeneratorInterfaceINS_5tupleIJNS_6vectorINS_12basic_stringIcNS_11char_traitsIcEENS_9allocatorIcEEEENSA_ISC_EEEESC_EEEEENS_10shared_ptrIKSG_E27__shared_ptr_default_deleteISJ_SG_EENSA_ISG_EEEEEEvPNS_15__type_identityIT_E4typeENS_15__element_countEm, symObjAddr: 0xA8A78, symBinAddr: 0x1000AA0A0, symSize: 0x74 }
  - { offset: 0x4A574, size: 0x8, addend: 0x0, symName: __ZNSt3__13getB8ne210108ILm0EJNS_6vectorINS_12basic_stringIcNS_11char_traitsIcEENS_9allocatorIcEEEENS5_IS7_EEEEPKcEEERKNS_13tuple_elementIXT_ENS_5tupleIJDpT0_EEEE4typeERKSG_, symObjAddr: 0xA9734, symBinAddr: 0x1000AAD5C, symSize: 0xB8 }
  - { offset: 0x4A5BB, size: 0x8, addend: 0x0, symName: __ZNSt3__13getB8ne210108ILm1EJNS_6vectorINS_12basic_stringIcNS_11char_traitsIcEENS_9allocatorIcEEEENS5_IS7_EEEEPKcEEERKNS_13tuple_elementIXT_ENS_5tupleIJDpT0_EEEE4typeERKSG_, symObjAddr: 0xA9898, symBinAddr: 0x1000AAEC0, symSize: 0xC8 }
  - { offset: 0x4A602, size: 0x8, addend: 0x0, symName: __ZNSt3__130__uninitialized_allocator_copyB8ne210108INS_9allocatorINS_5tupleIJNS_6vectorINS_12basic_stringIcNS_11char_traitsIcEENS1_IcEEEENS1_IS8_EEEES8_EEEEEPKSB_SE_PSB_EET2_RT_T0_T1_SG_, symObjAddr: 0xAA63C, symBinAddr: 0x1000ABC64, symSize: 0x278 }
  - { offset: 0x4A6A8, size: 0x8, addend: 0x0, symName: __ZNSt3__114__unwrap_rangeB8ne210108IPKNS_5tupleIJNS_6vectorINS_12basic_stringIcNS_11char_traitsIcEENS_9allocatorIcEEEENS6_IS8_EEEES8_EEESD_EEDaT_T0_, symObjAddr: 0xAA8BC, symBinAddr: 0x1000ABEE4, symSize: 0x3C }
  - { offset: 0x4A72A, size: 0x8, addend: 0x0, symName: __ZNSt3__113__unwrap_iterB8ne210108IPKNS_5tupleIJNS_6vectorINS_12basic_stringIcNS_11char_traitsIcEENS_9allocatorIcEEEENS6_IS8_EEEES8_EEENS_18__unwrap_iter_implISD_Lb1EEETnNS_9enable_ifIXsr21is_copy_constructibleIT_EE5valueEiE4typeELi0EEEDTclsrT0_8__unwrapclsr3stdE7declvalISH_EEEESH_, symObjAddr: 0xAAB50, symBinAddr: 0x1000AC178, symSize: 0x24 }
  - { offset: 0x4A7B7, size: 0x8, addend: 0x0, symName: __ZNSt3__110make_tupleB8ne210108IJN7testing8internal10ValueArrayIJNS_5tupleIJNS_6vectorINS_12basic_stringIcNS_11char_traitsIcEENS_9allocatorIcEEEENS9_ISB_EEEEPKcEEESG_SG_SG_EEEEEENS4_IJDpNS_18__unwrap_referenceIu7__decayIT_EE4typeEEEEDpOSJ_, symObjAddr: 0xAB1FC, symBinAddr: 0x1000AC824, symSize: 0x9C }
  - { offset: 0x4A806, size: 0x8, addend: 0x0, symName: __ZNSt3__112__to_addressB8ne210108INS_10shared_ptrIN7testing8internal26ParameterizedTestSuiteInfoIN12_GLOBAL__N_120CaesarDec_NumWordsInEE8TestInfoEEEEEPT_SB_, symObjAddr: 0xAD2EC, symBinAddr: 0x1000AE914, symSize: 0x14 }
  - { offset: 0x4A83C, size: 0x8, addend: 0x0, symName: __ZNSt3__131__annotate_contiguous_containerB8ne210108INS_9allocatorINS_10shared_ptrIN7testing8internal26ParameterizedTestSuiteInfoIN12_GLOBAL__N_120CaesarDec_NumWordsInEE8TestInfoEEEEEEEvPKvSD_SD_SD_, symObjAddr: 0xADC2C, symBinAddr: 0x1000AF254, symSize: 0x4C }
  - { offset: 0x4A897, size: 0x8, addend: 0x0, symName: __ZNSt3__114__construct_atB8ne210108INS_10shared_ptrIN7testing8internal26ParameterizedTestSuiteInfoIN12_GLOBAL__N_120CaesarDec_NumWordsInEE8TestInfoEEEJPS8_EPS9_EEPT_SD_DpOT0_, symObjAddr: 0xADDA0, symBinAddr: 0x1000AF3C8, symSize: 0x6C }
  - { offset: 0x4A8EA, size: 0x8, addend: 0x0, symName: __ZNSt3__112construct_atB8ne210108INS_10shared_ptrIN7testing8internal26ParameterizedTestSuiteInfoIN12_GLOBAL__N_120CaesarDec_NumWordsInEE8TestInfoEEEJPS8_EPS9_EEPT_SD_DpOT0_, symObjAddr: 0xADE14, symBinAddr: 0x1000AF43C, symSize: 0xE4 }
  - { offset: 0x4ABEC, size: 0x8, addend: 0x0, symName: __ZNSt3__119__libcpp_deallocateB8ne210108INS_20__shared_ptr_pointerIPN7testing8internal26ParameterizedTestSuiteInfoIN12_GLOBAL__N_120CaesarDec_NumWordsInEE8TestInfoENS_10shared_ptrIS8_E27__shared_ptr_default_deleteIS8_S8_EENS_9allocatorIS8_EEEEEEvPNS_15__type_identityIT_E4typeENS_15__element_countEm, symObjAddr: 0xAF560, symBinAddr: 0x1000B0B88, symSize: 0x74 }
  - { offset: 0x4AC47, size: 0x8, addend: 0x0, symName: __ZNSt3__119__allocate_at_leastB8ne210108INS_9allocatorINS_10shared_ptrIN7testing8internal26ParameterizedTestSuiteInfoIN12_GLOBAL__N_120CaesarDec_NumWordsInEE8TestInfoEEEEEEENS_19__allocation_resultINS_16allocator_traitsIT_E7pointerEEERSE_m, symObjAddr: 0xB1184, symBinAddr: 0x1000B27AC, symSize: 0x40 }
  - { offset: 0x4AC8A, size: 0x8, addend: 0x0, symName: __ZNSt3__117__libcpp_allocateB8ne210108INS_10shared_ptrIN7testing8internal26ParameterizedTestSuiteInfoIN12_GLOBAL__N_120CaesarDec_NumWordsInEE8TestInfoEEEEEPT_NS_15__element_countEm, symObjAddr: 0xB1280, symBinAddr: 0x1000B28A8, symSize: 0xB0 }
  - { offset: 0x4ACDC, size: 0x8, addend: 0x0, symName: __ZNSt3__134__uninitialized_allocator_relocateB8ne210108INS_9allocatorINS_10shared_ptrIN7testing8internal26ParameterizedTestSuiteInfoIN12_GLOBAL__N_120CaesarDec_NumWordsInEE8TestInfoEEEEEPSA_EEvRT_T0_SF_SF_, symObjAddr: 0xB1538, symBinAddr: 0x1000B2B60, symSize: 0x8C }
  - { offset: 0x4AD45, size: 0x8, addend: 0x0, symName: __ZNSt3__14swapB8ne210108IPNS_10shared_ptrIN7testing8internal26ParameterizedTestSuiteInfoIN12_GLOBAL__N_120CaesarDec_NumWordsInEE8TestInfoEEEEENS_9enable_ifIXaasr21is_move_constructibleIT_EE5valuesr18is_move_assignableISC_EE5valueEvE4typeERSC_SF_, symObjAddr: 0xB15CC, symBinAddr: 0x1000B2BF4, symSize: 0x190 }
  - { offset: 0x4AD97, size: 0x8, addend: 0x0, symName: __ZNSt3__112__destroy_atB8ne210108INS_10shared_ptrIN7testing8internal26ParameterizedTestSuiteInfoIN12_GLOBAL__N_120CaesarDec_NumWordsInEE8TestInfoEEETnNS_9enable_ifIXntsr8is_arrayIT_EE5valueEiE4typeELi0EEEvPSB_, symObjAddr: 0xB1F6C, symBinAddr: 0x1000B3594, symSize: 0x5C }
  - { offset: 0x4ADD0, size: 0x8, addend: 0x0, symName: __ZNSt3__119__libcpp_deallocateB8ne210108INS_10shared_ptrIN7testing8internal26ParameterizedTestSuiteInfoIN12_GLOBAL__N_120CaesarDec_NumWordsInEE8TestInfoEEEEEvPNS_15__type_identityIT_E4typeENS_15__element_countEm, symObjAddr: 0xB21B4, symBinAddr: 0x1000B37DC, symSize: 0x74 }
  - { offset: 0x4AE2B, size: 0x8, addend: 0x0, symName: __ZNSt3__13getB8ne210108ILm0EJNS_6vectorINS_12basic_stringIcNS_11char_traitsIcEENS_9allocatorIcEEEENS5_IS7_EEEES9_iEEERKNS_13tuple_elementIXT_ENS_5tupleIJDpT0_EEEE4typeERKSE_, symObjAddr: 0xB496C, symBinAddr: 0x1000B5F94, symSize: 0xB8 }
  - { offset: 0x4AE78, size: 0x8, addend: 0x0, symName: __ZNSt3__13getB8ne210108ILm1EJNS_6vectorINS_12basic_stringIcNS_11char_traitsIcEENS_9allocatorIcEEEENS5_IS7_EEEES9_iEEERKNS_13tuple_elementIXT_ENS_5tupleIJDpT0_EEEE4typeERKSE_, symObjAddr: 0xB4A2C, symBinAddr: 0x1000B6054, symSize: 0xC8 }
  - { offset: 0x4AEC5, size: 0x8, addend: 0x0, symName: __ZNSt3__13getB8ne210108ILm2EJNS_6vectorINS_12basic_stringIcNS_11char_traitsIcEENS_9allocatorIcEEEENS5_IS7_EEEES9_iEEERKNS_13tuple_elementIXT_ENS_5tupleIJDpT0_EEEE4typeERKSE_, symObjAddr: 0xB4AFC, symBinAddr: 0x1000B6124, symSize: 0xC8 }
  - { offset: 0x4AF12, size: 0x8, addend: 0x0, symName: __ZNSt3__13getB8ne210108ILm0EJPKN7testing8internal11MatcherBaseIRKiEEPKNS2_9EqMatcherIiEEEEEONS_13tuple_elementIXT_ENS_5tupleIJDpT0_EEEE4typeEOSH_, symObjAddr: 0xB8D4C, symBinAddr: 0x1000BA374, symSize: 0xB8 }
  - { offset: 0x4AF5A, size: 0x8, addend: 0x0, symName: __ZNSt3__110make_tupleB8ne210108IJPKN7testing8internal11MatcherBaseIRKiEEPKNS2_9EqMatcherIiEEEEENS_5tupleIJDpNS_18__unwrap_referenceIu7__decayIT_EE4typeEEEEDpOSF_, symObjAddr: 0xB8E0C, symBinAddr: 0x1000BA434, symSize: 0x230 }
  - { offset: 0x4B3B7, size: 0x8, addend: 0x0, symName: __ZNSt3__110make_tupleB8ne210108IJNS_6vectorINS_12basic_stringIcNS_11char_traitsIcEENS_9allocatorIcEEEENS5_IS7_EEEES9_iEEENS_5tupleIJDpNS_18__unwrap_referenceIu7__decayIT_EE4typeEEEEDpOSC_, symObjAddr: 0xBA6EC, symBinAddr: 0x1000BBD14, symSize: 0x11C }
  - { offset: 0x4B437, size: 0x8, addend: 0x0, symName: __ZNSt3__18distanceB8ne210108INS_11__wrap_iterIPKNS_5tupleIJNS_6vectorINS_12basic_stringIcNS_11char_traitsIcEENS_9allocatorIcEEEENS7_IS9_EEEESB_iEEEEEEENS_15iterator_traitsIT_E15difference_typeESH_SH_, symObjAddr: 0xBD520, symBinAddr: 0x1000BEB48, symSize: 0x5C }
  - { offset: 0x4B47A, size: 0x8, addend: 0x0, symName: __ZNSt3__110__distanceB8ne210108INS_11__wrap_iterIPKNS_5tupleIJNS_6vectorINS_12basic_stringIcNS_11char_traitsIcEENS_9allocatorIcEEEENS7_IS9_EEEESB_iEEEEEEENS_15iterator_traitsIT_E15difference_typeESH_SH_NS_26random_access_iterator_tagE, symObjAddr: 0xBD9F0, symBinAddr: 0x1000BF018, symSize: 0x1E0 }
  - { offset: 0x4B4D1, size: 0x8, addend: 0x0, symName: __ZNSt3__1miB8ne210108IPKNS_5tupleIJNS_6vectorINS_12basic_stringIcNS_11char_traitsIcEENS_9allocatorIcEEEENS6_IS8_EEEESA_iEEESD_EEDTmicldtfp_4baseEcldtfp0_4baseEERKNS_11__wrap_iterIT_EERKNSF_IT0_EE, symObjAddr: 0xBDBD8, symBinAddr: 0x1000BF200, symSize: 0x94 }
  - { offset: 0x4B51D, size: 0x8, addend: 0x0, symName: __ZNSt3__122__make_exception_guardB8ne210108INS_6vectorINS_5tupleIJNS1_INS_12basic_stringIcNS_11char_traitsIcEENS_9allocatorIcEEEENS6_IS8_EEEESA_iEEENS6_ISB_EEE16__destroy_vectorEEENS_28__exception_guard_exceptionsIT_EESG_, symObjAddr: 0xBDD10, symBinAddr: 0x1000BF338, symSize: 0x74 }
  - { offset: 0x4B552, size: 0x8, addend: 0x0, symName: __ZNSt3__119__allocate_at_leastB8ne210108INS_9allocatorINS_5tupleIJNS_6vectorINS_12basic_stringIcNS_11char_traitsIcEENS1_IcEEEENS1_IS8_EEEESA_iEEEEEEENS_19__allocation_resultINS_16allocator_traitsIT_E7pointerEEERSF_m, symObjAddr: 0xBED18, symBinAddr: 0x1000C0340, symSize: 0x40 }
  - { offset: 0x4B595, size: 0x8, addend: 0x0, symName: __ZNSt3__117__libcpp_allocateB8ne210108INS_5tupleIJNS_6vectorINS_12basic_stringIcNS_11char_traitsIcEENS_9allocatorIcEEEENS6_IS8_EEEESA_iEEEEEPT_NS_15__element_countEm, symObjAddr: 0xBF070, symBinAddr: 0x1000C0698, symSize: 0xB4 }
  - { offset: 0x4B5E7, size: 0x8, addend: 0x0, symName: __ZNSt3__131__annotate_contiguous_containerB8ne210108INS_9allocatorINS_5tupleIJNS_6vectorINS_12basic_stringIcNS_11char_traitsIcEENS1_IcEEEENS1_IS8_EEEESA_iEEEEEEEvPKvSE_SE_SE_, symObjAddr: 0xBF438, symBinAddr: 0x1000C0A60, symSize: 0x4C }
  - { offset: 0x4B643, size: 0x8, addend: 0x0, symName: __ZNSt3__112__to_addressB8ne210108INS_5tupleIJNS_6vectorINS_12basic_stringIcNS_11char_traitsIcEENS_9allocatorIcEEEENS6_IS8_EEEESA_iEEEEEPT_SD_, symObjAddr: 0xBF48C, symBinAddr: 0x1000C0AB4, symSize: 0x14 }
  - { offset: 0x4B678, size: 0x8, addend: 0x0, symName: __ZNSt3__130__uninitialized_allocator_copyB8ne210108INS_9allocatorINS_5tupleIJNS_6vectorINS_12basic_stringIcNS_11char_traitsIcEENS1_IcEEEENS1_IS8_EEEESA_iEEEEENS_11__wrap_iterIPKSB_EESG_PSB_EET2_RT_T0_T1_SI_, symObjAddr: 0xBF51C, symBinAddr: 0x1000C0B44, symSize: 0x2C4 }
  - { offset: 0x4B71E, size: 0x8, addend: 0x0, symName: __ZNSt3__114__unwrap_rangeB8ne210108INS_11__wrap_iterIPKNS_5tupleIJNS_6vectorINS_12basic_stringIcNS_11char_traitsIcEENS_9allocatorIcEEEENS7_IS9_EEEESB_iEEEEESF_EEDaT_T0_, symObjAddr: 0xBFF48, symBinAddr: 0x1000C1570, symSize: 0x6C }
  - { offset: 0x4B76A, size: 0x8, addend: 0x0, symName: __ZNSt3__135__uninitialized_allocator_copy_implB8ne210108INS_9allocatorINS_5tupleIJNS_6vectorINS_12basic_stringIcNS_11char_traitsIcEENS1_IcEEEENS1_IS8_EEEESA_iEEEEEPKSB_SE_PSB_EET2_RT_T0_T1_SG_, symObjAddr: 0xBFFBC, symBinAddr: 0x1000C15E4, symSize: 0x520 }
  - { offset: 0x4B816, size: 0x8, addend: 0x0, symName: __ZNSt3__113__unwrap_iterB8ne210108IPNS_5tupleIJNS_6vectorINS_12basic_stringIcNS_11char_traitsIcEENS_9allocatorIcEEEENS6_IS8_EEEESA_iEEENS_18__unwrap_iter_implISC_Lb1EEETnNS_9enable_ifIXsr21is_copy_constructibleIT_EE5valueEiE4typeELi0EEEDTclsrT0_8__unwrapclsr3stdE7declvalISG_EEEESG_, symObjAddr: 0xC04E4, symBinAddr: 0x1000C1B0C, symSize: 0x24 }
  - { offset: 0x4B85B, size: 0x8, addend: 0x0, symName: __ZNSt3__113__rewrap_iterB8ne210108IPNS_5tupleIJNS_6vectorINS_12basic_stringIcNS_11char_traitsIcEENS_9allocatorIcEEEENS6_IS8_EEEESA_iEEESC_NS_18__unwrap_iter_implISC_Lb1EEEEET_SF_T0_, symObjAddr: 0xC0510, symBinAddr: 0x1000C1B38, symSize: 0x48 }
  - { offset: 0x4B9B1, size: 0x8, addend: 0x0, symName: __ZNSt3__113__unwrap_iterB8ne210108INS_11__wrap_iterIPKNS_5tupleIJNS_6vectorINS_12basic_stringIcNS_11char_traitsIcEENS_9allocatorIcEEEENS7_IS9_EEEESB_iEEEEENS_18__unwrap_iter_implISF_Lb1EEETnNS_9enable_ifIXsr21is_copy_constructibleIT_EE5valueEiE4typeELi0EEEDTclsrT0_8__unwrapclsr3stdE7declvalISJ_EEEESJ_, symObjAddr: 0xC07EC, symBinAddr: 0x1000C1E14, symSize: 0x34 }
  - { offset: 0x4BABE, size: 0x8, addend: 0x0, symName: __ZNSt3__112__to_addressB8ne210108INS_11__wrap_iterIPKNS_5tupleIJNS_6vectorINS_12basic_stringIcNS_11char_traitsIcEENS_9allocatorIcEEEENS7_IS9_EEEESB_iEEEEETnNS_9enable_ifIXsr4_AndINS_8is_classIT_EENS_15_IsFancyPointerISI_EEEE5valueEiE4typeELi0EEEu7__decayIDTclsr19__to_address_helperISI_EE6__callclsr3stdE7declvalIRKSI_EEEEESP_, symObjAddr: 0xC0A44, symBinAddr: 0x1000C206C, symSize: 0x5C }
  - { offset: 0x4BB25, size: 0x8, addend: 0x0, symName: __ZNSt3__112__to_addressB8ne210108IKNS_5tupleIJNS_6vectorINS_12basic_stringIcNS_11char_traitsIcEENS_9allocatorIcEEEENS6_IS8_EEEESA_iEEEEEPT_SE_, symObjAddr: 0xC0C90, symBinAddr: 0x1000C22B8, symSize: 0x14 }
  - { offset: 0x4BB5A, size: 0x8, addend: 0x0, symName: __ZNSt3__122__make_exception_guardB8ne210108INS_29_AllocatorDestroyRangeReverseINS_9allocatorINS_5tupleIJNS_6vectorINS_12basic_stringIcNS_11char_traitsIcEENS2_IcEEEENS2_IS9_EEEESB_iEEEEEPSC_EEEENS_28__exception_guard_exceptionsIT_EESH_, symObjAddr: 0xC0E84, symBinAddr: 0x1000C24AC, symSize: 0x204 }
  - { offset: 0x4BB91, size: 0x8, addend: 0x0, symName: __ZNSt3__114__construct_atB8ne210108INS_5tupleIJNS_6vectorINS_12basic_stringIcNS_11char_traitsIcEENS_9allocatorIcEEEENS6_IS8_EEEESA_iEEEJRKSB_EPSB_EEPT_SG_DpOT0_, symObjAddr: 0xC15C4, symBinAddr: 0x1000C2BEC, symSize: 0x6C }
  - { offset: 0x4BBE4, size: 0x8, addend: 0x0, symName: __ZNSt3__112construct_atB8ne210108INS_5tupleIJNS_6vectorINS_12basic_stringIcNS_11char_traitsIcEENS_9allocatorIcEEEENS6_IS8_EEEESA_iEEEJRKSB_EPSB_EEPT_SG_DpOT0_, symObjAddr: 0xC1638, symBinAddr: 0x1000C2C60, symSize: 0xA0 }
  - { offset: 0x4BC38, size: 0x8, addend: 0x0, symName: __ZNSt3__119__allocator_destroyB8ne210108INS_9allocatorINS_5tupleIJNS_6vectorINS_12basic_stringIcNS_11char_traitsIcEENS1_IcEEEENS1_IS8_EEEESA_iEEEEENS_16reverse_iteratorIPSB_EESF_EEvRT_T0_T1_, symObjAddr: 0xC1B74, symBinAddr: 0x1000C319C, symSize: 0x244 }
  - { offset: 0x4BCA0, size: 0x8, addend: 0x0, symName: __ZNSt3__1neB8ne210108IPNS_5tupleIJNS_6vectorINS_12basic_stringIcNS_11char_traitsIcEENS_9allocatorIcEEEENS6_IS8_EEEESA_iEEESC_EEbRKNS_16reverse_iteratorIT_EERKNSD_IT0_EEQrqXnecldtfp_4baseEcldtfp0_4baseERNS_14convertible_toIbEEE, symObjAddr: 0xC1E2C, symBinAddr: 0x1000C3454, symSize: 0x90 }
  - { offset: 0x4BCED, size: 0x8, addend: 0x0, symName: __ZNSt3__112__destroy_atB8ne210108INS_5tupleIJNS_6vectorINS_12basic_stringIcNS_11char_traitsIcEENS_9allocatorIcEEEENS6_IS8_EEEESA_iEEETnNS_9enable_ifIXntsr8is_arrayIT_EE5valueEiE4typeELi0EEEvPSD_, symObjAddr: 0xC2264, symBinAddr: 0x1000C388C, symSize: 0x5C }
  - { offset: 0x4BD6E, size: 0x8, addend: 0x0, symName: __ZNSt3__119__libcpp_deallocateB8ne210108INS_5tupleIJNS_6vectorINS_12basic_stringIcNS_11char_traitsIcEENS_9allocatorIcEEEENS6_IS8_EEEESA_iEEEEEvPNS_15__type_identityIT_E4typeENS_15__element_countEm, symObjAddr: 0xC3434, symBinAddr: 0x1000C4A5C, symSize: 0x78 }
  - { offset: 0x4BDC9, size: 0x8, addend: 0x0, symName: __ZNSt3__1eqB8ne210108IPKNS_5tupleIJNS_6vectorINS_12basic_stringIcNS_11char_traitsIcEENS_9allocatorIcEEEENS6_IS8_EEEESA_iEEEEEbRKNS_11__wrap_iterIT_EESI_, symObjAddr: 0xC4EC8, symBinAddr: 0x1000C64F0, symSize: 0x90 }
  - { offset: 0x4C0B7, size: 0x8, addend: 0x0, symName: __ZNSt3__119__libcpp_deallocateB8ne210108INS_20__shared_ptr_pointerIPN7testing8internal23ParamGeneratorInterfaceINS_5tupleIJNS_6vectorINS_12basic_stringIcNS_11char_traitsIcEENS_9allocatorIcEEEENSA_ISC_EEEESE_iEEEEENS_10shared_ptrIKSG_E27__shared_ptr_default_deleteISJ_SG_EENSA_ISG_EEEEEEvPNS_15__type_identityIT_E4typeENS_15__element_countEm, symObjAddr: 0xC65FC, symBinAddr: 0x1000C7C24, symSize: 0x74 }
  - { offset: 0x4C112, size: 0x8, addend: 0x0, symName: __ZNSt3__130__uninitialized_allocator_copyB8ne210108INS_9allocatorINS_5tupleIJNS_6vectorINS_12basic_stringIcNS_11char_traitsIcEENS1_IcEEEENS1_IS8_EEEESA_iEEEEEPKSB_SE_PSB_EET2_RT_T0_T1_SG_, symObjAddr: 0xC7C0C, symBinAddr: 0x1000C9234, symSize: 0x278 }
  - { offset: 0x4C1B8, size: 0x8, addend: 0x0, symName: __ZNSt3__114__unwrap_rangeB8ne210108IPKNS_5tupleIJNS_6vectorINS_12basic_stringIcNS_11char_traitsIcEENS_9allocatorIcEEEENS6_IS8_EEEESA_iEEESD_EEDaT_T0_, symObjAddr: 0xC7E8C, symBinAddr: 0x1000C94B4, symSize: 0x3C }
  - { offset: 0x4C23A, size: 0x8, addend: 0x0, symName: __ZNSt3__113__unwrap_iterB8ne210108IPKNS_5tupleIJNS_6vectorINS_12basic_stringIcNS_11char_traitsIcEENS_9allocatorIcEEEENS6_IS8_EEEESA_iEEENS_18__unwrap_iter_implISD_Lb1EEETnNS_9enable_ifIXsr21is_copy_constructibleIT_EE5valueEiE4typeELi0EEEDTclsrT0_8__unwrapclsr3stdE7declvalISH_EEEESH_, symObjAddr: 0xC8120, symBinAddr: 0x1000C9748, symSize: 0x24 }
  - { offset: 0x4C2C7, size: 0x8, addend: 0x0, symName: __ZNSt3__110make_tupleB8ne210108IJN7testing8internal10ValueArrayIJNS_5tupleIJNS_6vectorINS_12basic_stringIcNS_11char_traitsIcEENS_9allocatorIcEEEENS9_ISB_EEEESD_iEEESE_SE_SE_EEEEEENS4_IJDpNS_18__unwrap_referenceIu7__decayIT_EE4typeEEEEDpOSH_, symObjAddr: 0xC86A0, symBinAddr: 0x1000C9CC8, symSize: 0x9C }
  - { offset: 0x4C316, size: 0x8, addend: 0x0, symName: __ZNSt3__112__to_addressB8ne210108INS_10shared_ptrIN7testing8internal26ParameterizedTestSuiteInfoIN12_GLOBAL__N_127CaesarDec_CustomDictCommandEE8TestInfoEEEEEPT_SB_, symObjAddr: 0xCA790, symBinAddr: 0x1000CBDB8, symSize: 0x14 }
  - { offset: 0x4C34C, size: 0x8, addend: 0x0, symName: __ZNSt3__131__annotate_contiguous_containerB8ne210108INS_9allocatorINS_10shared_ptrIN7testing8internal26ParameterizedTestSuiteInfoIN12_GLOBAL__N_127CaesarDec_CustomDictCommandEE8TestInfoEEEEEEEvPKvSD_SD_SD_, symObjAddr: 0xCB0D0, symBinAddr: 0x1000CC6F8, symSize: 0x4C }
  - { offset: 0x4C3A7, size: 0x8, addend: 0x0, symName: __ZNSt3__114__construct_atB8ne210108INS_10shared_ptrIN7testing8internal26ParameterizedTestSuiteInfoIN12_GLOBAL__N_127CaesarDec_CustomDictCommandEE8TestInfoEEEJPS8_EPS9_EEPT_SD_DpOT0_, symObjAddr: 0xCB244, symBinAddr: 0x1000CC86C, symSize: 0x6C }
  - { offset: 0x4C3FA, size: 0x8, addend: 0x0, symName: __ZNSt3__112construct_atB8ne210108INS_10shared_ptrIN7testing8internal26ParameterizedTestSuiteInfoIN12_GLOBAL__N_127CaesarDec_CustomDictCommandEE8TestInfoEEEJPS8_EPS9_EEPT_SD_DpOT0_, symObjAddr: 0xCB2B8, symBinAddr: 0x1000CC8E0, symSize: 0xE4 }
  - { offset: 0x4C6FC, size: 0x8, addend: 0x0, symName: __ZNSt3__119__libcpp_deallocateB8ne210108INS_20__shared_ptr_pointerIPN7testing8internal26ParameterizedTestSuiteInfoIN12_GLOBAL__N_127CaesarDec_CustomDictCommandEE8TestInfoENS_10shared_ptrIS8_E27__shared_ptr_default_deleteIS8_S8_EENS_9allocatorIS8_EEEEEEvPNS_15__type_identityIT_E4typeENS_15__element_countEm, symObjAddr: 0xCCA04, symBinAddr: 0x1000CE02C, symSize: 0x74 }
  - { offset: 0x4C757, size: 0x8, addend: 0x0, symName: __ZNSt3__119__allocate_at_leastB8ne210108INS_9allocatorINS_10shared_ptrIN7testing8internal26ParameterizedTestSuiteInfoIN12_GLOBAL__N_127CaesarDec_CustomDictCommandEE8TestInfoEEEEEEENS_19__allocation_resultINS_16allocator_traitsIT_E7pointerEEERSE_m, symObjAddr: 0xCE628, symBinAddr: 0x1000CFC50, symSize: 0x40 }
  - { offset: 0x4C79A, size: 0x8, addend: 0x0, symName: __ZNSt3__117__libcpp_allocateB8ne210108INS_10shared_ptrIN7testing8internal26ParameterizedTestSuiteInfoIN12_GLOBAL__N_127CaesarDec_CustomDictCommandEE8TestInfoEEEEEPT_NS_15__element_countEm, symObjAddr: 0xCE724, symBinAddr: 0x1000CFD4C, symSize: 0xB0 }
  - { offset: 0x4C7EC, size: 0x8, addend: 0x0, symName: __ZNSt3__134__uninitialized_allocator_relocateB8ne210108INS_9allocatorINS_10shared_ptrIN7testing8internal26ParameterizedTestSuiteInfoIN12_GLOBAL__N_127CaesarDec_CustomDictCommandEE8TestInfoEEEEEPSA_EEvRT_T0_SF_SF_, symObjAddr: 0xCE9DC, symBinAddr: 0x1000D0004, symSize: 0x8C }
  - { offset: 0x4C855, size: 0x8, addend: 0x0, symName: __ZNSt3__14swapB8ne210108IPNS_10shared_ptrIN7testing8internal26ParameterizedTestSuiteInfoIN12_GLOBAL__N_127CaesarDec_CustomDictCommandEE8TestInfoEEEEENS_9enable_ifIXaasr21is_move_constructibleIT_EE5valuesr18is_move_assignableISC_EE5valueEvE4typeERSC_SF_, symObjAddr: 0xCEA70, symBinAddr: 0x1000D0098, symSize: 0x190 }
  - { offset: 0x4C8A7, size: 0x8, addend: 0x0, symName: __ZNSt3__112__destroy_atB8ne210108INS_10shared_ptrIN7testing8internal26ParameterizedTestSuiteInfoIN12_GLOBAL__N_127CaesarDec_CustomDictCommandEE8TestInfoEEETnNS_9enable_ifIXntsr8is_arrayIT_EE5valueEiE4typeELi0EEEvPSB_, symObjAddr: 0xCF410, symBinAddr: 0x1000D0A38, symSize: 0x5C }
  - { offset: 0x4C8E0, size: 0x8, addend: 0x0, symName: __ZNSt3__119__libcpp_deallocateB8ne210108INS_10shared_ptrIN7testing8internal26ParameterizedTestSuiteInfoIN12_GLOBAL__N_127CaesarDec_CustomDictCommandEE8TestInfoEEEEEvPNS_15__type_identityIT_E4typeENS_15__element_countEm, symObjAddr: 0xCF658, symBinAddr: 0x1000D0C80, symSize: 0x74 }
  - { offset: 0x4C93B, size: 0x8, addend: 0x0, symName: __ZNSt3__13getB8ne210108ILm0EJNS_12basic_stringIcNS_11char_traitsIcEENS_9allocatorIcEEEENS_6vectorIS6_NS4_IS6_EEEES6_S6_EEERKNS_13tuple_elementIXT_ENS_5tupleIJDpT0_EEEE4typeERKSE_, symObjAddr: 0xD37B8, symBinAddr: 0x1000D4DE0, symSize: 0xB8 }
  - { offset: 0x4C98D, size: 0x8, addend: 0x0, symName: __ZNSt3__13getB8ne210108ILm1EJNS_12basic_stringIcNS_11char_traitsIcEENS_9allocatorIcEEEENS_6vectorIS6_NS4_IS6_EEEES6_S6_EEERKNS_13tuple_elementIXT_ENS_5tupleIJDpT0_EEEE4typeERKSE_, symObjAddr: 0xD3878, symBinAddr: 0x1000D4EA0, symSize: 0xC8 }
  - { offset: 0x4C9DF, size: 0x8, addend: 0x0, symName: __ZNSt3__13getB8ne210108ILm2EJNS_12basic_stringIcNS_11char_traitsIcEENS_9allocatorIcEEEENS_6vectorIS6_NS4_IS6_EEEES6_S6_EEERKNS_13tuple_elementIXT_ENS_5tupleIJDpT0_EEEE4typeERKSE_, symObjAddr: 0xD3948, symBinAddr: 0x1000D4F70, symSize: 0xC8 }
  - { offset: 0x4CA31, size: 0x8, addend: 0x0, symName: __ZNSt3__110make_tupleB8ne210108IJRA10_KcNS_6vectorINS_12basic_stringIcNS_11char_traitsIcEENS_9allocatorIcEEEENS8_ISA_EEEERKSA_S3_EEENS_5tupleIJDpNS_18__unwrap_referenceIu7__decayIT_EE4typeEEEEDpOSH_, symObjAddr: 0xD96B4, symBinAddr: 0x1000DACDC, symSize: 0x134 }
  - { offset: 0x4CAA6, size: 0x8, addend: 0x0, symName: __ZNSt3__110make_tupleB8ne210108IJRA6_KcNS_6vectorINS_12basic_stringIcNS_11char_traitsIcEENS_9allocatorIcEEEENS8_ISA_EEEES3_RA17_S1_EEENS_5tupleIJDpNS_18__unwrap_referenceIu7__decayIT_EE4typeEEEEDpOSH_, symObjAddr: 0xD97F0, symBinAddr: 0x1000DAE18, symSize: 0x120 }
  - { offset: 0x4CB1B, size: 0x8, addend: 0x0, symName: __ZNSt3__110make_tupleB8ne210108IJRA3_KcNS_6vectorINS_12basic_stringIcNS_11char_traitsIcEENS_9allocatorIcEEEENS8_ISA_EEEERA9_S1_RA19_S1_EEENS_5tupleIJDpNS_18__unwrap_referenceIu7__decayIT_EE4typeEEEEDpOSJ_, symObjAddr: 0xD9918, symBinAddr: 0x1000DAF40, symSize: 0x120 }
  - { offset: 0x4CB90, size: 0x8, addend: 0x0, symName: __ZNSt3__110make_tupleB8ne210108IJRA7_KcNS_6vectorINS_12basic_stringIcNS_11char_traitsIcEENS_9allocatorIcEEEENS8_ISA_EEEERA14_S1_RA19_S1_EEENS_5tupleIJDpNS_18__unwrap_referenceIu7__decayIT_EE4typeEEEEDpOSJ_, symObjAddr: 0xD9A40, symBinAddr: 0x1000DB068, symSize: 0x120 }
  - { offset: 0x4CC05, size: 0x8, addend: 0x0, symName: __ZNSt3__110make_tupleB8ne210108IJRA3_KcNS_6vectorINS_12basic_stringIcNS_11char_traitsIcEENS_9allocatorIcEEEENS8_ISA_EEEERA6_S1_RA27_S1_EEENS_5tupleIJDpNS_18__unwrap_referenceIu7__decayIT_EE4typeEEEEDpOSJ_, symObjAddr: 0xD9B68, symBinAddr: 0x1000DB190, symSize: 0x120 }
  - { offset: 0x4CC7A, size: 0x8, addend: 0x0, symName: __ZNSt3__110make_tupleB8ne210108IJRA10_KcNS_6vectorINS_12basic_stringIcNS_11char_traitsIcEENS_9allocatorIcEEEENS8_ISA_EEEERA8_S1_RA18_S1_EEENS_5tupleIJDpNS_18__unwrap_referenceIu7__decayIT_EE4typeEEEEDpOSJ_, symObjAddr: 0xD9C90, symBinAddr: 0x1000DB2B8, symSize: 0x120 }
  - { offset: 0x4CCEF, size: 0x8, addend: 0x0, symName: __ZNSt3__110make_tupleB8ne210108IJRA15_KcNS_6vectorINS_12basic_stringIcNS_11char_traitsIcEENS_9allocatorIcEEEENS8_ISA_EEEES3_RA26_S1_EEENS_5tupleIJDpNS_18__unwrap_referenceIu7__decayIT_EE4typeEEEEDpOSH_, symObjAddr: 0xD9DB8, symBinAddr: 0x1000DB3E0, symSize: 0x120 }
  - { offset: 0x4CD64, size: 0x8, addend: 0x0, symName: __ZNSt3__110make_tupleB8ne210108IJRA10_KcNS_6vectorINS_12basic_stringIcNS_11char_traitsIcEENS_9allocatorIcEEEENS8_ISA_EEEERKSA_RA24_S1_EEENS_5tupleIJDpNS_18__unwrap_referenceIu7__decayIT_EE4typeEEEEDpOSJ_, symObjAddr: 0xD9EE0, symBinAddr: 0x1000DB508, symSize: 0x134 }
  - { offset: 0x4CDD9, size: 0x8, addend: 0x0, symName: __ZNSt3__110make_tupleB8ne210108IJRA401_KcNS_6vectorINS_12basic_stringIcNS_11char_traitsIcEENS_9allocatorIcEEEENS8_ISA_EEEES3_RA15_S1_EEENS_5tupleIJDpNS_18__unwrap_referenceIu7__decayIT_EE4typeEEEEDpOSH_, symObjAddr: 0xDA01C, symBinAddr: 0x1000DB644, symSize: 0x120 }
  - { offset: 0x4DD73, size: 0x8, addend: 0x0, symName: __ZNSt3__18distanceB8ne210108INS_11__wrap_iterIPKNS_5tupleIJNS_12basic_stringIcNS_11char_traitsIcEENS_9allocatorIcEEEENS_6vectorIS8_NS6_IS8_EEEES8_S8_EEEEEEENS_15iterator_traitsIT_E15difference_typeESH_SH_, symObjAddr: 0xE1538, symBinAddr: 0x1000E2B60, symSize: 0x5C }
  - { offset: 0x4DDB6, size: 0x8, addend: 0x0, symName: __ZNSt3__110__distanceB8ne210108INS_11__wrap_iterIPKNS_5tupleIJNS_12basic_stringIcNS_11char_traitsIcEENS_9allocatorIcEEEENS_6vectorIS8_NS6_IS8_EEEES8_S8_EEEEEEENS_15iterator_traitsIT_E15difference_typeESH_SH_NS_26random_access_iterator_tagE, symObjAddr: 0xE1A08, symBinAddr: 0x1000E3030, symSize: 0x1E0 }
  - { offset: 0x4DE0D, size: 0x8, addend: 0x0, symName: __ZNSt3__1miB8ne210108IPKNS_5tupleIJNS_12basic_stringIcNS_11char_traitsIcEENS_9allocatorIcEEEENS_6vectorIS7_NS5_IS7_EEEES7_S7_EEESD_EEDTmicldtfp_4baseEcldtfp0_4baseEERKNS_11__wrap_iterIT_EERKNSF_IT0_EE, symObjAddr: 0xE1BF0, symBinAddr: 0x1000E3218, symSize: 0x94 }
  - { offset: 0x4DE59, size: 0x8, addend: 0x0, symName: __ZNSt3__122__make_exception_guardB8ne210108INS_6vectorINS_5tupleIJNS_12basic_stringIcNS_11char_traitsIcEENS_9allocatorIcEEEENS1_IS8_NS6_IS8_EEEES8_S8_EEENS6_ISB_EEE16__destroy_vectorEEENS_28__exception_guard_exceptionsIT_EESG_, symObjAddr: 0xE1D28, symBinAddr: 0x1000E3350, symSize: 0x74 }
  - { offset: 0x4DE8E, size: 0x8, addend: 0x0, symName: __ZNSt3__119__allocate_at_leastB8ne210108INS_9allocatorINS_5tupleIJNS_12basic_stringIcNS_11char_traitsIcEENS1_IcEEEENS_6vectorIS7_NS1_IS7_EEEES7_S7_EEEEEEENS_19__allocation_resultINS_16allocator_traitsIT_E7pointerEEERSF_m, symObjAddr: 0xE2D30, symBinAddr: 0x1000E4358, symSize: 0x40 }
  - { offset: 0x4DED1, size: 0x8, addend: 0x0, symName: __ZNSt3__117__libcpp_allocateB8ne210108INS_5tupleIJNS_12basic_stringIcNS_11char_traitsIcEENS_9allocatorIcEEEENS_6vectorIS7_NS5_IS7_EEEES7_S7_EEEEEPT_NS_15__element_countEm, symObjAddr: 0xE3088, symBinAddr: 0x1000E46B0, symSize: 0xB4 }
  - { offset: 0x4DF23, size: 0x8, addend: 0x0, symName: __ZNSt3__131__annotate_contiguous_containerB8ne210108INS_9allocatorINS_5tupleIJNS_12basic_stringIcNS_11char_traitsIcEENS1_IcEEEENS_6vectorIS7_NS1_IS7_EEEES7_S7_EEEEEEEvPKvSE_SE_SE_, symObjAddr: 0xE3450, symBinAddr: 0x1000E4A78, symSize: 0x4C }
  - { offset: 0x4DF7F, size: 0x8, addend: 0x0, symName: __ZNSt3__112__to_addressB8ne210108INS_5tupleIJNS_12basic_stringIcNS_11char_traitsIcEENS_9allocatorIcEEEENS_6vectorIS7_NS5_IS7_EEEES7_S7_EEEEEPT_SD_, symObjAddr: 0xE34A4, symBinAddr: 0x1000E4ACC, symSize: 0x14 }
  - { offset: 0x4DFB4, size: 0x8, addend: 0x0, symName: __ZNSt3__130__uninitialized_allocator_copyB8ne210108INS_9allocatorINS_5tupleIJNS_12basic_stringIcNS_11char_traitsIcEENS1_IcEEEENS_6vectorIS7_NS1_IS7_EEEES7_S7_EEEEENS_11__wrap_iterIPKSB_EESG_PSB_EET2_RT_T0_T1_SI_, symObjAddr: 0xE3534, symBinAddr: 0x1000E4B5C, symSize: 0x2C4 }
  - { offset: 0x4E05A, size: 0x8, addend: 0x0, symName: __ZNSt3__114__unwrap_rangeB8ne210108INS_11__wrap_iterIPKNS_5tupleIJNS_12basic_stringIcNS_11char_traitsIcEENS_9allocatorIcEEEENS_6vectorIS8_NS6_IS8_EEEES8_S8_EEEEESF_EEDaT_T0_, symObjAddr: 0xE3F60, symBinAddr: 0x1000E5588, symSize: 0x6C }
  - { offset: 0x4E0A6, size: 0x8, addend: 0x0, symName: __ZNSt3__135__uninitialized_allocator_copy_implB8ne210108INS_9allocatorINS_5tupleIJNS_12basic_stringIcNS_11char_traitsIcEENS1_IcEEEENS_6vectorIS7_NS1_IS7_EEEES7_S7_EEEEEPKSB_SE_PSB_EET2_RT_T0_T1_SG_, symObjAddr: 0xE3FD4, symBinAddr: 0x1000E55FC, symSize: 0x520 }
  - { offset: 0x4E152, size: 0x8, addend: 0x0, symName: __ZNSt3__113__unwrap_iterB8ne210108IPNS_5tupleIJNS_12basic_stringIcNS_11char_traitsIcEENS_9allocatorIcEEEENS_6vectorIS7_NS5_IS7_EEEES7_S7_EEENS_18__unwrap_iter_implISC_Lb1EEETnNS_9enable_ifIXsr21is_copy_constructibleIT_EE5valueEiE4typeELi0EEEDTclsrT0_8__unwrapclsr3stdE7declvalISG_EEEESG_, symObjAddr: 0xE44FC, symBinAddr: 0x1000E5B24, symSize: 0x24 }
  - { offset: 0x4E197, size: 0x8, addend: 0x0, symName: __ZNSt3__113__rewrap_iterB8ne210108IPNS_5tupleIJNS_12basic_stringIcNS_11char_traitsIcEENS_9allocatorIcEEEENS_6vectorIS7_NS5_IS7_EEEES7_S7_EEESC_NS_18__unwrap_iter_implISC_Lb1EEEEET_SF_T0_, symObjAddr: 0xE4528, symBinAddr: 0x1000E5B50, symSize: 0x48 }
  - { offset: 0x4E2ED, size: 0x8, addend: 0x0, symName: __ZNSt3__113__unwrap_iterB8ne210108INS_11__wrap_iterIPKNS_5tupleIJNS_12basic_stringIcNS_11char_traitsIcEENS_9allocatorIcEEEENS_6vectorIS8_NS6_IS8_EEEES8_S8_EEEEENS_18__unwrap_iter_implISF_Lb1EEETnNS_9enable_ifIXsr21is_copy_constructibleIT_EE5valueEiE4typeELi0EEEDTclsrT0_8__unwrapclsr3stdE7declvalISJ_EEEESJ_, symObjAddr: 0xE4804, symBinAddr: 0x1000E5E2C, symSize: 0x34 }
  - { offset: 0x4E3FA, size: 0x8, addend: 0x0, symName: __ZNSt3__112__to_addressB8ne210108INS_11__wrap_iterIPKNS_5tupleIJNS_12basic_stringIcNS_11char_traitsIcEENS_9allocatorIcEEEENS_6vectorIS8_NS6_IS8_EEEES8_S8_EEEEETnNS_9enable_ifIXsr4_AndINS_8is_classIT_EENS_15_IsFancyPointerISI_EEEE5valueEiE4typeELi0EEEu7__decayIDTclsr19__to_address_helperISI_EE6__callclsr3stdE7declvalIRKSI_EEEEESP_, symObjAddr: 0xE4A5C, symBinAddr: 0x1000E6084, symSize: 0x5C }
  - { offset: 0x4E461, size: 0x8, addend: 0x0, symName: __ZNSt3__112__to_addressB8ne210108IKNS_5tupleIJNS_12basic_stringIcNS_11char_traitsIcEENS_9allocatorIcEEEENS_6vectorIS7_NS5_IS7_EEEES7_S7_EEEEEPT_SE_, symObjAddr: 0xE4CA8, symBinAddr: 0x1000E62D0, symSize: 0x14 }
  - { offset: 0x4E496, size: 0x8, addend: 0x0, symName: __ZNSt3__122__make_exception_guardB8ne210108INS_29_AllocatorDestroyRangeReverseINS_9allocatorINS_5tupleIJNS_12basic_stringIcNS_11char_traitsIcEENS2_IcEEEENS_6vectorIS8_NS2_IS8_EEEES8_S8_EEEEEPSC_EEEENS_28__exception_guard_exceptionsIT_EESH_, symObjAddr: 0xE4E9C, symBinAddr: 0x1000E64C4, symSize: 0x204 }
  - { offset: 0x4E4CD, size: 0x8, addend: 0x0, symName: __ZNSt3__114__construct_atB8ne210108INS_5tupleIJNS_12basic_stringIcNS_11char_traitsIcEENS_9allocatorIcEEEENS_6vectorIS7_NS5_IS7_EEEES7_S7_EEEJRKSB_EPSB_EEPT_SG_DpOT0_, symObjAddr: 0xE55DC, symBinAddr: 0x1000E6C04, symSize: 0x6C }
  - { offset: 0x4E520, size: 0x8, addend: 0x0, symName: __ZNSt3__112construct_atB8ne210108INS_5tupleIJNS_12basic_stringIcNS_11char_traitsIcEENS_9allocatorIcEEEENS_6vectorIS7_NS5_IS7_EEEES7_S7_EEEJRKSB_EPSB_EEPT_SG_DpOT0_, symObjAddr: 0xE5650, symBinAddr: 0x1000E6C78, symSize: 0xA0 }
  - { offset: 0x4E574, size: 0x8, addend: 0x0, symName: __ZNSt3__119__allocator_destroyB8ne210108INS_9allocatorINS_5tupleIJNS_12basic_stringIcNS_11char_traitsIcEENS1_IcEEEENS_6vectorIS7_NS1_IS7_EEEES7_S7_EEEEENS_16reverse_iteratorIPSB_EESF_EEvRT_T0_T1_, symObjAddr: 0xE5B8C, symBinAddr: 0x1000E71B4, symSize: 0x244 }
  - { offset: 0x4E5DC, size: 0x8, addend: 0x0, symName: __ZNSt3__1neB8ne210108IPNS_5tupleIJNS_12basic_stringIcNS_11char_traitsIcEENS_9allocatorIcEEEENS_6vectorIS7_NS5_IS7_EEEES7_S7_EEESC_EEbRKNS_16reverse_iteratorIT_EERKNSD_IT0_EEQrqXnecldtfp_4baseEcldtfp0_4baseERNS_14convertible_toIbEEE, symObjAddr: 0xE5E44, symBinAddr: 0x1000E746C, symSize: 0x90 }
  - { offset: 0x4E629, size: 0x8, addend: 0x0, symName: __ZNSt3__112__destroy_atB8ne210108INS_5tupleIJNS_12basic_stringIcNS_11char_traitsIcEENS_9allocatorIcEEEENS_6vectorIS7_NS5_IS7_EEEES7_S7_EEETnNS_9enable_ifIXntsr8is_arrayIT_EE5valueEiE4typeELi0EEEvPSD_, symObjAddr: 0xE627C, symBinAddr: 0x1000E78A4, symSize: 0x5C }
  - { offset: 0x4E6AA, size: 0x8, addend: 0x0, symName: __ZNSt3__119__libcpp_deallocateB8ne210108INS_5tupleIJNS_12basic_stringIcNS_11char_traitsIcEENS_9allocatorIcEEEENS_6vectorIS7_NS5_IS7_EEEES7_S7_EEEEEvPNS_15__type_identityIT_E4typeENS_15__element_countEm, symObjAddr: 0xE744C, symBinAddr: 0x1000E8A74, symSize: 0x78 }
  - { offset: 0x4E705, size: 0x8, addend: 0x0, symName: __ZNSt3__1eqB8ne210108IPKNS_5tupleIJNS_12basic_stringIcNS_11char_traitsIcEENS_9allocatorIcEEEENS_6vectorIS7_NS5_IS7_EEEES7_S7_EEEEEbRKNS_11__wrap_iterIT_EESI_, symObjAddr: 0xE8EE0, symBinAddr: 0x1000EA508, symSize: 0x90 }
  - { offset: 0x4E9F3, size: 0x8, addend: 0x0, symName: __ZNSt3__119__libcpp_deallocateB8ne210108INS_20__shared_ptr_pointerIPN7testing8internal23ParamGeneratorInterfaceINS_5tupleIJNS_12basic_stringIcNS_11char_traitsIcEENS_9allocatorIcEEEENS_6vectorISB_NS9_ISB_EEEESB_SB_EEEEENS_10shared_ptrIKSG_E27__shared_ptr_default_deleteISJ_SG_EENS9_ISG_EEEEEEvPNS_15__type_identityIT_E4typeENS_15__element_countEm, symObjAddr: 0xEA614, symBinAddr: 0x1000EBC3C, symSize: 0x74 }
  - { offset: 0x4EA4E, size: 0x8, addend: 0x0, symName: __ZNSt3__13getB8ne210108ILm0EJPKcNS_6vectorINS_12basic_stringIcNS_11char_traitsIcEENS_9allocatorIcEEEENS7_IS9_EEEES9_S2_EEERKNS_13tuple_elementIXT_ENS_5tupleIJDpT0_EEEE4typeERKSG_, symObjAddr: 0xEB8D8, symBinAddr: 0x1000ECF00, symSize: 0xB8 }
  - { offset: 0x4EA9F, size: 0x8, addend: 0x0, symName: __ZNSt3__13getB8ne210108ILm1EJPKcNS_6vectorINS_12basic_stringIcNS_11char_traitsIcEENS_9allocatorIcEEEENS7_IS9_EEEES9_S2_EEERKNS_13tuple_elementIXT_ENS_5tupleIJDpT0_EEEE4typeERKSG_, symObjAddr: 0xEB998, symBinAddr: 0x1000ECFC0, symSize: 0xC8 }
  - { offset: 0x4EAF0, size: 0x8, addend: 0x0, symName: __ZNSt3__13getB8ne210108ILm2EJPKcNS_6vectorINS_12basic_stringIcNS_11char_traitsIcEENS_9allocatorIcEEEENS7_IS9_EEEES9_S2_EEERKNS_13tuple_elementIXT_ENS_5tupleIJDpT0_EEEE4typeERKSG_, symObjAddr: 0xEBA68, symBinAddr: 0x1000ED090, symSize: 0xC8 }
  - { offset: 0x4EB41, size: 0x8, addend: 0x0, symName: __ZNSt3__13getB8ne210108ILm3EJPKcNS_6vectorINS_12basic_stringIcNS_11char_traitsIcEENS_9allocatorIcEEEENS7_IS9_EEEES9_S2_EEERKNS_13tuple_elementIXT_ENS_5tupleIJDpT0_EEEE4typeERKSG_, symObjAddr: 0xEBB38, symBinAddr: 0x1000ED160, symSize: 0xC8 }
  - { offset: 0x4EB92, size: 0x8, addend: 0x0, symName: __ZNSt3__13getB8ne210108ILm0EJPKcNS_6vectorINS_12basic_stringIcNS_11char_traitsIcEENS_9allocatorIcEEEENS7_IS9_EEEES2_S2_EEERKNS_13tuple_elementIXT_ENS_5tupleIJDpT0_EEEE4typeERKSG_, symObjAddr: 0xEC26C, symBinAddr: 0x1000ED894, symSize: 0xB8 }
  - { offset: 0x4EBE3, size: 0x8, addend: 0x0, symName: __ZNSt3__13getB8ne210108ILm1EJPKcNS_6vectorINS_12basic_stringIcNS_11char_traitsIcEENS_9allocatorIcEEEENS7_IS9_EEEES2_S2_EEERKNS_13tuple_elementIXT_ENS_5tupleIJDpT0_EEEE4typeERKSG_, symObjAddr: 0xEC32C, symBinAddr: 0x1000ED954, symSize: 0xC8 }
  - { offset: 0x4EC34, size: 0x8, addend: 0x0, symName: __ZNSt3__13getB8ne210108ILm2EJPKcNS_6vectorINS_12basic_stringIcNS_11char_traitsIcEENS_9allocatorIcEEEENS7_IS9_EEEES2_S2_EEERKNS_13tuple_elementIXT_ENS_5tupleIJDpT0_EEEE4typeERKSG_, symObjAddr: 0xEC3FC, symBinAddr: 0x1000EDA24, symSize: 0xC8 }
  - { offset: 0x4EC85, size: 0x8, addend: 0x0, symName: __ZNSt3__13getB8ne210108ILm3EJPKcNS_6vectorINS_12basic_stringIcNS_11char_traitsIcEENS_9allocatorIcEEEENS7_IS9_EEEES2_S2_EEERKNS_13tuple_elementIXT_ENS_5tupleIJDpT0_EEEE4typeERKSG_, symObjAddr: 0xEC5B4, symBinAddr: 0x1000EDBDC, symSize: 0xC8 }
  - { offset: 0x4ECD6, size: 0x8, addend: 0x0, symName: __ZNSt3__130__uninitialized_allocator_copyB8ne210108INS_9allocatorINS_5tupleIJNS_12basic_stringIcNS_11char_traitsIcEENS1_IcEEEENS_6vectorIS7_NS1_IS7_EEEES7_S7_EEEEEPKSB_SE_PSB_EET2_RT_T0_T1_SG_, symObjAddr: 0xED3E4, symBinAddr: 0x1000EEA0C, symSize: 0x278 }
  - { offset: 0x4ED7C, size: 0x8, addend: 0x0, symName: __ZNSt3__114__unwrap_rangeB8ne210108IPKNS_5tupleIJNS_12basic_stringIcNS_11char_traitsIcEENS_9allocatorIcEEEENS_6vectorIS7_NS5_IS7_EEEES7_S7_EEESD_EEDaT_T0_, symObjAddr: 0xED664, symBinAddr: 0x1000EEC8C, symSize: 0x3C }
  - { offset: 0x4EDFE, size: 0x8, addend: 0x0, symName: __ZNSt3__113__unwrap_iterB8ne210108IPKNS_5tupleIJNS_12basic_stringIcNS_11char_traitsIcEENS_9allocatorIcEEEENS_6vectorIS7_NS5_IS7_EEEES7_S7_EEENS_18__unwrap_iter_implISD_Lb1EEETnNS_9enable_ifIXsr21is_copy_constructibleIT_EE5valueEiE4typeELi0EEEDTclsrT0_8__unwrapclsr3stdE7declvalISH_EEEESH_, symObjAddr: 0xED8F8, symBinAddr: 0x1000EEF20, symSize: 0x24 }
  - { offset: 0x4EE8B, size: 0x8, addend: 0x0, symName: '__ZNSt3__110make_tupleB8ne210108IJN7testing8internal10ValueArrayIJNS_5tupleIJPKcNS_6vectorINS_12basic_stringIcNS_11char_traitsIcEENS_9allocatorIcEEEENSB_ISD_EEEESD_S6_EEENS4_IJS6_SF_S6_S6_EEESH_SH_SH_SH_SH_SG_SH_EEEZN12_GLOBAL__N_151gtest_CaesarDec_CustomDictCommand_EvalGenerateName_ERKNS1_13TestParamInfoINS4_IJSD_SF_SD_SD_EEEEEE3$_0EEENS4_IJDpNS_18__unwrap_referenceIu7__decayIT_EE4typeEEEEDpOSR_', symObjAddr: 0xEE078, symBinAddr: 0x1000EF6A0, symSize: 0xC8 }
  - { offset: 0x4F308, size: 0x8, addend: 0x0, symName: __ZNSt3__13getB8ne210108ILm3EJNS_12basic_stringIcNS_11char_traitsIcEENS_9allocatorIcEEEENS_6vectorIS6_NS4_IS6_EEEES6_S6_EEERNS_13tuple_elementIXT_ENS_5tupleIJDpT0_EEEE4typeERSE_, symObjAddr: 0xEFBF4, symBinAddr: 0x1000F121C, symSize: 0xC8 }
  - { offset: 0x4F35B, size: 0x8, addend: 0x0, symName: __ZNSt3__112__to_addressB8ne210108INS_10shared_ptrIN7testing8internal26ParameterizedTestSuiteInfoIN12_GLOBAL__N_129CaesarDec_FullDictMainCommandEE8TestInfoEEEEEPT_SB_, symObjAddr: 0xF231C, symBinAddr: 0x1000F3944, symSize: 0x14 }
  - { offset: 0x4F391, size: 0x8, addend: 0x0, symName: __ZNSt3__131__annotate_contiguous_containerB8ne210108INS_9allocatorINS_10shared_ptrIN7testing8internal26ParameterizedTestSuiteInfoIN12_GLOBAL__N_129CaesarDec_FullDictMainCommandEE8TestInfoEEEEEEEvPKvSD_SD_SD_, symObjAddr: 0xF2C5C, symBinAddr: 0x1000F4284, symSize: 0x4C }
  - { offset: 0x4F3EC, size: 0x8, addend: 0x0, symName: __ZNSt3__114__construct_atB8ne210108INS_10shared_ptrIN7testing8internal26ParameterizedTestSuiteInfoIN12_GLOBAL__N_129CaesarDec_FullDictMainCommandEE8TestInfoEEEJPS8_EPS9_EEPT_SD_DpOT0_, symObjAddr: 0xF2DD0, symBinAddr: 0x1000F43F8, symSize: 0x6C }
  - { offset: 0x4F43F, size: 0x8, addend: 0x0, symName: __ZNSt3__112construct_atB8ne210108INS_10shared_ptrIN7testing8internal26ParameterizedTestSuiteInfoIN12_GLOBAL__N_129CaesarDec_FullDictMainCommandEE8TestInfoEEEJPS8_EPS9_EEPT_SD_DpOT0_, symObjAddr: 0xF2E44, symBinAddr: 0x1000F446C, symSize: 0xE4 }
  - { offset: 0x4F741, size: 0x8, addend: 0x0, symName: __ZNSt3__119__libcpp_deallocateB8ne210108INS_20__shared_ptr_pointerIPN7testing8internal26ParameterizedTestSuiteInfoIN12_GLOBAL__N_129CaesarDec_FullDictMainCommandEE8TestInfoENS_10shared_ptrIS8_E27__shared_ptr_default_deleteIS8_S8_EENS_9allocatorIS8_EEEEEEvPNS_15__type_identityIT_E4typeENS_15__element_countEm, symObjAddr: 0xF4590, symBinAddr: 0x1000F5BB8, symSize: 0x74 }
  - { offset: 0x4F79C, size: 0x8, addend: 0x0, symName: __ZNSt3__119__allocate_at_leastB8ne210108INS_9allocatorINS_10shared_ptrIN7testing8internal26ParameterizedTestSuiteInfoIN12_GLOBAL__N_129CaesarDec_FullDictMainCommandEE8TestInfoEEEEEEENS_19__allocation_resultINS_16allocator_traitsIT_E7pointerEEERSE_m, symObjAddr: 0xF61B4, symBinAddr: 0x1000F77DC, symSize: 0x40 }
  - { offset: 0x4F7DF, size: 0x8, addend: 0x0, symName: __ZNSt3__117__libcpp_allocateB8ne210108INS_10shared_ptrIN7testing8internal26ParameterizedTestSuiteInfoIN12_GLOBAL__N_129CaesarDec_FullDictMainCommandEE8TestInfoEEEEEPT_NS_15__element_countEm, symObjAddr: 0xF62B0, symBinAddr: 0x1000F78D8, symSize: 0xB0 }
  - { offset: 0x4F831, size: 0x8, addend: 0x0, symName: __ZNSt3__134__uninitialized_allocator_relocateB8ne210108INS_9allocatorINS_10shared_ptrIN7testing8internal26ParameterizedTestSuiteInfoIN12_GLOBAL__N_129CaesarDec_FullDictMainCommandEE8TestInfoEEEEEPSA_EEvRT_T0_SF_SF_, symObjAddr: 0xF6568, symBinAddr: 0x1000F7B90, symSize: 0x8C }
  - { offset: 0x4F89A, size: 0x8, addend: 0x0, symName: __ZNSt3__14swapB8ne210108IPNS_10shared_ptrIN7testing8internal26ParameterizedTestSuiteInfoIN12_GLOBAL__N_129CaesarDec_FullDictMainCommandEE8TestInfoEEEEENS_9enable_ifIXaasr21is_move_constructibleIT_EE5valuesr18is_move_assignableISC_EE5valueEvE4typeERSC_SF_, symObjAddr: 0xF65FC, symBinAddr: 0x1000F7C24, symSize: 0x190 }
  - { offset: 0x4F8EC, size: 0x8, addend: 0x0, symName: __ZNSt3__112__destroy_atB8ne210108INS_10shared_ptrIN7testing8internal26ParameterizedTestSuiteInfoIN12_GLOBAL__N_129CaesarDec_FullDictMainCommandEE8TestInfoEEETnNS_9enable_ifIXntsr8is_arrayIT_EE5valueEiE4typeELi0EEEvPSB_, symObjAddr: 0xF6F9C, symBinAddr: 0x1000F85C4, symSize: 0x5C }
  - { offset: 0x4F925, size: 0x8, addend: 0x0, symName: __ZNSt3__119__libcpp_deallocateB8ne210108INS_10shared_ptrIN7testing8internal26ParameterizedTestSuiteInfoIN12_GLOBAL__N_129CaesarDec_FullDictMainCommandEE8TestInfoEEEEEvPNS_15__type_identityIT_E4typeENS_15__element_countEm, symObjAddr: 0xF71E4, symBinAddr: 0x1000F880C, symSize: 0x74 }
  - { offset: 0x4F980, size: 0x8, addend: 0x0, symName: __ZNSt3__13getB8ne210108ILm0EJNS_12basic_stringIcNS_11char_traitsIcEENS_9allocatorIcEEEES6_S6_EEERKNS_13tuple_elementIXT_ENS_5tupleIJDpT0_EEEE4typeERKSB_, symObjAddr: 0xFA5F8, symBinAddr: 0x1000FBC20, symSize: 0xB8 }
  - { offset: 0x4F9CD, size: 0x8, addend: 0x0, symName: __ZNSt3__13getB8ne210108ILm1EJNS_12basic_stringIcNS_11char_traitsIcEENS_9allocatorIcEEEES6_S6_EEERKNS_13tuple_elementIXT_ENS_5tupleIJDpT0_EEEE4typeERKSB_, symObjAddr: 0xFA6B8, symBinAddr: 0x1000FBCE0, symSize: 0xC8 }
  - { offset: 0x4FA1A, size: 0x8, addend: 0x0, symName: __ZNSt3__110make_tupleB8ne210108IJRA6_KcS3_RA17_S1_EEENS_5tupleIJDpNS_18__unwrap_referenceIu7__decayIT_EE4typeEEEEDpOS8_, symObjAddr: 0xFAE18, symBinAddr: 0x1000FC440, symSize: 0x270 }
  - { offset: 0x4FA7E, size: 0x8, addend: 0x0, symName: __ZNSt3__110make_tupleB8ne210108IJRA7_KcRA14_S1_RA18_S1_EEENS_5tupleIJDpNS_18__unwrap_referenceIu7__decayIT_EE4typeEEEEDpOSA_, symObjAddr: 0xFB090, symBinAddr: 0x1000FC6B8, symSize: 0x270 }
  - { offset: 0x4FAE2, size: 0x8, addend: 0x0, symName: __ZNSt3__110make_tupleB8ne210108IJRA7_KcRA14_S1_RA23_S1_EEENS_5tupleIJDpNS_18__unwrap_referenceIu7__decayIT_EE4typeEEEEDpOSA_, symObjAddr: 0xFB308, symBinAddr: 0x1000FC930, symSize: 0x270 }
  - { offset: 0x4FB46, size: 0x8, addend: 0x0, symName: __ZNSt3__110make_tupleB8ne210108IJRA36_KcS3_RA13_S1_EEENS_5tupleIJDpNS_18__unwrap_referenceIu7__decayIT_EE4typeEEEEDpOS8_, symObjAddr: 0xFB580, symBinAddr: 0x1000FCBA8, symSize: 0x270 }
  - { offset: 0x4FBAA, size: 0x8, addend: 0x0, symName: __ZNSt3__110make_tupleB8ne210108IJRA8_KcRKNS_12basic_stringIcNS_11char_traitsIcEENS_9allocatorIcEEEES3_EEENS_5tupleIJDpNS_18__unwrap_referenceIu7__decayIT_EE4typeEEEEDpOSE_, symObjAddr: 0xFB7F8, symBinAddr: 0x1000FCE20, symSize: 0x288 }
  - { offset: 0x500AE, size: 0x8, addend: 0x0, symName: __ZNSt3__18distanceB8ne210108INS_11__wrap_iterIPKNS_5tupleIJNS_12basic_stringIcNS_11char_traitsIcEENS_9allocatorIcEEEES8_S8_EEEEEEENS_15iterator_traitsIT_E15difference_typeESE_SE_, symObjAddr: 0xFEDD8, symBinAddr: 0x100100400, symSize: 0x5C }
  - { offset: 0x500F1, size: 0x8, addend: 0x0, symName: __ZNSt3__110__distanceB8ne210108INS_11__wrap_iterIPKNS_5tupleIJNS_12basic_stringIcNS_11char_traitsIcEENS_9allocatorIcEEEES8_S8_EEEEEEENS_15iterator_traitsIT_E15difference_typeESE_SE_NS_26random_access_iterator_tagE, symObjAddr: 0xFF2A8, symBinAddr: 0x1001008D0, symSize: 0x1E0 }
  - { offset: 0x50148, size: 0x8, addend: 0x0, symName: __ZNSt3__1miB8ne210108IPKNS_5tupleIJNS_12basic_stringIcNS_11char_traitsIcEENS_9allocatorIcEEEES7_S7_EEESA_EEDTmicldtfp_4baseEcldtfp0_4baseEERKNS_11__wrap_iterIT_EERKNSC_IT0_EE, symObjAddr: 0xFF490, symBinAddr: 0x100100AB8, symSize: 0x94 }
  - { offset: 0x50194, size: 0x8, addend: 0x0, symName: __ZNSt3__122__make_exception_guardB8ne210108INS_6vectorINS_5tupleIJNS_12basic_stringIcNS_11char_traitsIcEENS_9allocatorIcEEEES8_S8_EEENS6_IS9_EEE16__destroy_vectorEEENS_28__exception_guard_exceptionsIT_EESE_, symObjAddr: 0xFF5C8, symBinAddr: 0x100100BF0, symSize: 0x74 }
  - { offset: 0x501C9, size: 0x8, addend: 0x0, symName: __ZNSt3__119__allocate_at_leastB8ne210108INS_9allocatorINS_5tupleIJNS_12basic_stringIcNS_11char_traitsIcEENS1_IcEEEES7_S7_EEEEEEENS_19__allocation_resultINS_16allocator_traitsIT_E7pointerEEERSC_m, symObjAddr: 0x1005D0, symBinAddr: 0x100101BF8, symSize: 0x40 }
  - { offset: 0x5020C, size: 0x8, addend: 0x0, symName: __ZNSt3__117__libcpp_allocateB8ne210108INS_5tupleIJNS_12basic_stringIcNS_11char_traitsIcEENS_9allocatorIcEEEES7_S7_EEEEEPT_NS_15__element_countEm, symObjAddr: 0x100928, symBinAddr: 0x100101F50, symSize: 0xB4 }
  - { offset: 0x5025E, size: 0x8, addend: 0x0, symName: __ZNSt3__131__annotate_contiguous_containerB8ne210108INS_9allocatorINS_5tupleIJNS_12basic_stringIcNS_11char_traitsIcEENS1_IcEEEES7_S7_EEEEEEEvPKvSB_SB_SB_, symObjAddr: 0x100CF0, symBinAddr: 0x100102318, symSize: 0x4C }
  - { offset: 0x502BA, size: 0x8, addend: 0x0, symName: __ZNSt3__112__to_addressB8ne210108INS_5tupleIJNS_12basic_stringIcNS_11char_traitsIcEENS_9allocatorIcEEEES7_S7_EEEEEPT_SA_, symObjAddr: 0x100D44, symBinAddr: 0x10010236C, symSize: 0x14 }
  - { offset: 0x502EF, size: 0x8, addend: 0x0, symName: __ZNSt3__130__uninitialized_allocator_copyB8ne210108INS_9allocatorINS_5tupleIJNS_12basic_stringIcNS_11char_traitsIcEENS1_IcEEEES7_S7_EEEEENS_11__wrap_iterIPKS8_EESD_PS8_EET2_RT_T0_T1_SF_, symObjAddr: 0x100DD4, symBinAddr: 0x1001023FC, symSize: 0x2C4 }
  - { offset: 0x50395, size: 0x8, addend: 0x0, symName: __ZNSt3__114__unwrap_rangeB8ne210108INS_11__wrap_iterIPKNS_5tupleIJNS_12basic_stringIcNS_11char_traitsIcEENS_9allocatorIcEEEES8_S8_EEEEESC_EEDaT_T0_, symObjAddr: 0x101800, symBinAddr: 0x100102E28, symSize: 0x6C }
  - { offset: 0x503E1, size: 0x8, addend: 0x0, symName: __ZNSt3__135__uninitialized_allocator_copy_implB8ne210108INS_9allocatorINS_5tupleIJNS_12basic_stringIcNS_11char_traitsIcEENS1_IcEEEES7_S7_EEEEEPKS8_SB_PS8_EET2_RT_T0_T1_SD_, symObjAddr: 0x101874, symBinAddr: 0x100102E9C, symSize: 0x520 }
  - { offset: 0x5048D, size: 0x8, addend: 0x0, symName: __ZNSt3__113__unwrap_iterB8ne210108IPNS_5tupleIJNS_12basic_stringIcNS_11char_traitsIcEENS_9allocatorIcEEEES7_S7_EEENS_18__unwrap_iter_implIS9_Lb1EEETnNS_9enable_ifIXsr21is_copy_constructibleIT_EE5valueEiE4typeELi0EEEDTclsrT0_8__unwrapclsr3stdE7declvalISD_EEEESD_, symObjAddr: 0x101D9C, symBinAddr: 0x1001033C4, symSize: 0x24 }
  - { offset: 0x504D2, size: 0x8, addend: 0x0, symName: __ZNSt3__113__rewrap_iterB8ne210108IPNS_5tupleIJNS_12basic_stringIcNS_11char_traitsIcEENS_9allocatorIcEEEES7_S7_EEES9_NS_18__unwrap_iter_implIS9_Lb1EEEEET_SC_T0_, symObjAddr: 0x101DC8, symBinAddr: 0x1001033F0, symSize: 0x48 }
  - { offset: 0x50628, size: 0x8, addend: 0x0, symName: __ZNSt3__113__unwrap_iterB8ne210108INS_11__wrap_iterIPKNS_5tupleIJNS_12basic_stringIcNS_11char_traitsIcEENS_9allocatorIcEEEES8_S8_EEEEENS_18__unwrap_iter_implISC_Lb1EEETnNS_9enable_ifIXsr21is_copy_constructibleIT_EE5valueEiE4typeELi0EEEDTclsrT0_8__unwrapclsr3stdE7declvalISG_EEEESG_, symObjAddr: 0x1020A4, symBinAddr: 0x1001036CC, symSize: 0x34 }
  - { offset: 0x50735, size: 0x8, addend: 0x0, symName: __ZNSt3__112__to_addressB8ne210108INS_11__wrap_iterIPKNS_5tupleIJNS_12basic_stringIcNS_11char_traitsIcEENS_9allocatorIcEEEES8_S8_EEEEETnNS_9enable_ifIXsr4_AndINS_8is_classIT_EENS_15_IsFancyPointerISF_EEEE5valueEiE4typeELi0EEEu7__decayIDTclsr19__to_address_helperISF_EE6__callclsr3stdE7declvalIRKSF_EEEEESM_, symObjAddr: 0x1022FC, symBinAddr: 0x100103924, symSize: 0x5C }
  - { offset: 0x5079C, size: 0x8, addend: 0x0, symName: __ZNSt3__112__to_addressB8ne210108IKNS_5tupleIJNS_12basic_stringIcNS_11char_traitsIcEENS_9allocatorIcEEEES7_S7_EEEEEPT_SB_, symObjAddr: 0x102548, symBinAddr: 0x100103B70, symSize: 0x14 }
  - { offset: 0x507D1, size: 0x8, addend: 0x0, symName: __ZNSt3__122__make_exception_guardB8ne210108INS_29_AllocatorDestroyRangeReverseINS_9allocatorINS_5tupleIJNS_12basic_stringIcNS_11char_traitsIcEENS2_IcEEEES8_S8_EEEEEPS9_EEEENS_28__exception_guard_exceptionsIT_EESE_, symObjAddr: 0x10273C, symBinAddr: 0x100103D64, symSize: 0x204 }
  - { offset: 0x50808, size: 0x8, addend: 0x0, symName: __ZNSt3__114__construct_atB8ne210108INS_5tupleIJNS_12basic_stringIcNS_11char_traitsIcEENS_9allocatorIcEEEES7_S7_EEEJRKS8_EPS8_EEPT_SD_DpOT0_, symObjAddr: 0x102E7C, symBinAddr: 0x1001044A4, symSize: 0x6C }
  - { offset: 0x5085B, size: 0x8, addend: 0x0, symName: __ZNSt3__112construct_atB8ne210108INS_5tupleIJNS_12basic_stringIcNS_11char_traitsIcEENS_9allocatorIcEEEES7_S7_EEEJRKS8_EPS8_EEPT_SD_DpOT0_, symObjAddr: 0x102EF0, symBinAddr: 0x100104518, symSize: 0xA0 }
  - { offset: 0x508AF, size: 0x8, addend: 0x0, symName: __ZNSt3__119__allocator_destroyB8ne210108INS_9allocatorINS_5tupleIJNS_12basic_stringIcNS_11char_traitsIcEENS1_IcEEEES7_S7_EEEEENS_16reverse_iteratorIPS8_EESC_EEvRT_T0_T1_, symObjAddr: 0x10342C, symBinAddr: 0x100104A54, symSize: 0x244 }
  - { offset: 0x50917, size: 0x8, addend: 0x0, symName: __ZNSt3__1neB8ne210108IPNS_5tupleIJNS_12basic_stringIcNS_11char_traitsIcEENS_9allocatorIcEEEES7_S7_EEES9_EEbRKNS_16reverse_iteratorIT_EERKNSA_IT0_EEQrqXnecldtfp_4baseEcldtfp0_4baseERNS_14convertible_toIbEEE, symObjAddr: 0x1036E4, symBinAddr: 0x100104D0C, symSize: 0x90 }
  - { offset: 0x50964, size: 0x8, addend: 0x0, symName: __ZNSt3__112__destroy_atB8ne210108INS_5tupleIJNS_12basic_stringIcNS_11char_traitsIcEENS_9allocatorIcEEEES7_S7_EEETnNS_9enable_ifIXntsr8is_arrayIT_EE5valueEiE4typeELi0EEEvPSA_, symObjAddr: 0x103B1C, symBinAddr: 0x100105144, symSize: 0x5C }
  - { offset: 0x509E5, size: 0x8, addend: 0x0, symName: __ZNSt3__119__libcpp_deallocateB8ne210108INS_5tupleIJNS_12basic_stringIcNS_11char_traitsIcEENS_9allocatorIcEEEES7_S7_EEEEEvPNS_15__type_identityIT_E4typeENS_15__element_countEm, symObjAddr: 0x104CEC, symBinAddr: 0x100106314, symSize: 0x78 }
  - { offset: 0x50A40, size: 0x8, addend: 0x0, symName: __ZNSt3__1eqB8ne210108IPKNS_5tupleIJNS_12basic_stringIcNS_11char_traitsIcEENS_9allocatorIcEEEES7_S7_EEEEEbRKNS_11__wrap_iterIT_EESF_, symObjAddr: 0x106780, symBinAddr: 0x100107DA8, symSize: 0x90 }
  - { offset: 0x50D2E, size: 0x8, addend: 0x0, symName: __ZNSt3__119__libcpp_deallocateB8ne210108INS_20__shared_ptr_pointerIPN7testing8internal23ParamGeneratorInterfaceINS_5tupleIJNS_12basic_stringIcNS_11char_traitsIcEENS_9allocatorIcEEEESB_SB_EEEEENS_10shared_ptrIKSD_E27__shared_ptr_default_deleteISG_SD_EENS9_ISD_EEEEEEvPNS_15__type_identityIT_E4typeENS_15__element_countEm, symObjAddr: 0x107EB4, symBinAddr: 0x1001094DC, symSize: 0x74 }
  - { offset: 0x50D89, size: 0x8, addend: 0x0, symName: __ZNSt3__13getB8ne210108ILm0EJPKcS2_S2_EEERKNS_13tuple_elementIXT_ENS_5tupleIJDpT0_EEEE4typeERKS7_, symObjAddr: 0x108D84, symBinAddr: 0x10010A3AC, symSize: 0xB8 }
  - { offset: 0x50DD5, size: 0x8, addend: 0x0, symName: __ZNSt3__13getB8ne210108ILm1EJPKcS2_S2_EEERKNS_13tuple_elementIXT_ENS_5tupleIJDpT0_EEEE4typeERKS7_, symObjAddr: 0x108E44, symBinAddr: 0x10010A46C, symSize: 0xC8 }
  - { offset: 0x50E21, size: 0x8, addend: 0x0, symName: __ZNSt3__13getB8ne210108ILm2EJPKcS2_S2_EEERKNS_13tuple_elementIXT_ENS_5tupleIJDpT0_EEEE4typeERKS7_, symObjAddr: 0x108F14, symBinAddr: 0x10010A53C, symSize: 0xC8 }
  - { offset: 0x50E6D, size: 0x8, addend: 0x0, symName: __ZNSt3__13getB8ne210108ILm0EJPKcNS_12basic_stringIcNS_11char_traitsIcEENS_9allocatorIcEEEES2_EEERKNS_13tuple_elementIXT_ENS_5tupleIJDpT0_EEEE4typeERKSD_, symObjAddr: 0x1093E0, symBinAddr: 0x10010AA08, symSize: 0xB8 }
  - { offset: 0x50EB9, size: 0x8, addend: 0x0, symName: __ZNSt3__13getB8ne210108ILm1EJPKcNS_12basic_stringIcNS_11char_traitsIcEENS_9allocatorIcEEEES2_EEERKNS_13tuple_elementIXT_ENS_5tupleIJDpT0_EEEE4typeERKSD_, symObjAddr: 0x1094A0, symBinAddr: 0x10010AAC8, symSize: 0xC8 }
  - { offset: 0x50F05, size: 0x8, addend: 0x0, symName: __ZNSt3__13getB8ne210108ILm2EJPKcNS_12basic_stringIcNS_11char_traitsIcEENS_9allocatorIcEEEES2_EEERKNS_13tuple_elementIXT_ENS_5tupleIJDpT0_EEEE4typeERKSD_, symObjAddr: 0x109570, symBinAddr: 0x10010AB98, symSize: 0xC8 }
  - { offset: 0x50F51, size: 0x8, addend: 0x0, symName: __ZNSt3__130__uninitialized_allocator_copyB8ne210108INS_9allocatorINS_5tupleIJNS_12basic_stringIcNS_11char_traitsIcEENS1_IcEEEES7_S7_EEEEEPKS8_SB_PS8_EET2_RT_T0_T1_SD_, symObjAddr: 0x10A314, symBinAddr: 0x10010B93C, symSize: 0x278 }
  - { offset: 0x50FF7, size: 0x8, addend: 0x0, symName: __ZNSt3__114__unwrap_rangeB8ne210108IPKNS_5tupleIJNS_12basic_stringIcNS_11char_traitsIcEENS_9allocatorIcEEEES7_S7_EEESA_EEDaT_T0_, symObjAddr: 0x10A594, symBinAddr: 0x10010BBBC, symSize: 0x3C }
  - { offset: 0x51079, size: 0x8, addend: 0x0, symName: __ZNSt3__113__unwrap_iterB8ne210108IPKNS_5tupleIJNS_12basic_stringIcNS_11char_traitsIcEENS_9allocatorIcEEEES7_S7_EEENS_18__unwrap_iter_implISA_Lb1EEETnNS_9enable_ifIXsr21is_copy_constructibleIT_EE5valueEiE4typeELi0EEEDTclsrT0_8__unwrapclsr3stdE7declvalISE_EEEESE_, symObjAddr: 0x10A828, symBinAddr: 0x10010BE50, symSize: 0x24 }
  - { offset: 0x51106, size: 0x8, addend: 0x0, symName: '__ZNSt3__110make_tupleB8ne210108IJN7testing8internal10ValueArrayIJNS_5tupleIJPKcS6_S6_EEES7_S7_S7_NS4_IJS6_NS_12basic_stringIcNS_11char_traitsIcEENS_9allocatorIcEEEES6_EEEEEEZN12_GLOBAL__N_153gtest_CaesarDec_FullDictMainCommand_EvalGenerateName_ERKNS1_13TestParamInfoINS4_IJSD_SD_SD_EEEEEE3$_0EEENS4_IJDpNS_18__unwrap_referenceIu7__decayIT_EE4typeEEEEDpOSO_', symObjAddr: 0x10AE10, symBinAddr: 0x10010C438, symSize: 0xC8 }
  - { offset: 0x51580, size: 0x8, addend: 0x0, symName: __ZNSt3__13getB8ne210108ILm2EJNS_12basic_stringIcNS_11char_traitsIcEENS_9allocatorIcEEEES6_S6_EEERNS_13tuple_elementIXT_ENS_5tupleIJDpT0_EEEE4typeERSB_, symObjAddr: 0x10BE30, symBinAddr: 0x10010D458, symSize: 0xC8 }
  - { offset: 0x515CD, size: 0x8, addend: 0x0, symName: __ZNSt3__1eqB8ne210108ERKNS_19__hash_map_iteratorINS_15__hash_iteratorIPNS_11__hash_nodeINS_17__hash_value_typeINS_12basic_stringIcNS_11char_traitsIcEENS_9allocatorIcEEEEmEEPvEEEEEESH_, symObjAddr: 0x10C270, symBinAddr: 0x10010D898, symSize: 0x9C }
  - { offset: 0x5160A, size: 0x8, addend: 0x0, symName: __ZNSt3__116__constrain_hashB8ne210108Emm, symObjAddr: 0x10DB40, symBinAddr: 0x10010F168, symSize: 0xCC }
  - { offset: 0x51644, size: 0x8, addend: 0x0, symName: __ZNSt3__116__do_string_hashB8ne210108IPKcEEmT_S3_, symObjAddr: 0x10E764, symBinAddr: 0x10010FD8C, symSize: 0x38 }
  - { offset: 0x516BE, size: 0x8, addend: 0x0, symName: __ZNSt3__1eqB8ne210108ERKNS_15__hash_iteratorIPNS_11__hash_nodeINS_17__hash_value_typeINS_12basic_stringIcNS_11char_traitsIcEENS_9allocatorIcEEEEmEEPvEEEESF_, symObjAddr: 0x10E9AC, symBinAddr: 0x10010FFD4, symSize: 0xF8 }
  - { offset: 0x51730, size: 0x8, addend: 0x0, symName: __ZNSt3__112__to_addressB8ne210108IN7testing8internal26ParameterizedTestSuiteInfoIN12_GLOBAL__N_115CaesarDec_CleanEE17InstantiationInfoEEEPT_S9_, symObjAddr: 0x11277C, symBinAddr: 0x100113DA4, symSize: 0x14 }
  - { offset: 0x51766, size: 0x8, addend: 0x0, symName: __ZNSt3__112__destroy_atB8ne210108IN7testing8internal26ParameterizedTestSuiteInfoIN12_GLOBAL__N_115CaesarDec_CleanEE17InstantiationInfoETnNS_9enable_ifIXntsr8is_arrayIT_EE5valueEiE4typeELi0EEEvPS9_, symObjAddr: 0x112798, symBinAddr: 0x100113DC0, symSize: 0x5C }
  - { offset: 0x5179F, size: 0x8, addend: 0x0, symName: __ZNSt3__131__annotate_contiguous_containerB8ne210108INS_9allocatorIN7testing8internal26ParameterizedTestSuiteInfoIN12_GLOBAL__N_115CaesarDec_CleanEE17InstantiationInfoEEEEEvPKvSB_SB_SB_, symObjAddr: 0x112AB0, symBinAddr: 0x1001140D8, symSize: 0x4C }
  - { offset: 0x517FB, size: 0x8, addend: 0x0, symName: __ZNSt3__119__libcpp_deallocateB8ne210108IN7testing8internal26ParameterizedTestSuiteInfoIN12_GLOBAL__N_115CaesarDec_CleanEE17InstantiationInfoEEEvPNS_15__type_identityIT_E4typeENS_15__element_countEm, symObjAddr: 0x112B5C, symBinAddr: 0x100114184, symSize: 0x78 }
  - { offset: 0x51856, size: 0x8, addend: 0x0, symName: __ZNSt3__1eqB8ne210108IPNS_10shared_ptrIN7testing8internal26ParameterizedTestSuiteInfoIN12_GLOBAL__N_115CaesarDec_CleanEE8TestInfoEEEEEbRKNS_11__wrap_iterIT_EESF_, symObjAddr: 0x113710, symBinAddr: 0x100114D38, symSize: 0x90 }
  - { offset: 0x51899, size: 0x8, addend: 0x0, symName: __ZNSt3__1eqB8ne210108IPN7testing8internal26ParameterizedTestSuiteInfoIN12_GLOBAL__N_115CaesarDec_CleanEE17InstantiationInfoEEEbRKNS_11__wrap_iterIT_EESD_, symObjAddr: 0x1139E8, symBinAddr: 0x100115010, symSize: 0x90 }
  - { offset: 0x518DC, size: 0x8, addend: 0x0, symName: __ZNSt3__1plB8ne210108IcNS_11char_traitsIcEENS_9allocatorIcEEEENS_12basic_stringIT_T0_T1_EERKS9_PKS6_, symObjAddr: 0x113B54, symBinAddr: 0x10011517C, symSize: 0x274 }
  - { offset: 0x5264F, size: 0x8, addend: 0x0, symName: __ZNSt3__121__concatenate_stringsB8ne210108IcNS_11char_traitsIcEENS_9allocatorIcEEEENS_12basic_stringIT_T0_T1_EERKS8_NS_15__type_identityINS_17basic_string_viewIS6_S7_EEE4typeESG_, symObjAddr: 0x116CC4, symBinAddr: 0x1001182EC, symSize: 0x578 }
  - { offset: 0x526EC, size: 0x8, addend: 0x0, symName: __ZNSt3__117__libcpp_allocateB8ne210108IcEEPT_NS_15__element_countEm, symObjAddr: 0x118004, symBinAddr: 0x10011962C, symSize: 0xB0 }
  - { offset: 0x5273D, size: 0x8, addend: 0x0, symName: __ZNSt3__119__constexpr_memmoveB8ne210108IcKcEEPT_S3_PT0_NS_15__element_countE, symObjAddr: 0x1180BC, symBinAddr: 0x1001196E4, symSize: 0x60 }
  - { offset: 0x527A5, size: 0x8, addend: 0x0, symName: __ZNSt3__128__char_traits_length_checkedB8ne210108INS_11char_traitsIcEEEEmPKNT_9char_typeE, symObjAddr: 0x118390, symBinAddr: 0x1001199B8, symSize: 0x24 }
  - { offset: 0x52811, size: 0x8, addend: 0x0, symName: __ZNSt3__1ltB8ne210108ENS_15strong_orderingENS_20_CmpUnspecifiedParamE, symObjAddr: 0x119FF4, symBinAddr: 0x10011B61C, symSize: 0x20 }
  - { offset: 0x52848, size: 0x8, addend: 0x0, symName: __ZNSt3__1ssB8ne210108IcNS_11char_traitsIcEENS_9allocatorIcEEEEDaRKNS_12basic_stringIT_T0_T1_EESB_, symObjAddr: 0x11A01C, symBinAddr: 0x10011B644, symSize: 0xAC }
  - { offset: 0x528A0, size: 0x8, addend: 0x0, symName: __ZNSt3__1ssB8ne210108IcNS_11char_traitsIcEEEEDaNS_17basic_string_viewIT_T0_EENS_13type_identityIS6_E4typeE, symObjAddr: 0x11A0D0, symBinAddr: 0x10011B6F8, symSize: 0x1F4 }
  - { offset: 0x5291D, size: 0x8, addend: 0x0, symName: __ZNSt3__117__libcpp_allocateB8ne210108INS_11__tree_nodeINS_12basic_stringIcNS_11char_traitsIcEENS_9allocatorIcEEEEPvEEEEPT_NS_15__element_countEm, symObjAddr: 0x11CFB0, symBinAddr: 0x10011E5D8, symSize: 0xB4 }
  - { offset: 0x5296E, size: 0x8, addend: 0x0, symName: __ZNSt3__114__construct_atB8ne210108INS_12basic_stringIcNS_11char_traitsIcEENS_9allocatorIcEEEEJS6_EPS6_EEPT_S9_DpOT0_, symObjAddr: 0x11D3D8, symBinAddr: 0x10011EA00, symSize: 0x6C }
  - { offset: 0x529C1, size: 0x8, addend: 0x0, symName: __ZNSt3__112construct_atB8ne210108INS_12basic_stringIcNS_11char_traitsIcEENS_9allocatorIcEEEEJS6_EPS6_EEPT_S9_DpOT0_, symObjAddr: 0x11D44C, symBinAddr: 0x10011EA74, symSize: 0xA0 }
  - { offset: 0x52A14, size: 0x8, addend: 0x0, symName: __ZNSt3__127__tree_balance_after_insertB8ne210108IPNS_16__tree_node_baseIPvEEEEvT_S5_, symObjAddr: 0x11D4F4, symBinAddr: 0x10011EB1C, symSize: 0x145C }
  - { offset: 0x52A88, size: 0x8, addend: 0x0, symName: __ZNSt3__120__tree_is_left_childB8ne210108IPNS_16__tree_node_baseIPvEEEEbT_, symObjAddr: 0x11EACC, symBinAddr: 0x1001200F4, symSize: 0x19C }
  - { offset: 0x52ABE, size: 0x8, addend: 0x0, symName: __ZNSt3__118__tree_left_rotateB8ne210108IPNS_16__tree_node_baseIPvEEEEvT_, symObjAddr: 0x11EC70, symBinAddr: 0x100120298, symSize: 0x958 }
  - { offset: 0x52AFE, size: 0x8, addend: 0x0, symName: __ZNSt3__119__tree_right_rotateB8ne210108IPNS_16__tree_node_baseIPvEEEEvT_, symObjAddr: 0x11F5D0, symBinAddr: 0x100120BF8, symSize: 0x980 }
  - { offset: 0x52B3E, size: 0x8, addend: 0x0, symName: __ZNSt3__119__libcpp_deallocateB8ne210108INS_11__tree_nodeINS_12basic_stringIcNS_11char_traitsIcEENS_9allocatorIcEEEEPvEEEEvPNS_15__type_identityIT_E4typeENS_15__element_countEm, symObjAddr: 0x12052C, symBinAddr: 0x100121B54, symSize: 0x78 }
  - { offset: 0x52B9A, size: 0x8, addend: 0x0, symName: __ZNSt3__116__is_hash_power2B8ne210108Em, symObjAddr: 0x123DB0, symBinAddr: 0x1001253D8, symSize: 0x4C }
  - { offset: 0x52BCC, size: 0x8, addend: 0x0, symName: __ZNSt3__16__math4ceilB8ne210108Ef, symObjAddr: 0x123E04, symBinAddr: 0x10012542C, symSize: 0x18 }
  - { offset: 0x52C86, size: 0x8, addend: 0x0, symName: __ZNSt3__114__construct_atB8ne210108INS_11__hash_nodeINS_17__hash_value_typeINS_12basic_stringIcNS_11char_traitsIcEENS_9allocatorIcEEEEmEEPvEEJDnRmEPSB_EEPT_SF_DpOT0_, symObjAddr: 0x124454, symBinAddr: 0x100125A7C, symSize: 0xAC }
  - { offset: 0x52CEC, size: 0x8, addend: 0x0, symName: __ZNSt3__117__libcpp_allocateB8ne210108INS_11__hash_nodeINS_17__hash_value_typeINS_12basic_stringIcNS_11char_traitsIcEENS_9allocatorIcEEEEmEEPvEEEEPT_NS_15__element_countEm, symObjAddr: 0x124898, symBinAddr: 0x100125EC0, symSize: 0xB4 }
  - { offset: 0x52D3D, size: 0x8, addend: 0x0, symName: __ZNSt3__112construct_atB8ne210108INS_11__hash_nodeINS_17__hash_value_typeINS_12basic_stringIcNS_11char_traitsIcEENS_9allocatorIcEEEEmEEPvEEJDnRmEPSB_EEPT_SF_DpOT0_, symObjAddr: 0x124CC0, symBinAddr: 0x1001262E8, symSize: 0xEC }
  - { offset: 0x52DA3, size: 0x8, addend: 0x0, symName: __ZNSt3__114__construct_atB8ne210108INS_4pairIKNS_12basic_stringIcNS_11char_traitsIcEENS_9allocatorIcEEEEmEEJS7_mEPS9_EEPT_SC_DpOT0_, symObjAddr: 0x124FF0, symBinAddr: 0x100126618, symSize: 0xAC }
  - { offset: 0x52E09, size: 0x8, addend: 0x0, symName: __ZNSt3__112construct_atB8ne210108INS_4pairIKNS_12basic_stringIcNS_11char_traitsIcEENS_9allocatorIcEEEEmEEJS7_mEPS9_EEPT_SC_DpOT0_, symObjAddr: 0x1250A4, symBinAddr: 0x1001266CC, symSize: 0xE0 }
  - { offset: 0x52E6F, size: 0x8, addend: 0x0, symName: __ZNSt3__116__next_hash_pow2B8ne210108Em, symObjAddr: 0x1267F4, symBinAddr: 0x100127E1C, symSize: 0xC8 }
  - { offset: 0x52E9C, size: 0x8, addend: 0x0, symName: __ZNSt3__119__libcpp_deallocateB8ne210108IPNS_16__hash_node_baseIPNS_11__hash_nodeINS_17__hash_value_typeINS_12basic_stringIcNS_11char_traitsIcEENS_9allocatorIcEEEEmEEPvEEEEEEvPNS_15__type_identityIT_E4typeENS_15__element_countEm, symObjAddr: 0x126DF8, symBinAddr: 0x100128420, symSize: 0x74 }
  - { offset: 0x52EF7, size: 0x8, addend: 0x0, symName: __ZNSt3__117__libcpp_allocateB8ne210108IPNS_16__hash_node_baseIPNS_11__hash_nodeINS_17__hash_value_typeINS_12basic_stringIcNS_11char_traitsIcEENS_9allocatorIcEEEEmEEPvEEEEEEPT_NS_15__element_countEm, symObjAddr: 0x126F84, symBinAddr: 0x1001285AC, symSize: 0xB0 }
  - { offset: 0x52F49, size: 0x8, addend: 0x0, symName: __ZNSt3__113__countl_zeroB8ne210108ImEEiT_, symObjAddr: 0x12703C, symBinAddr: 0x100128664, symSize: 0x28 }
  - { offset: 0x52F7F, size: 0x8, addend: 0x0, symName: __ZNSt3__112__destroy_atB8ne210108INS_11__hash_nodeINS_17__hash_value_typeINS_12basic_stringIcNS_11char_traitsIcEENS_9allocatorIcEEEEmEEPvEETnNS_9enable_ifIXntsr8is_arrayIT_EE5valueEiE4typeELi0EEEvPSD_, symObjAddr: 0x127518, symBinAddr: 0x100128B40, symSize: 0x5C }
  - { offset: 0x52FB8, size: 0x8, addend: 0x0, symName: __ZNSt3__112__destroy_atB8ne210108INS_4pairIKNS_12basic_stringIcNS_11char_traitsIcEENS_9allocatorIcEEEEmEETnNS_9enable_ifIXntsr8is_arrayIT_EE5valueEiE4typeELi0EEEvPSB_, symObjAddr: 0x1275B8, symBinAddr: 0x100128BE0, symSize: 0x5C }
  - { offset: 0x52FF1, size: 0x8, addend: 0x0, symName: __ZNSt3__119__libcpp_deallocateB8ne210108INS_11__hash_nodeINS_17__hash_value_typeINS_12basic_stringIcNS_11char_traitsIcEENS_9allocatorIcEEEEmEEPvEEEEvPNS_15__type_identityIT_E4typeENS_15__element_countEm, symObjAddr: 0x1277FC, symBinAddr: 0x100128E24, symSize: 0x78 }
  - { offset: 0x5304D, size: 0x8, addend: 0x0, symName: __ZNSt3__112__to_addressB8ne210108IPN7testing8internal30ParameterizedTestSuiteInfoBaseEEEPT_S6_, symObjAddr: 0x1288DC, symBinAddr: 0x100129F04, symSize: 0x14 }
  - { offset: 0x53083, size: 0x8, addend: 0x0, symName: __ZNSt3__131__annotate_contiguous_containerB8ne210108INS_9allocatorIPN7testing8internal30ParameterizedTestSuiteInfoBaseEEEEEvPKvS8_S8_S8_, symObjAddr: 0x12913C, symBinAddr: 0x10012A764, symSize: 0x4C }
  - { offset: 0x530DE, size: 0x8, addend: 0x0, symName: __ZNSt3__114__construct_atB8ne210108IPN7testing8internal30ParameterizedTestSuiteInfoBaseEJS4_EPS4_EEPT_S7_DpOT0_, symObjAddr: 0x1292B0, symBinAddr: 0x10012A8D8, symSize: 0x6C }
  - { offset: 0x53131, size: 0x8, addend: 0x0, symName: __ZNSt3__112construct_atB8ne210108IPN7testing8internal30ParameterizedTestSuiteInfoBaseEJS4_EPS4_EEPT_S7_DpOT0_, symObjAddr: 0x129324, symBinAddr: 0x10012A94C, symSize: 0x118 }
  - { offset: 0x53184, size: 0x8, addend: 0x0, symName: __ZNSt3__119__allocate_at_leastB8ne210108INS_9allocatorIPN7testing8internal30ParameterizedTestSuiteInfoBaseEEEEENS_19__allocation_resultINS_16allocator_traitsIT_E7pointerEEERS9_m, symObjAddr: 0x12ADF4, symBinAddr: 0x10012C41C, symSize: 0x40 }
  - { offset: 0x531C7, size: 0x8, addend: 0x0, symName: __ZNSt3__117__libcpp_allocateB8ne210108IPN7testing8internal30ParameterizedTestSuiteInfoBaseEEEPT_NS_15__element_countEm, symObjAddr: 0x12AEF0, symBinAddr: 0x10012C518, symSize: 0xB0 }
  - { offset: 0x53218, size: 0x8, addend: 0x0, symName: __ZNSt3__134__uninitialized_allocator_relocateB8ne210108INS_9allocatorIPN7testing8internal30ParameterizedTestSuiteInfoBaseEEEPS5_EEvRT_T0_SA_SA_, symObjAddr: 0x12B1A8, symBinAddr: 0x10012C7D0, symSize: 0x8C }
  - { offset: 0x53281, size: 0x8, addend: 0x0, symName: __ZNSt3__14swapB8ne210108IPPN7testing8internal30ParameterizedTestSuiteInfoBaseEEENS_9enable_ifIXaasr21is_move_constructibleIT_EE5valuesr18is_move_assignableIS7_EE5valueEvE4typeERS7_SA_, symObjAddr: 0x12B23C, symBinAddr: 0x10012C864, symSize: 0x190 }
  - { offset: 0x532D3, size: 0x8, addend: 0x0, symName: __ZNSt3__112__destroy_atB8ne210108IPN7testing8internal30ParameterizedTestSuiteInfoBaseETnNS_9enable_ifIXntsr8is_arrayIT_EE5valueEiE4typeELi0EEEvPS6_, symObjAddr: 0x12BBDC, symBinAddr: 0x10012D204, symSize: 0x10 }
  - { offset: 0x5330C, size: 0x8, addend: 0x0, symName: __ZNSt3__119__libcpp_deallocateB8ne210108IPN7testing8internal30ParameterizedTestSuiteInfoBaseEEEvPNS_15__type_identityIT_E4typeENS_15__element_countEm, symObjAddr: 0x12BC4C, symBinAddr: 0x10012D274, symSize: 0x74 }
  - { offset: 0x53367, size: 0x8, addend: 0x0, symName: __ZNSt3__114__construct_atB8ne210108IN7testing8internal26ParameterizedTestSuiteInfoIN12_GLOBAL__N_115CaesarDec_CleanEE17InstantiationInfoEJNS_12basic_stringIcNS_11char_traitsIcEENS_9allocatorIcEEEERPFNS2_14ParamGeneratorINS_5tupleIJSD_SD_EEEEEvERPFSD_RKNS1_13TestParamInfoISG_EEERPKcRiEPS7_EEPT_SY_DpOT0_, symObjAddr: 0x12D568, symBinAddr: 0x10012EB90, symSize: 0x16C }
  - { offset: 0x53406, size: 0x8, addend: 0x0, symName: __ZNSt3__112construct_atB8ne210108IN7testing8internal26ParameterizedTestSuiteInfoIN12_GLOBAL__N_115CaesarDec_CleanEE17InstantiationInfoEJNS_12basic_stringIcNS_11char_traitsIcEENS_9allocatorIcEEEERPFNS2_14ParamGeneratorINS_5tupleIJSD_SD_EEEEEvERPFSD_RKNS1_13TestParamInfoISG_EEERPKcRiEPS7_EEPT_SY_DpOT0_, symObjAddr: 0x12D6DC, symBinAddr: 0x10012ED04, symSize: 0x4E8 }
  - { offset: 0x534AB, size: 0x8, addend: 0x0, symName: __ZNSt3__119__allocate_at_leastB8ne210108INS_9allocatorIN7testing8internal26ParameterizedTestSuiteInfoIN12_GLOBAL__N_115CaesarDec_CleanEE17InstantiationInfoEEEEENS_19__allocation_resultINS_16allocator_traitsIT_E7pointerEEERSC_m, symObjAddr: 0x12F61C, symBinAddr: 0x100130C44, symSize: 0x40 }
  - { offset: 0x534EE, size: 0x8, addend: 0x0, symName: __ZNSt3__117__libcpp_allocateB8ne210108IN7testing8internal26ParameterizedTestSuiteInfoIN12_GLOBAL__N_115CaesarDec_CleanEE17InstantiationInfoEEEPT_NS_15__element_countEm, symObjAddr: 0x12F718, symBinAddr: 0x100130D40, symSize: 0xB4 }
  - { offset: 0x53540, size: 0x8, addend: 0x0, symName: __ZNSt3__134__uninitialized_allocator_relocateB8ne210108INS_9allocatorIN7testing8internal26ParameterizedTestSuiteInfoIN12_GLOBAL__N_115CaesarDec_CleanEE17InstantiationInfoEEEPS8_EEvRT_T0_SD_SD_, symObjAddr: 0x12F7D4, symBinAddr: 0x100130DFC, symSize: 0x550 }
  - { offset: 0x535EC, size: 0x8, addend: 0x0, symName: __ZNSt3__14swapB8ne210108IPN7testing8internal26ParameterizedTestSuiteInfoIN12_GLOBAL__N_115CaesarDec_CleanEE17InstantiationInfoEEENS_9enable_ifIXaasr21is_move_constructibleIT_EE5valuesr18is_move_assignableISA_EE5valueEvE4typeERSA_SD_, symObjAddr: 0x12FD2C, symBinAddr: 0x100131354, symSize: 0x190 }
  - { offset: 0x5363D, size: 0x8, addend: 0x0, symName: __ZNSt3__122__make_exception_guardB8ne210108INS_29_AllocatorDestroyRangeReverseINS_9allocatorIN7testing8internal26ParameterizedTestSuiteInfoIN12_GLOBAL__N_115CaesarDec_CleanEE17InstantiationInfoEEEPS9_EEEENS_28__exception_guard_exceptionsIT_EESE_, symObjAddr: 0x1300C4, symBinAddr: 0x1001316EC, symSize: 0x204 }
  - { offset: 0x53675, size: 0x8, addend: 0x0, symName: __ZNSt3__119__allocator_destroyB8ne210108INS_9allocatorIN7testing8internal26ParameterizedTestSuiteInfoIN12_GLOBAL__N_115CaesarDec_CleanEE17InstantiationInfoEEEPS8_SA_EEvRT_T0_T1_, symObjAddr: 0x130488, symBinAddr: 0x100131AB0, symSize: 0xEC }
  - { offset: 0x536D4, size: 0x8, addend: 0x0, symName: __ZNSt3__114__construct_atB8ne210108IN7testing8internal26ParameterizedTestSuiteInfoIN12_GLOBAL__N_115CaesarDec_CleanEE17InstantiationInfoEJS7_EPS7_EEPT_SA_DpOT0_, symObjAddr: 0x1308F8, symBinAddr: 0x100131F20, symSize: 0x6C }
  - { offset: 0x53727, size: 0x8, addend: 0x0, symName: __ZNSt3__112construct_atB8ne210108IN7testing8internal26ParameterizedTestSuiteInfoIN12_GLOBAL__N_115CaesarDec_CleanEE17InstantiationInfoEJS7_EPS7_EEPT_SA_DpOT0_, symObjAddr: 0x13096C, symBinAddr: 0x100131F94, symSize: 0xA0 }
  - { offset: 0x5377B, size: 0x8, addend: 0x0, symName: __ZNSt3__119__allocator_destroyB8ne210108INS_9allocatorIN7testing8internal26ParameterizedTestSuiteInfoIN12_GLOBAL__N_115CaesarDec_CleanEE17InstantiationInfoEEENS_16reverse_iteratorIPS8_EESC_EEvRT_T0_T1_, symObjAddr: 0x131004, symBinAddr: 0x10013262C, symSize: 0x244 }
  - { offset: 0x537E3, size: 0x8, addend: 0x0, symName: __ZNSt3__1neB8ne210108IPN7testing8internal26ParameterizedTestSuiteInfoIN12_GLOBAL__N_115CaesarDec_CleanEE17InstantiationInfoES8_EEbRKNS_16reverse_iteratorIT_EERKNS9_IT0_EEQrqXnecldtfp_4baseEcldtfp0_4baseERNS_14convertible_toIbEEE, symObjAddr: 0x1312BC, symBinAddr: 0x1001328E4, symSize: 0x90 }
  - { offset: 0x53830, size: 0x8, addend: 0x0, symName: __ZNSt3__112__to_addressB8ne210108IN7testing8internal26ParameterizedTestSuiteInfoIN12_GLOBAL__N_121CaesarDec_SplitSpacesEE17InstantiationInfoEEEPT_S9_, symObjAddr: 0x135B54, symBinAddr: 0x10013717C, symSize: 0x14 }
  - { offset: 0x53866, size: 0x8, addend: 0x0, symName: __ZNSt3__112__destroy_atB8ne210108IN7testing8internal26ParameterizedTestSuiteInfoIN12_GLOBAL__N_121CaesarDec_SplitSpacesEE17InstantiationInfoETnNS_9enable_ifIXntsr8is_arrayIT_EE5valueEiE4typeELi0EEEvPS9_, symObjAddr: 0x135B70, symBinAddr: 0x100137198, symSize: 0x5C }
  - { offset: 0x5389F, size: 0x8, addend: 0x0, symName: __ZNSt3__131__annotate_contiguous_containerB8ne210108INS_9allocatorIN7testing8internal26ParameterizedTestSuiteInfoIN12_GLOBAL__N_121CaesarDec_SplitSpacesEE17InstantiationInfoEEEEEvPKvSB_SB_SB_, symObjAddr: 0x135E88, symBinAddr: 0x1001374B0, symSize: 0x4C }
  - { offset: 0x538FB, size: 0x8, addend: 0x0, symName: __ZNSt3__119__libcpp_deallocateB8ne210108IN7testing8internal26ParameterizedTestSuiteInfoIN12_GLOBAL__N_121CaesarDec_SplitSpacesEE17InstantiationInfoEEEvPNS_15__type_identityIT_E4typeENS_15__element_countEm, symObjAddr: 0x135F34, symBinAddr: 0x10013755C, symSize: 0x78 }
  - { offset: 0x53956, size: 0x8, addend: 0x0, symName: __ZNSt3__1eqB8ne210108IPNS_10shared_ptrIN7testing8internal26ParameterizedTestSuiteInfoIN12_GLOBAL__N_121CaesarDec_SplitSpacesEE8TestInfoEEEEEbRKNS_11__wrap_iterIT_EESF_, symObjAddr: 0x136AE8, symBinAddr: 0x100138110, symSize: 0x90 }
  - { offset: 0x53999, size: 0x8, addend: 0x0, symName: __ZNSt3__1eqB8ne210108IPN7testing8internal26ParameterizedTestSuiteInfoIN12_GLOBAL__N_121CaesarDec_SplitSpacesEE17InstantiationInfoEEEbRKNS_11__wrap_iterIT_EESD_, symObjAddr: 0x136DC0, symBinAddr: 0x1001383E8, symSize: 0x90 }
  - { offset: 0x539DC, size: 0x8, addend: 0x0, symName: __ZNSt3__114__construct_atB8ne210108IN7testing8internal26ParameterizedTestSuiteInfoIN12_GLOBAL__N_121CaesarDec_SplitSpacesEE17InstantiationInfoEJNS_12basic_stringIcNS_11char_traitsIcEENS_9allocatorIcEEEERPFNS2_14ParamGeneratorINS_5tupleIJSD_NS_6vectorISD_NSB_ISD_EEEEEEEEEvERPFSD_RKNS1_13TestParamInfoISJ_EEERPKcRiEPS7_EEPT_S11_DpOT0_, symObjAddr: 0x13C0A4, symBinAddr: 0x10013D6CC, symSize: 0x16C }
  - { offset: 0x53A7B, size: 0x8, addend: 0x0, symName: __ZNSt3__112construct_atB8ne210108IN7testing8internal26ParameterizedTestSuiteInfoIN12_GLOBAL__N_121CaesarDec_SplitSpacesEE17InstantiationInfoEJNS_12basic_stringIcNS_11char_traitsIcEENS_9allocatorIcEEEERPFNS2_14ParamGeneratorINS_5tupleIJSD_NS_6vectorISD_NSB_ISD_EEEEEEEEEvERPFSD_RKNS1_13TestParamInfoISJ_EEERPKcRiEPS7_EEPT_S11_DpOT0_, symObjAddr: 0x13C218, symBinAddr: 0x10013D840, symSize: 0x4E8 }
  - { offset: 0x53B20, size: 0x8, addend: 0x0, symName: __ZNSt3__119__allocate_at_leastB8ne210108INS_9allocatorIN7testing8internal26ParameterizedTestSuiteInfoIN12_GLOBAL__N_121CaesarDec_SplitSpacesEE17InstantiationInfoEEEEENS_19__allocation_resultINS_16allocator_traitsIT_E7pointerEEERSC_m, symObjAddr: 0x13E158, symBinAddr: 0x10013F780, symSize: 0x40 }
  - { offset: 0x53B63, size: 0x8, addend: 0x0, symName: __ZNSt3__117__libcpp_allocateB8ne210108IN7testing8internal26ParameterizedTestSuiteInfoIN12_GLOBAL__N_121CaesarDec_SplitSpacesEE17InstantiationInfoEEEPT_NS_15__element_countEm, symObjAddr: 0x13E254, symBinAddr: 0x10013F87C, symSize: 0xB4 }
  - { offset: 0x53BB5, size: 0x8, addend: 0x0, symName: __ZNSt3__134__uninitialized_allocator_relocateB8ne210108INS_9allocatorIN7testing8internal26ParameterizedTestSuiteInfoIN12_GLOBAL__N_121CaesarDec_SplitSpacesEE17InstantiationInfoEEEPS8_EEvRT_T0_SD_SD_, symObjAddr: 0x13E310, symBinAddr: 0x10013F938, symSize: 0x550 }
  - { offset: 0x53C61, size: 0x8, addend: 0x0, symName: __ZNSt3__14swapB8ne210108IPN7testing8internal26ParameterizedTestSuiteInfoIN12_GLOBAL__N_121CaesarDec_SplitSpacesEE17InstantiationInfoEEENS_9enable_ifIXaasr21is_move_constructibleIT_EE5valuesr18is_move_assignableISA_EE5valueEvE4typeERSA_SD_, symObjAddr: 0x13E868, symBinAddr: 0x10013FE90, symSize: 0x190 }
  - { offset: 0x53CB2, size: 0x8, addend: 0x0, symName: __ZNSt3__122__make_exception_guardB8ne210108INS_29_AllocatorDestroyRangeReverseINS_9allocatorIN7testing8internal26ParameterizedTestSuiteInfoIN12_GLOBAL__N_121CaesarDec_SplitSpacesEE17InstantiationInfoEEEPS9_EEEENS_28__exception_guard_exceptionsIT_EESE_, symObjAddr: 0x13EC00, symBinAddr: 0x100140228, symSize: 0x204 }
  - { offset: 0x53CEA, size: 0x8, addend: 0x0, symName: __ZNSt3__119__allocator_destroyB8ne210108INS_9allocatorIN7testing8internal26ParameterizedTestSuiteInfoIN12_GLOBAL__N_121CaesarDec_SplitSpacesEE17InstantiationInfoEEEPS8_SA_EEvRT_T0_T1_, symObjAddr: 0x13EFC4, symBinAddr: 0x1001405EC, symSize: 0xEC }
  - { offset: 0x53D49, size: 0x8, addend: 0x0, symName: __ZNSt3__114__construct_atB8ne210108IN7testing8internal26ParameterizedTestSuiteInfoIN12_GLOBAL__N_121CaesarDec_SplitSpacesEE17InstantiationInfoEJS7_EPS7_EEPT_SA_DpOT0_, symObjAddr: 0x13F434, symBinAddr: 0x100140A5C, symSize: 0x6C }
  - { offset: 0x53D9C, size: 0x8, addend: 0x0, symName: __ZNSt3__112construct_atB8ne210108IN7testing8internal26ParameterizedTestSuiteInfoIN12_GLOBAL__N_121CaesarDec_SplitSpacesEE17InstantiationInfoEJS7_EPS7_EEPT_SA_DpOT0_, symObjAddr: 0x13F4A8, symBinAddr: 0x100140AD0, symSize: 0xA0 }
  - { offset: 0x53DF0, size: 0x8, addend: 0x0, symName: __ZNSt3__119__allocator_destroyB8ne210108INS_9allocatorIN7testing8internal26ParameterizedTestSuiteInfoIN12_GLOBAL__N_121CaesarDec_SplitSpacesEE17InstantiationInfoEEENS_16reverse_iteratorIPS8_EESC_EEvRT_T0_T1_, symObjAddr: 0x13FB40, symBinAddr: 0x100141168, symSize: 0x244 }
  - { offset: 0x53E58, size: 0x8, addend: 0x0, symName: __ZNSt3__1neB8ne210108IPN7testing8internal26ParameterizedTestSuiteInfoIN12_GLOBAL__N_121CaesarDec_SplitSpacesEE17InstantiationInfoES8_EEbRKNS_16reverse_iteratorIT_EERKNS9_IT0_EEQrqXnecldtfp_4baseEcldtfp0_4baseERNS_14convertible_toIbEEE, symObjAddr: 0x13FDF8, symBinAddr: 0x100141420, symSize: 0x90 }
  - { offset: 0x53EA5, size: 0x8, addend: 0x0, symName: __ZNSt3__112__to_addressB8ne210108IN7testing8internal26ParameterizedTestSuiteInfoIN12_GLOBAL__N_124CaesarDec_JoinWithSpacesEE17InstantiationInfoEEEPT_S9_, symObjAddr: 0x144690, symBinAddr: 0x100145CB8, symSize: 0x14 }
  - { offset: 0x53EDB, size: 0x8, addend: 0x0, symName: __ZNSt3__112__destroy_atB8ne210108IN7testing8internal26ParameterizedTestSuiteInfoIN12_GLOBAL__N_124CaesarDec_JoinWithSpacesEE17InstantiationInfoETnNS_9enable_ifIXntsr8is_arrayIT_EE5valueEiE4typeELi0EEEvPS9_, symObjAddr: 0x1446AC, symBinAddr: 0x100145CD4, symSize: 0x5C }
  - { offset: 0x53F14, size: 0x8, addend: 0x0, symName: __ZNSt3__131__annotate_contiguous_containerB8ne210108INS_9allocatorIN7testing8internal26ParameterizedTestSuiteInfoIN12_GLOBAL__N_124CaesarDec_JoinWithSpacesEE17InstantiationInfoEEEEEvPKvSB_SB_SB_, symObjAddr: 0x1449C4, symBinAddr: 0x100145FEC, symSize: 0x4C }
  - { offset: 0x53F70, size: 0x8, addend: 0x0, symName: __ZNSt3__119__libcpp_deallocateB8ne210108IN7testing8internal26ParameterizedTestSuiteInfoIN12_GLOBAL__N_124CaesarDec_JoinWithSpacesEE17InstantiationInfoEEEvPNS_15__type_identityIT_E4typeENS_15__element_countEm, symObjAddr: 0x144A70, symBinAddr: 0x100146098, symSize: 0x78 }
  - { offset: 0x53FCB, size: 0x8, addend: 0x0, symName: __ZNSt3__1eqB8ne210108IPNS_10shared_ptrIN7testing8internal26ParameterizedTestSuiteInfoIN12_GLOBAL__N_124CaesarDec_JoinWithSpacesEE8TestInfoEEEEEbRKNS_11__wrap_iterIT_EESF_, symObjAddr: 0x145624, symBinAddr: 0x100146C4C, symSize: 0x90 }
  - { offset: 0x5400E, size: 0x8, addend: 0x0, symName: __ZNSt3__1eqB8ne210108IPN7testing8internal26ParameterizedTestSuiteInfoIN12_GLOBAL__N_124CaesarDec_JoinWithSpacesEE17InstantiationInfoEEEbRKNS_11__wrap_iterIT_EESD_, symObjAddr: 0x1458FC, symBinAddr: 0x100146F24, symSize: 0x90 }
  - { offset: 0x54051, size: 0x8, addend: 0x0, symName: __ZNSt3__114__construct_atB8ne210108IN7testing8internal26ParameterizedTestSuiteInfoIN12_GLOBAL__N_124CaesarDec_JoinWithSpacesEE17InstantiationInfoEJNS_12basic_stringIcNS_11char_traitsIcEENS_9allocatorIcEEEERPFNS2_14ParamGeneratorINS_5tupleIJNS_6vectorISD_NSB_ISD_EEEESD_EEEEEvERPFSD_RKNS1_13TestParamInfoISJ_EEERPKcRiEPS7_EEPT_S11_DpOT0_, symObjAddr: 0x14ABE0, symBinAddr: 0x10014C208, symSize: 0x16C }
  - { offset: 0x540F0, size: 0x8, addend: 0x0, symName: __ZNSt3__112construct_atB8ne210108IN7testing8internal26ParameterizedTestSuiteInfoIN12_GLOBAL__N_124CaesarDec_JoinWithSpacesEE17InstantiationInfoEJNS_12basic_stringIcNS_11char_traitsIcEENS_9allocatorIcEEEERPFNS2_14ParamGeneratorINS_5tupleIJNS_6vectorISD_NSB_ISD_EEEESD_EEEEEvERPFSD_RKNS1_13TestParamInfoISJ_EEERPKcRiEPS7_EEPT_S11_DpOT0_, symObjAddr: 0x14AD54, symBinAddr: 0x10014C37C, symSize: 0x4E8 }
  - { offset: 0x54195, size: 0x8, addend: 0x0, symName: __ZNSt3__119__allocate_at_leastB8ne210108INS_9allocatorIN7testing8internal26ParameterizedTestSuiteInfoIN12_GLOBAL__N_124CaesarDec_JoinWithSpacesEE17InstantiationInfoEEEEENS_19__allocation_resultINS_16allocator_traitsIT_E7pointerEEERSC_m, symObjAddr: 0x14CC94, symBinAddr: 0x10014E2BC, symSize: 0x40 }
  - { offset: 0x541D8, size: 0x8, addend: 0x0, symName: __ZNSt3__117__libcpp_allocateB8ne210108IN7testing8internal26ParameterizedTestSuiteInfoIN12_GLOBAL__N_124CaesarDec_JoinWithSpacesEE17InstantiationInfoEEEPT_NS_15__element_countEm, symObjAddr: 0x14CD90, symBinAddr: 0x10014E3B8, symSize: 0xB4 }
  - { offset: 0x5422A, size: 0x8, addend: 0x0, symName: __ZNSt3__134__uninitialized_allocator_relocateB8ne210108INS_9allocatorIN7testing8internal26ParameterizedTestSuiteInfoIN12_GLOBAL__N_124CaesarDec_JoinWithSpacesEE17InstantiationInfoEEEPS8_EEvRT_T0_SD_SD_, symObjAddr: 0x14CE4C, symBinAddr: 0x10014E474, symSize: 0x550 }
  - { offset: 0x542D6, size: 0x8, addend: 0x0, symName: __ZNSt3__14swapB8ne210108IPN7testing8internal26ParameterizedTestSuiteInfoIN12_GLOBAL__N_124CaesarDec_JoinWithSpacesEE17InstantiationInfoEEENS_9enable_ifIXaasr21is_move_constructibleIT_EE5valuesr18is_move_assignableISA_EE5valueEvE4typeERSA_SD_, symObjAddr: 0x14D3A4, symBinAddr: 0x10014E9CC, symSize: 0x190 }
  - { offset: 0x54327, size: 0x8, addend: 0x0, symName: __ZNSt3__122__make_exception_guardB8ne210108INS_29_AllocatorDestroyRangeReverseINS_9allocatorIN7testing8internal26ParameterizedTestSuiteInfoIN12_GLOBAL__N_124CaesarDec_JoinWithSpacesEE17InstantiationInfoEEEPS9_EEEENS_28__exception_guard_exceptionsIT_EESE_, symObjAddr: 0x14D73C, symBinAddr: 0x10014ED64, symSize: 0x204 }
  - { offset: 0x5435F, size: 0x8, addend: 0x0, symName: __ZNSt3__119__allocator_destroyB8ne210108INS_9allocatorIN7testing8internal26ParameterizedTestSuiteInfoIN12_GLOBAL__N_124CaesarDec_JoinWithSpacesEE17InstantiationInfoEEEPS8_SA_EEvRT_T0_T1_, symObjAddr: 0x14DB00, symBinAddr: 0x10014F128, symSize: 0xEC }
  - { offset: 0x543BE, size: 0x8, addend: 0x0, symName: __ZNSt3__114__construct_atB8ne210108IN7testing8internal26ParameterizedTestSuiteInfoIN12_GLOBAL__N_124CaesarDec_JoinWithSpacesEE17InstantiationInfoEJS7_EPS7_EEPT_SA_DpOT0_, symObjAddr: 0x14DF70, symBinAddr: 0x10014F598, symSize: 0x6C }
  - { offset: 0x54411, size: 0x8, addend: 0x0, symName: __ZNSt3__112construct_atB8ne210108IN7testing8internal26ParameterizedTestSuiteInfoIN12_GLOBAL__N_124CaesarDec_JoinWithSpacesEE17InstantiationInfoEJS7_EPS7_EEPT_SA_DpOT0_, symObjAddr: 0x14DFE4, symBinAddr: 0x10014F60C, symSize: 0xA0 }
  - { offset: 0x54465, size: 0x8, addend: 0x0, symName: __ZNSt3__119__allocator_destroyB8ne210108INS_9allocatorIN7testing8internal26ParameterizedTestSuiteInfoIN12_GLOBAL__N_124CaesarDec_JoinWithSpacesEE17InstantiationInfoEEENS_16reverse_iteratorIPS8_EESC_EEvRT_T0_T1_, symObjAddr: 0x14E67C, symBinAddr: 0x10014FCA4, symSize: 0x244 }
  - { offset: 0x544CD, size: 0x8, addend: 0x0, symName: __ZNSt3__1neB8ne210108IPN7testing8internal26ParameterizedTestSuiteInfoIN12_GLOBAL__N_124CaesarDec_JoinWithSpacesEE17InstantiationInfoES8_EEbRKNS_16reverse_iteratorIT_EERKNS9_IT0_EEQrqXnecldtfp_4baseEcldtfp0_4baseERNS_14convertible_toIbEEE, symObjAddr: 0x14E934, symBinAddr: 0x10014FF5C, symSize: 0x90 }
  - { offset: 0x5451A, size: 0x8, addend: 0x0, symName: __ZNSt3__112__to_addressB8ne210108IN7testing8internal26ParameterizedTestSuiteInfoIN12_GLOBAL__N_120CaesarDec_NumWordsInEE17InstantiationInfoEEEPT_S9_, symObjAddr: 0x153174, symBinAddr: 0x10015479C, symSize: 0x14 }
  - { offset: 0x54550, size: 0x8, addend: 0x0, symName: __ZNSt3__112__destroy_atB8ne210108IN7testing8internal26ParameterizedTestSuiteInfoIN12_GLOBAL__N_120CaesarDec_NumWordsInEE17InstantiationInfoETnNS_9enable_ifIXntsr8is_arrayIT_EE5valueEiE4typeELi0EEEvPS9_, symObjAddr: 0x153190, symBinAddr: 0x1001547B8, symSize: 0x5C }
  - { offset: 0x54589, size: 0x8, addend: 0x0, symName: __ZNSt3__131__annotate_contiguous_containerB8ne210108INS_9allocatorIN7testing8internal26ParameterizedTestSuiteInfoIN12_GLOBAL__N_120CaesarDec_NumWordsInEE17InstantiationInfoEEEEEvPKvSB_SB_SB_, symObjAddr: 0x1534A8, symBinAddr: 0x100154AD0, symSize: 0x4C }
  - { offset: 0x545E5, size: 0x8, addend: 0x0, symName: __ZNSt3__119__libcpp_deallocateB8ne210108IN7testing8internal26ParameterizedTestSuiteInfoIN12_GLOBAL__N_120CaesarDec_NumWordsInEE17InstantiationInfoEEEvPNS_15__type_identityIT_E4typeENS_15__element_countEm, symObjAddr: 0x153554, symBinAddr: 0x100154B7C, symSize: 0x78 }
  - { offset: 0x54640, size: 0x8, addend: 0x0, symName: __ZNSt3__1eqB8ne210108IPNS_10shared_ptrIN7testing8internal26ParameterizedTestSuiteInfoIN12_GLOBAL__N_120CaesarDec_NumWordsInEE8TestInfoEEEEEbRKNS_11__wrap_iterIT_EESF_, symObjAddr: 0x154108, symBinAddr: 0x100155730, symSize: 0x90 }
  - { offset: 0x54683, size: 0x8, addend: 0x0, symName: __ZNSt3__1eqB8ne210108IPN7testing8internal26ParameterizedTestSuiteInfoIN12_GLOBAL__N_120CaesarDec_NumWordsInEE17InstantiationInfoEEEbRKNS_11__wrap_iterIT_EESD_, symObjAddr: 0x1543E0, symBinAddr: 0x100155A08, symSize: 0x90 }
  - { offset: 0x546C6, size: 0x8, addend: 0x0, symName: __ZNSt3__114__construct_atB8ne210108IN7testing8internal26ParameterizedTestSuiteInfoIN12_GLOBAL__N_120CaesarDec_NumWordsInEE17InstantiationInfoEJNS_12basic_stringIcNS_11char_traitsIcEENS_9allocatorIcEEEERPFNS2_14ParamGeneratorINS_5tupleIJNS_6vectorISD_NSB_ISD_EEEESI_iEEEEEvERPFSD_RKNS1_13TestParamInfoISJ_EEERPKcRiEPS7_EEPT_S11_DpOT0_, symObjAddr: 0x1597F8, symBinAddr: 0x10015AE20, symSize: 0x16C }
  - { offset: 0x54765, size: 0x8, addend: 0x0, symName: __ZNSt3__112construct_atB8ne210108IN7testing8internal26ParameterizedTestSuiteInfoIN12_GLOBAL__N_120CaesarDec_NumWordsInEE17InstantiationInfoEJNS_12basic_stringIcNS_11char_traitsIcEENS_9allocatorIcEEEERPFNS2_14ParamGeneratorINS_5tupleIJNS_6vectorISD_NSB_ISD_EEEESI_iEEEEEvERPFSD_RKNS1_13TestParamInfoISJ_EEERPKcRiEPS7_EEPT_S11_DpOT0_, symObjAddr: 0x15996C, symBinAddr: 0x10015AF94, symSize: 0x4E8 }
  - { offset: 0x5480A, size: 0x8, addend: 0x0, symName: __ZNSt3__119__allocate_at_leastB8ne210108INS_9allocatorIN7testing8internal26ParameterizedTestSuiteInfoIN12_GLOBAL__N_120CaesarDec_NumWordsInEE17InstantiationInfoEEEEENS_19__allocation_resultINS_16allocator_traitsIT_E7pointerEEERSC_m, symObjAddr: 0x15B8AC, symBinAddr: 0x10015CED4, symSize: 0x40 }
  - { offset: 0x5484D, size: 0x8, addend: 0x0, symName: __ZNSt3__117__libcpp_allocateB8ne210108IN7testing8internal26ParameterizedTestSuiteInfoIN12_GLOBAL__N_120CaesarDec_NumWordsInEE17InstantiationInfoEEEPT_NS_15__element_countEm, symObjAddr: 0x15B9A8, symBinAddr: 0x10015CFD0, symSize: 0xB4 }
  - { offset: 0x5489F, size: 0x8, addend: 0x0, symName: __ZNSt3__134__uninitialized_allocator_relocateB8ne210108INS_9allocatorIN7testing8internal26ParameterizedTestSuiteInfoIN12_GLOBAL__N_120CaesarDec_NumWordsInEE17InstantiationInfoEEEPS8_EEvRT_T0_SD_SD_, symObjAddr: 0x15BA64, symBinAddr: 0x10015D08C, symSize: 0x550 }
  - { offset: 0x5494B, size: 0x8, addend: 0x0, symName: __ZNSt3__14swapB8ne210108IPN7testing8internal26ParameterizedTestSuiteInfoIN12_GLOBAL__N_120CaesarDec_NumWordsInEE17InstantiationInfoEEENS_9enable_ifIXaasr21is_move_constructibleIT_EE5valuesr18is_move_assignableISA_EE5valueEvE4typeERSA_SD_, symObjAddr: 0x15BFBC, symBinAddr: 0x10015D5E4, symSize: 0x190 }
  - { offset: 0x5499C, size: 0x8, addend: 0x0, symName: __ZNSt3__122__make_exception_guardB8ne210108INS_29_AllocatorDestroyRangeReverseINS_9allocatorIN7testing8internal26ParameterizedTestSuiteInfoIN12_GLOBAL__N_120CaesarDec_NumWordsInEE17InstantiationInfoEEEPS9_EEEENS_28__exception_guard_exceptionsIT_EESE_, symObjAddr: 0x15C354, symBinAddr: 0x10015D97C, symSize: 0x204 }
  - { offset: 0x549D4, size: 0x8, addend: 0x0, symName: __ZNSt3__119__allocator_destroyB8ne210108INS_9allocatorIN7testing8internal26ParameterizedTestSuiteInfoIN12_GLOBAL__N_120CaesarDec_NumWordsInEE17InstantiationInfoEEEPS8_SA_EEvRT_T0_T1_, symObjAddr: 0x15C718, symBinAddr: 0x10015DD40, symSize: 0xEC }
  - { offset: 0x54A33, size: 0x8, addend: 0x0, symName: __ZNSt3__114__construct_atB8ne210108IN7testing8internal26ParameterizedTestSuiteInfoIN12_GLOBAL__N_120CaesarDec_NumWordsInEE17InstantiationInfoEJS7_EPS7_EEPT_SA_DpOT0_, symObjAddr: 0x15CB88, symBinAddr: 0x10015E1B0, symSize: 0x6C }
  - { offset: 0x54A86, size: 0x8, addend: 0x0, symName: __ZNSt3__112construct_atB8ne210108IN7testing8internal26ParameterizedTestSuiteInfoIN12_GLOBAL__N_120CaesarDec_NumWordsInEE17InstantiationInfoEJS7_EPS7_EEPT_SA_DpOT0_, symObjAddr: 0x15CBFC, symBinAddr: 0x10015E224, symSize: 0xA0 }
  - { offset: 0x54ADA, size: 0x8, addend: 0x0, symName: __ZNSt3__119__allocator_destroyB8ne210108INS_9allocatorIN7testing8internal26ParameterizedTestSuiteInfoIN12_GLOBAL__N_120CaesarDec_NumWordsInEE17InstantiationInfoEEENS_16reverse_iteratorIPS8_EESC_EEvRT_T0_T1_, symObjAddr: 0x15D294, symBinAddr: 0x10015E8BC, symSize: 0x244 }
  - { offset: 0x54B42, size: 0x8, addend: 0x0, symName: __ZNSt3__1neB8ne210108IPN7testing8internal26ParameterizedTestSuiteInfoIN12_GLOBAL__N_120CaesarDec_NumWordsInEE17InstantiationInfoES8_EEbRKNS_16reverse_iteratorIT_EERKNS9_IT0_EEQrqXnecldtfp_4baseEcldtfp0_4baseERNS_14convertible_toIbEEE, symObjAddr: 0x15D54C, symBinAddr: 0x10015EB74, symSize: 0x90 }
  - { offset: 0x54B8F, size: 0x8, addend: 0x0, symName: __ZNSt3__112__to_addressB8ne210108IN7testing8internal26ParameterizedTestSuiteInfoIN12_GLOBAL__N_127CaesarDec_CustomDictCommandEE17InstantiationInfoEEEPT_S9_, symObjAddr: 0x161DF0, symBinAddr: 0x100163418, symSize: 0x14 }
  - { offset: 0x54BC5, size: 0x8, addend: 0x0, symName: __ZNSt3__112__destroy_atB8ne210108IN7testing8internal26ParameterizedTestSuiteInfoIN12_GLOBAL__N_127CaesarDec_CustomDictCommandEE17InstantiationInfoETnNS_9enable_ifIXntsr8is_arrayIT_EE5valueEiE4typeELi0EEEvPS9_, symObjAddr: 0x161E0C, symBinAddr: 0x100163434, symSize: 0x5C }
  - { offset: 0x54BFE, size: 0x8, addend: 0x0, symName: __ZNSt3__131__annotate_contiguous_containerB8ne210108INS_9allocatorIN7testing8internal26ParameterizedTestSuiteInfoIN12_GLOBAL__N_127CaesarDec_CustomDictCommandEE17InstantiationInfoEEEEEvPKvSB_SB_SB_, symObjAddr: 0x162124, symBinAddr: 0x10016374C, symSize: 0x4C }
  - { offset: 0x54C5A, size: 0x8, addend: 0x0, symName: __ZNSt3__119__libcpp_deallocateB8ne210108IN7testing8internal26ParameterizedTestSuiteInfoIN12_GLOBAL__N_127CaesarDec_CustomDictCommandEE17InstantiationInfoEEEvPNS_15__type_identityIT_E4typeENS_15__element_countEm, symObjAddr: 0x1621D0, symBinAddr: 0x1001637F8, symSize: 0x78 }
  - { offset: 0x54CB5, size: 0x8, addend: 0x0, symName: __ZNSt3__1eqB8ne210108IPNS_10shared_ptrIN7testing8internal26ParameterizedTestSuiteInfoIN12_GLOBAL__N_127CaesarDec_CustomDictCommandEE8TestInfoEEEEEbRKNS_11__wrap_iterIT_EESF_, symObjAddr: 0x162D84, symBinAddr: 0x1001643AC, symSize: 0x90 }
  - { offset: 0x54CF8, size: 0x8, addend: 0x0, symName: __ZNSt3__1eqB8ne210108IPN7testing8internal26ParameterizedTestSuiteInfoIN12_GLOBAL__N_127CaesarDec_CustomDictCommandEE17InstantiationInfoEEEbRKNS_11__wrap_iterIT_EESD_, symObjAddr: 0x16305C, symBinAddr: 0x100164684, symSize: 0x90 }
  - { offset: 0x54D3B, size: 0x8, addend: 0x0, symName: __ZNSt3__13getB8ne210108ILm3EJNS_12basic_stringIcNS_11char_traitsIcEENS_9allocatorIcEEEENS_6vectorIS6_NS4_IS6_EEEES6_S6_EEERKNS_13tuple_elementIXT_ENS_5tupleIJDpT0_EEEE4typeERKSE_, symObjAddr: 0x16650C, symBinAddr: 0x100167B34, symSize: 0xC8 }
  - { offset: 0x54D8D, size: 0x8, addend: 0x0, symName: __ZNSt3__114__construct_atB8ne210108IN7testing8internal26ParameterizedTestSuiteInfoIN12_GLOBAL__N_127CaesarDec_CustomDictCommandEE17InstantiationInfoEJNS_12basic_stringIcNS_11char_traitsIcEENS_9allocatorIcEEEERPFNS2_14ParamGeneratorINS_5tupleIJSD_NS_6vectorISD_NSB_ISD_EEEESD_SD_EEEEEvERPFSD_RKNS1_13TestParamInfoISJ_EEERPKcRiEPS7_EEPT_S11_DpOT0_, symObjAddr: 0x168704, symBinAddr: 0x100169D2C, symSize: 0x16C }
  - { offset: 0x54E2C, size: 0x8, addend: 0x0, symName: __ZNSt3__112construct_atB8ne210108IN7testing8internal26ParameterizedTestSuiteInfoIN12_GLOBAL__N_127CaesarDec_CustomDictCommandEE17InstantiationInfoEJNS_12basic_stringIcNS_11char_traitsIcEENS_9allocatorIcEEEERPFNS2_14ParamGeneratorINS_5tupleIJSD_NS_6vectorISD_NSB_ISD_EEEESD_SD_EEEEEvERPFSD_RKNS1_13TestParamInfoISJ_EEERPKcRiEPS7_EEPT_S11_DpOT0_, symObjAddr: 0x168878, symBinAddr: 0x100169EA0, symSize: 0x4E8 }
  - { offset: 0x54ED1, size: 0x8, addend: 0x0, symName: __ZNSt3__119__allocate_at_leastB8ne210108INS_9allocatorIN7testing8internal26ParameterizedTestSuiteInfoIN12_GLOBAL__N_127CaesarDec_CustomDictCommandEE17InstantiationInfoEEEEENS_19__allocation_resultINS_16allocator_traitsIT_E7pointerEEERSC_m, symObjAddr: 0x16A7B8, symBinAddr: 0x10016BDE0, symSize: 0x40 }
  - { offset: 0x54F14, size: 0x8, addend: 0x0, symName: __ZNSt3__117__libcpp_allocateB8ne210108IN7testing8internal26ParameterizedTestSuiteInfoIN12_GLOBAL__N_127CaesarDec_CustomDictCommandEE17InstantiationInfoEEEPT_NS_15__element_countEm, symObjAddr: 0x16A8B4, symBinAddr: 0x10016BEDC, symSize: 0xB4 }
  - { offset: 0x54F66, size: 0x8, addend: 0x0, symName: __ZNSt3__134__uninitialized_allocator_relocateB8ne210108INS_9allocatorIN7testing8internal26ParameterizedTestSuiteInfoIN12_GLOBAL__N_127CaesarDec_CustomDictCommandEE17InstantiationInfoEEEPS8_EEvRT_T0_SD_SD_, symObjAddr: 0x16A970, symBinAddr: 0x10016BF98, symSize: 0x550 }
  - { offset: 0x55012, size: 0x8, addend: 0x0, symName: __ZNSt3__14swapB8ne210108IPN7testing8internal26ParameterizedTestSuiteInfoIN12_GLOBAL__N_127CaesarDec_CustomDictCommandEE17InstantiationInfoEEENS_9enable_ifIXaasr21is_move_constructibleIT_EE5valuesr18is_move_assignableISA_EE5valueEvE4typeERSA_SD_, symObjAddr: 0x16AEC8, symBinAddr: 0x10016C4F0, symSize: 0x190 }
  - { offset: 0x55063, size: 0x8, addend: 0x0, symName: __ZNSt3__122__make_exception_guardB8ne210108INS_29_AllocatorDestroyRangeReverseINS_9allocatorIN7testing8internal26ParameterizedTestSuiteInfoIN12_GLOBAL__N_127CaesarDec_CustomDictCommandEE17InstantiationInfoEEEPS9_EEEENS_28__exception_guard_exceptionsIT_EESE_, symObjAddr: 0x16B260, symBinAddr: 0x10016C888, symSize: 0x204 }
  - { offset: 0x5509B, size: 0x8, addend: 0x0, symName: __ZNSt3__119__allocator_destroyB8ne210108INS_9allocatorIN7testing8internal26ParameterizedTestSuiteInfoIN12_GLOBAL__N_127CaesarDec_CustomDictCommandEE17InstantiationInfoEEEPS8_SA_EEvRT_T0_T1_, symObjAddr: 0x16B624, symBinAddr: 0x10016CC4C, symSize: 0xEC }
  - { offset: 0x550FA, size: 0x8, addend: 0x0, symName: __ZNSt3__114__construct_atB8ne210108IN7testing8internal26ParameterizedTestSuiteInfoIN12_GLOBAL__N_127CaesarDec_CustomDictCommandEE17InstantiationInfoEJS7_EPS7_EEPT_SA_DpOT0_, symObjAddr: 0x16BA94, symBinAddr: 0x10016D0BC, symSize: 0x6C }
  - { offset: 0x5514D, size: 0x8, addend: 0x0, symName: __ZNSt3__112construct_atB8ne210108IN7testing8internal26ParameterizedTestSuiteInfoIN12_GLOBAL__N_127CaesarDec_CustomDictCommandEE17InstantiationInfoEJS7_EPS7_EEPT_SA_DpOT0_, symObjAddr: 0x16BB08, symBinAddr: 0x10016D130, symSize: 0xA0 }
  - { offset: 0x551A1, size: 0x8, addend: 0x0, symName: __ZNSt3__119__allocator_destroyB8ne210108INS_9allocatorIN7testing8internal26ParameterizedTestSuiteInfoIN12_GLOBAL__N_127CaesarDec_CustomDictCommandEE17InstantiationInfoEEENS_16reverse_iteratorIPS8_EESC_EEvRT_T0_T1_, symObjAddr: 0x16C1A0, symBinAddr: 0x10016D7C8, symSize: 0x244 }
  - { offset: 0x55209, size: 0x8, addend: 0x0, symName: __ZNSt3__1neB8ne210108IPN7testing8internal26ParameterizedTestSuiteInfoIN12_GLOBAL__N_127CaesarDec_CustomDictCommandEE17InstantiationInfoES8_EEbRKNS_16reverse_iteratorIT_EERKNS9_IT0_EEQrqXnecldtfp_4baseEcldtfp0_4baseERNS_14convertible_toIbEEE, symObjAddr: 0x16C458, symBinAddr: 0x10016DA80, symSize: 0x90 }
  - { offset: 0x55256, size: 0x8, addend: 0x0, symName: __ZNSt3__112__to_addressB8ne210108IN7testing8internal26ParameterizedTestSuiteInfoIN12_GLOBAL__N_129CaesarDec_FullDictMainCommandEE17InstantiationInfoEEEPT_S9_, symObjAddr: 0x170CC8, symBinAddr: 0x1001722F0, symSize: 0x14 }
  - { offset: 0x5528C, size: 0x8, addend: 0x0, symName: __ZNSt3__112__destroy_atB8ne210108IN7testing8internal26ParameterizedTestSuiteInfoIN12_GLOBAL__N_129CaesarDec_FullDictMainCommandEE17InstantiationInfoETnNS_9enable_ifIXntsr8is_arrayIT_EE5valueEiE4typeELi0EEEvPS9_, symObjAddr: 0x170CE4, symBinAddr: 0x10017230C, symSize: 0x5C }
  - { offset: 0x552C5, size: 0x8, addend: 0x0, symName: __ZNSt3__131__annotate_contiguous_containerB8ne210108INS_9allocatorIN7testing8internal26ParameterizedTestSuiteInfoIN12_GLOBAL__N_129CaesarDec_FullDictMainCommandEE17InstantiationInfoEEEEEvPKvSB_SB_SB_, symObjAddr: 0x170FFC, symBinAddr: 0x100172624, symSize: 0x4C }
  - { offset: 0x55321, size: 0x8, addend: 0x0, symName: __ZNSt3__119__libcpp_deallocateB8ne210108IN7testing8internal26ParameterizedTestSuiteInfoIN12_GLOBAL__N_129CaesarDec_FullDictMainCommandEE17InstantiationInfoEEEvPNS_15__type_identityIT_E4typeENS_15__element_countEm, symObjAddr: 0x1710A8, symBinAddr: 0x1001726D0, symSize: 0x78 }
  - { offset: 0x5537C, size: 0x8, addend: 0x0, symName: __ZNSt3__1eqB8ne210108IPNS_10shared_ptrIN7testing8internal26ParameterizedTestSuiteInfoIN12_GLOBAL__N_129CaesarDec_FullDictMainCommandEE8TestInfoEEEEEbRKNS_11__wrap_iterIT_EESF_, symObjAddr: 0x171C5C, symBinAddr: 0x100173284, symSize: 0x90 }
  - { offset: 0x553BF, size: 0x8, addend: 0x0, symName: __ZNSt3__1eqB8ne210108IPN7testing8internal26ParameterizedTestSuiteInfoIN12_GLOBAL__N_129CaesarDec_FullDictMainCommandEE17InstantiationInfoEEEbRKNS_11__wrap_iterIT_EESD_, symObjAddr: 0x171F34, symBinAddr: 0x10017355C, symSize: 0x90 }
  - { offset: 0x55402, size: 0x8, addend: 0x0, symName: __ZNSt3__13getB8ne210108ILm2EJNS_12basic_stringIcNS_11char_traitsIcEENS_9allocatorIcEEEES6_S6_EEERKNS_13tuple_elementIXT_ENS_5tupleIJDpT0_EEEE4typeERKSB_, symObjAddr: 0x1753E4, symBinAddr: 0x100176A0C, symSize: 0xC8 }
  - { offset: 0x5544F, size: 0x8, addend: 0x0, symName: __ZNSt3__114__construct_atB8ne210108IN7testing8internal26ParameterizedTestSuiteInfoIN12_GLOBAL__N_129CaesarDec_FullDictMainCommandEE17InstantiationInfoEJNS_12basic_stringIcNS_11char_traitsIcEENS_9allocatorIcEEEERPFNS2_14ParamGeneratorINS_5tupleIJSD_SD_SD_EEEEEvERPFSD_RKNS1_13TestParamInfoISG_EEERPKcRiEPS7_EEPT_SY_DpOT0_, symObjAddr: 0x17741C, symBinAddr: 0x100178A44, symSize: 0x16C }
  - { offset: 0x554EE, size: 0x8, addend: 0x0, symName: __ZNSt3__112construct_atB8ne210108IN7testing8internal26ParameterizedTestSuiteInfoIN12_GLOBAL__N_129CaesarDec_FullDictMainCommandEE17InstantiationInfoEJNS_12basic_stringIcNS_11char_traitsIcEENS_9allocatorIcEEEERPFNS2_14ParamGeneratorINS_5tupleIJSD_SD_SD_EEEEEvERPFSD_RKNS1_13TestParamInfoISG_EEERPKcRiEPS7_EEPT_SY_DpOT0_, symObjAddr: 0x177590, symBinAddr: 0x100178BB8, symSize: 0x4E8 }
  - { offset: 0x55593, size: 0x8, addend: 0x0, symName: __ZNSt3__119__allocate_at_leastB8ne210108INS_9allocatorIN7testing8internal26ParameterizedTestSuiteInfoIN12_GLOBAL__N_129CaesarDec_FullDictMainCommandEE17InstantiationInfoEEEEENS_19__allocation_resultINS_16allocator_traitsIT_E7pointerEEERSC_m, symObjAddr: 0x1794D0, symBinAddr: 0x10017AAF8, symSize: 0x40 }
  - { offset: 0x555D6, size: 0x8, addend: 0x0, symName: __ZNSt3__117__libcpp_allocateB8ne210108IN7testing8internal26ParameterizedTestSuiteInfoIN12_GLOBAL__N_129CaesarDec_FullDictMainCommandEE17InstantiationInfoEEEPT_NS_15__element_countEm, symObjAddr: 0x1795CC, symBinAddr: 0x10017ABF4, symSize: 0xB4 }
  - { offset: 0x55628, size: 0x8, addend: 0x0, symName: __ZNSt3__134__uninitialized_allocator_relocateB8ne210108INS_9allocatorIN7testing8internal26ParameterizedTestSuiteInfoIN12_GLOBAL__N_129CaesarDec_FullDictMainCommandEE17InstantiationInfoEEEPS8_EEvRT_T0_SD_SD_, symObjAddr: 0x179688, symBinAddr: 0x10017ACB0, symSize: 0x550 }
  - { offset: 0x556D4, size: 0x8, addend: 0x0, symName: __ZNSt3__14swapB8ne210108IPN7testing8internal26ParameterizedTestSuiteInfoIN12_GLOBAL__N_129CaesarDec_FullDictMainCommandEE17InstantiationInfoEEENS_9enable_ifIXaasr21is_move_constructibleIT_EE5valuesr18is_move_assignableISA_EE5valueEvE4typeERSA_SD_, symObjAddr: 0x179BE0, symBinAddr: 0x10017B208, symSize: 0x190 }
  - { offset: 0x55725, size: 0x8, addend: 0x0, symName: __ZNSt3__122__make_exception_guardB8ne210108INS_29_AllocatorDestroyRangeReverseINS_9allocatorIN7testing8internal26ParameterizedTestSuiteInfoIN12_GLOBAL__N_129CaesarDec_FullDictMainCommandEE17InstantiationInfoEEEPS9_EEEENS_28__exception_guard_exceptionsIT_EESE_, symObjAddr: 0x179F78, symBinAddr: 0x10017B5A0, symSize: 0x204 }
  - { offset: 0x5575D, size: 0x8, addend: 0x0, symName: __ZNSt3__119__allocator_destroyB8ne210108INS_9allocatorIN7testing8internal26ParameterizedTestSuiteInfoIN12_GLOBAL__N_129CaesarDec_FullDictMainCommandEE17InstantiationInfoEEEPS8_SA_EEvRT_T0_T1_, symObjAddr: 0x17A33C, symBinAddr: 0x10017B964, symSize: 0xEC }
  - { offset: 0x557BC, size: 0x8, addend: 0x0, symName: __ZNSt3__114__construct_atB8ne210108IN7testing8internal26ParameterizedTestSuiteInfoIN12_GLOBAL__N_129CaesarDec_FullDictMainCommandEE17InstantiationInfoEJS7_EPS7_EEPT_SA_DpOT0_, symObjAddr: 0x17A7AC, symBinAddr: 0x10017BDD4, symSize: 0x6C }
  - { offset: 0x5580F, size: 0x8, addend: 0x0, symName: __ZNSt3__112construct_atB8ne210108IN7testing8internal26ParameterizedTestSuiteInfoIN12_GLOBAL__N_129CaesarDec_FullDictMainCommandEE17InstantiationInfoEJS7_EPS7_EEPT_SA_DpOT0_, symObjAddr: 0x17A820, symBinAddr: 0x10017BE48, symSize: 0xA0 }
  - { offset: 0x55863, size: 0x8, addend: 0x0, symName: __ZNSt3__119__allocator_destroyB8ne210108INS_9allocatorIN7testing8internal26ParameterizedTestSuiteInfoIN12_GLOBAL__N_129CaesarDec_FullDictMainCommandEE17InstantiationInfoEEENS_16reverse_iteratorIPS8_EESC_EEvRT_T0_T1_, symObjAddr: 0x17AEB8, symBinAddr: 0x10017C4E0, symSize: 0x244 }
  - { offset: 0x558CB, size: 0x8, addend: 0x0, symName: __ZNSt3__1neB8ne210108IPN7testing8internal26ParameterizedTestSuiteInfoIN12_GLOBAL__N_129CaesarDec_FullDictMainCommandEE17InstantiationInfoES8_EEbRKNS_16reverse_iteratorIT_EERKNS9_IT0_EEQrqXnecldtfp_4baseEcldtfp0_4baseERNS_14convertible_toIbEEE, symObjAddr: 0x17B170, symBinAddr: 0x10017C798, symSize: 0x90 }
  - { offset: 0x5791A, size: 0x8, addend: 0x0, symName: __ZSt28__throw_bad_array_new_lengthB8ne210108v, symObjAddr: 0x323E8, symBinAddr: 0x100033A10, symSize: 0x6C }
  - { offset: 0x57E6F, size: 0x8, addend: 0x0, symName: _.str.4, symObjAddr: 0x185640, symBinAddr: 0x1002ACE40, symSize: 0x0 }
  - { offset: 0x57EA9, size: 0x8, addend: 0x0, symName: _.str.6, symObjAddr: 0x185660, symBinAddr: 0x1002ACE60, symSize: 0x0 }
  - { offset: 0x57FA3, size: 0x8, addend: 0x0, symName: _.str.9, symObjAddr: 0x185680, symBinAddr: 0x1002ACE80, symSize: 0x0 }
  - { offset: 0x57FC0, size: 0x8, addend: 0x0, symName: _.str.10, symObjAddr: 0x19A3E0, symBinAddr: 0x1002CF600, symSize: 0x0 }
  - { offset: 0x58144, size: 0x8, addend: 0x0, symName: _.str.13, symObjAddr: 0x1856A0, symBinAddr: 0x1002ACEA0, symSize: 0x0 }
  - { offset: 0x581E1, size: 0x8, addend: 0x0, symName: _.str.16, symObjAddr: 0x1856E0, symBinAddr: 0x1002ACEE0, symSize: 0x0 }
  - { offset: 0x5828F, size: 0x8, addend: 0x0, symName: _.str.19, symObjAddr: 0x185720, symBinAddr: 0x1002ACF20, symSize: 0x0 }
  - { offset: 0x582AC, size: 0x8, addend: 0x0, symName: _.str.21, symObjAddr: 0x185760, symBinAddr: 0x1002ACF60, symSize: 0x0 }
  - { offset: 0x58795, size: 0x8, addend: 0x0, symName: _.str.24, symObjAddr: 0x1857A0, symBinAddr: 0x1002ACFA0, symSize: 0x0 }
  - { offset: 0x587B2, size: 0x8, addend: 0x0, symName: _.str.26, symObjAddr: 0x1857E0, symBinAddr: 0x1002ACFE0, symSize: 0x0 }
  - { offset: 0x587CF, size: 0x8, addend: 0x0, symName: _.str.28, symObjAddr: 0x185840, symBinAddr: 0x1002AD040, symSize: 0x0 }
  - { offset: 0x587EC, size: 0x8, addend: 0x0, symName: _.str.29, symObjAddr: 0x1858A0, symBinAddr: 0x1002AD0A0, symSize: 0x0 }
  - { offset: 0x58879, size: 0x8, addend: 0x0, symName: _.str.32, symObjAddr: 0x1858C0, symBinAddr: 0x1002AD0C0, symSize: 0x0 }
  - { offset: 0x58896, size: 0x8, addend: 0x0, symName: __ZTVN7testing8internal15TestFactoryImplIN12_GLOBAL__N_127CaesarDec_RotVec_Empty_TestEEE, symObjAddr: 0x261260, symBinAddr: 0x1003F1F20, symSize: 0x0 }
  - { offset: 0x588B1, size: 0x8, addend: 0x0, symName: __ZTVN12_GLOBAL__N_127CaesarDec_RotVec_Empty_TestE, symObjAddr: 0x261340, symBinAddr: 0x1003F1FE0, symSize: 0x0 }
  - { offset: 0x588C6, size: 0x8, addend: 0x0, symName: _.str.35, symObjAddr: 0x1859E0, symBinAddr: 0x1002AD1E0, symSize: 0x0 }
  - { offset: 0x588D9, size: 0x8, addend: 0x0, symName: _.str.39, symObjAddr: 0x185A00, symBinAddr: 0x1002AD200, symSize: 0x0 }
  - { offset: 0x588F8, size: 0x8, addend: 0x0, symName: _.str.40, symObjAddr: 0x185A20, symBinAddr: 0x1002AD220, symSize: 0x0 }
  - { offset: 0x58917, size: 0x8, addend: 0x0, symName: _.str.41, symObjAddr: 0x185A40, symBinAddr: 0x1002AD240, symSize: 0x0 }
  - { offset: 0x5892A, size: 0x8, addend: 0x0, symName: _.str.42, symObjAddr: 0x185A60, symBinAddr: 0x1002AD260, symSize: 0x0 }
  - { offset: 0x58949, size: 0x8, addend: 0x0, symName: _.str.43, symObjAddr: 0x185B00, symBinAddr: 0x1002AD300, symSize: 0x0 }
  - { offset: 0x58966, size: 0x8, addend: 0x0, symName: __ZTVN7testing18PolymorphicMatcherINS_8internal14IsEmptyMatcherEE15MonomorphicImplIRKNSt3__16vectorINS5_12basic_stringIcNS5_11char_traitsIcEENS5_9allocatorIcEEEENSA_ISC_EEEEEE, symObjAddr: 0x2613E0, symBinAddr: 0x1003F2080, symSize: 0x0 }
  - { offset: 0x589FE, size: 0x8, addend: 0x0, symName: __ZTVN7testing16MatcherInterfaceIRKNSt3__16vectorINS1_12basic_stringIcNS1_11char_traitsIcEENS1_9allocatorIcEEEENS6_IS8_EEEEEE, symObjAddr: 0x261458, symBinAddr: 0x1003F20F8, symSize: 0x0 }
  - { offset: 0x58A13, size: 0x8, addend: 0x0, symName: __ZTVN7testing25MatcherDescriberInterfaceE, symObjAddr: 0x261490, symBinAddr: 0x1003F2130, symSize: 0x0 }
  - { offset: 0x58A28, size: 0x8, addend: 0x0, symName: _.str.44, symObjAddr: 0x185B20, symBinAddr: 0x1002AD320, symSize: 0x0 }
  - { offset: 0x58A39, size: 0x8, addend: 0x0, symName: _.str.45, symObjAddr: 0x185B40, symBinAddr: 0x1002AD340, symSize: 0x0 }
  - { offset: 0x58A4A, size: 0x8, addend: 0x0, symName: _.str.47, symObjAddr: 0x185B60, symBinAddr: 0x1002AD360, symSize: 0x0 }
  - { offset: 0x58A67, size: 0x8, addend: 0x0, symName: _.str.48, symObjAddr: 0x185B80, symBinAddr: 0x1002AD380, symSize: 0x0 }
  - { offset: 0x58A78, size: 0x8, addend: 0x0, symName: _.str.49, symObjAddr: 0x185BA0, symBinAddr: 0x1002AD3A0, symSize: 0x0 }
  - { offset: 0x58A95, size: 0x8, addend: 0x0, symName: __ZTVN7testing7MatcherIRKNSt3__16vectorINS1_12basic_stringIcNS1_11char_traitsIcEENS1_9allocatorIcEEEENS6_IS8_EEEEEE, symObjAddr: 0x2614C0, symBinAddr: 0x1003F2160, symSize: 0x0 }
  - { offset: 0x58B4A, size: 0x8, addend: 0x0, symName: __ZTVN7testing8internal11MatcherBaseIRKNSt3__16vectorINS2_12basic_stringIcNS2_11char_traitsIcEENS2_9allocatorIcEEEENS7_IS9_EEEEEE, symObjAddr: 0x261530, symBinAddr: 0x1003F21D0, symSize: 0x0 }
  - { offset: 0x58B6E, size: 0x8, addend: 0x0, symName: __ZN7testing8internal11MatcherBaseIRKNSt3__16vectorINS2_12basic_stringIcNS2_11char_traitsIcEENS2_9allocatorIcEEEENS7_IS9_EEEEE9GetVTableINSE_11ValuePolicyIPKNS_16MatcherInterfaceISD_EELb1EEEEEPKNSE_6VTableEv, symObjAddr: 0x1E1A4, symBinAddr: 0x10001F7CC, symSize: 0x5C }
  - { offset: 0x58B93, size: 0x8, addend: 0x0, symName: __ZZN7testing8internal11MatcherBaseIRKNSt3__16vectorINS2_12basic_stringIcNS2_11char_traitsIcEENS2_9allocatorIcEEEENS7_IS9_EEEEE9GetVTableINSE_11ValuePolicyIPKNS_16MatcherInterfaceISD_EELb1EEEEEPKNSE_6VTableEvE7kVTable, symObjAddr: 0x261560, symBinAddr: 0x1003F2200, symSize: 0x0 }
  - { offset: 0x58BC0, size: 0x8, addend: 0x0, symName: _.str.56, symObjAddr: 0x185BC0, symBinAddr: 0x1002AD3C0, symSize: 0x0 }
  - { offset: 0x58BDD, size: 0x8, addend: 0x0, symName: __ZTVN7testing8internal24DummyMatchResultListenerE, symObjAddr: 0x261580, symBinAddr: 0x1003F2220, symSize: 0x0 }
  - { offset: 0x58C28, size: 0x8, addend: 0x0, symName: _.str.67, symObjAddr: 0x185C20, symBinAddr: 0x1002AD420, symSize: 0x0 }
  - { offset: 0x58C39, size: 0x8, addend: 0x0, symName: _.str.69, symObjAddr: 0x185C40, symBinAddr: 0x1002AD440, symSize: 0x0 }
  - { offset: 0x58C56, size: 0x8, addend: 0x0, symName: _.str.73, symObjAddr: 0x185C60, symBinAddr: 0x1002AD460, symSize: 0x0 }
  - { offset: 0x58C75, size: 0x8, addend: 0x0, symName: _.str.75, symObjAddr: 0x185C80, symBinAddr: 0x1002AD480, symSize: 0x0 }
  - { offset: 0x58C88, size: 0x8, addend: 0x0, symName: _.str.77, symObjAddr: 0x185CA0, symBinAddr: 0x1002AD4A0, symSize: 0x0 }
  - { offset: 0x58C99, size: 0x8, addend: 0x0, symName: __ZTVN7testing8internal15TestFactoryImplIN12_GLOBAL__N_129CaesarDec_RotVec_OneElem_TestEEE, symObjAddr: 0x261640, symBinAddr: 0x1003F2280, symSize: 0x0 }
  - { offset: 0x58CB4, size: 0x8, addend: 0x0, symName: __ZTVN12_GLOBAL__N_129CaesarDec_RotVec_OneElem_TestE, symObjAddr: 0x2616E0, symBinAddr: 0x1003F2320, symSize: 0x0 }
  - { offset: 0x58CC9, size: 0x8, addend: 0x0, symName: _.str.83, symObjAddr: 0x185DA0, symBinAddr: 0x1002AD5A0, symSize: 0x0 }
  - { offset: 0x58CDA, size: 0x8, addend: 0x0, symName: _.str.84, symObjAddr: 0x185DC0, symBinAddr: 0x1002AD5C0, symSize: 0x0 }
  - { offset: 0x58CF7, size: 0x8, addend: 0x0, symName: _.str.85, symObjAddr: 0x185DE0, symBinAddr: 0x1002AD5E0, symSize: 0x0 }
  - { offset: 0x58D14, size: 0x8, addend: 0x0, symName: _.str.86, symObjAddr: 0x185E60, symBinAddr: 0x1002AD660, symSize: 0x0 }
  - { offset: 0x58D27, size: 0x8, addend: 0x0, symName: _.str.91, symObjAddr: 0x185E80, symBinAddr: 0x1002AD680, symSize: 0x0 }
  - { offset: 0x58D44, size: 0x8, addend: 0x0, symName: __ZTVN7testing7MatcherIRKPNSt3__112basic_stringIcNS1_11char_traitsIcEENS1_9allocatorIcEEEEEE, symObjAddr: 0x261780, symBinAddr: 0x1003F23C0, symSize: 0x0 }
  - { offset: 0x58DE9, size: 0x8, addend: 0x0, symName: __ZTVN7testing8internal11MatcherBaseIRKPNSt3__112basic_stringIcNS2_11char_traitsIcEENS2_9allocatorIcEEEEEE, symObjAddr: 0x2617F0, symBinAddr: 0x1003F2430, symSize: 0x0 }
  - { offset: 0x58E1E, size: 0x8, addend: 0x0, symName: __ZN7testing8internal11MatcherBaseIRKPNSt3__112basic_stringIcNS2_11char_traitsIcEENS2_9allocatorIcEEEEE9GetVTableINSC_11ValuePolicyINS0_9EqMatcherIS9_EELb1EEEEEPKNSC_6VTableEv, symObjAddr: 0x37428, symBinAddr: 0x100038A50, symSize: 0x5C }
  - { offset: 0x58E43, size: 0x8, addend: 0x0, symName: __ZZN7testing8internal11MatcherBaseIRKPNSt3__112basic_stringIcNS2_11char_traitsIcEENS2_9allocatorIcEEEEE9GetVTableINSC_11ValuePolicyINS0_9EqMatcherIS9_EELb1EEEEEPKNSC_6VTableEvE7kVTable, symObjAddr: 0x261820, symBinAddr: 0x1003F2460, symSize: 0x0 }
  - { offset: 0x58E6D, size: 0x8, addend: 0x0, symName: _.str.101, symObjAddr: 0x185EA0, symBinAddr: 0x1002AD6A0, symSize: 0x0 }
  - { offset: 0x58E80, size: 0x8, addend: 0x0, symName: _.str.102, symObjAddr: 0x185EC0, symBinAddr: 0x1002AD6C0, symSize: 0x0 }
  - { offset: 0x58E91, size: 0x8, addend: 0x0, symName: _.str.103, symObjAddr: 0x185EE0, symBinAddr: 0x1002AD6E0, symSize: 0x0 }
  - { offset: 0x58EA4, size: 0x8, addend: 0x0, symName: _.str.104, symObjAddr: 0x185F00, symBinAddr: 0x1002AD700, symSize: 0x0 }
  - { offset: 0x58EBA, size: 0x8, addend: 0x0, symName: __ZTVN7testing8internal22ElementsAreMatcherImplIRKNSt3__16vectorINS2_12basic_stringIcNS2_11char_traitsIcEENS2_9allocatorIcEEEENS7_IS9_EEEEEE, symObjAddr: 0x261870, symBinAddr: 0x1003F24B0, symSize: 0x0 }
  - { offset: 0x591CB, size: 0x8, addend: 0x0, symName: __ZTVN7testing7MatcherIRKNSt3__112basic_stringIcNS1_11char_traitsIcEENS1_9allocatorIcEEEEEE, symObjAddr: 0x2618C0, symBinAddr: 0x1003F2500, symSize: 0x0 }
  - { offset: 0x591E0, size: 0x8, addend: 0x0, symName: __ZTVN7testing8internal11MatcherBaseIRKNSt3__112basic_stringIcNS2_11char_traitsIcEENS2_9allocatorIcEEEEEE, symObjAddr: 0x261930, symBinAddr: 0x1003F2550, symSize: 0x0 }
  - { offset: 0x591F7, size: 0x8, addend: 0x0, symName: _.str.111, symObjAddr: 0x185F20, symBinAddr: 0x1002AD720, symSize: 0x0 }
  - { offset: 0x59216, size: 0x8, addend: 0x0, symName: _.str.112, symObjAddr: 0x185F60, symBinAddr: 0x1002AD760, symSize: 0x0 }
  - { offset: 0x59229, size: 0x8, addend: 0x0, symName: _.str.113, symObjAddr: 0x185F80, symBinAddr: 0x1002AD780, symSize: 0x0 }
  - { offset: 0x5923C, size: 0x8, addend: 0x0, symName: _.str.114, symObjAddr: 0x185FA0, symBinAddr: 0x1002AD7A0, symSize: 0x0 }
  - { offset: 0x5925B, size: 0x8, addend: 0x0, symName: _.str.115, symObjAddr: 0x185FC0, symBinAddr: 0x1002AD7C0, symSize: 0x0 }
  - { offset: 0x5926E, size: 0x8, addend: 0x0, symName: _.str.116, symObjAddr: 0x185FE0, symBinAddr: 0x1002AD7E0, symSize: 0x0 }
  - { offset: 0x59281, size: 0x8, addend: 0x0, symName: _.str.117, symObjAddr: 0x186000, symBinAddr: 0x1002AD800, symSize: 0x0 }
  - { offset: 0x59292, size: 0x8, addend: 0x0, symName: _.str.118, symObjAddr: 0x186020, symBinAddr: 0x1002AD820, symSize: 0x0 }
  - { offset: 0x592A5, size: 0x8, addend: 0x0, symName: _.str.119, symObjAddr: 0x186040, symBinAddr: 0x1002AD840, symSize: 0x0 }
  - { offset: 0x592B8, size: 0x8, addend: 0x0, symName: _.str.120, symObjAddr: 0x186060, symBinAddr: 0x1002AD860, symSize: 0x0 }
  - { offset: 0x592CB, size: 0x8, addend: 0x0, symName: _.str.121, symObjAddr: 0x186080, symBinAddr: 0x1002AD880, symSize: 0x0 }
  - { offset: 0x592DE, size: 0x8, addend: 0x0, symName: _.str.122, symObjAddr: 0x1860A0, symBinAddr: 0x1002AD8A0, symSize: 0x0 }
  - { offset: 0x592F1, size: 0x8, addend: 0x0, symName: _.str.123, symObjAddr: 0x1860C0, symBinAddr: 0x1002AD8C0, symSize: 0x0 }
  - { offset: 0x59304, size: 0x8, addend: 0x0, symName: _.str.124, symObjAddr: 0x1860E0, symBinAddr: 0x1002AD8E0, symSize: 0x0 }
  - { offset: 0x59317, size: 0x8, addend: 0x0, symName: _.str.125, symObjAddr: 0x186100, symBinAddr: 0x1002AD900, symSize: 0x0 }
  - { offset: 0x5932A, size: 0x8, addend: 0x0, symName: _.str.126, symObjAddr: 0x186120, symBinAddr: 0x1002AD920, symSize: 0x0 }
  - { offset: 0x5933B, size: 0x8, addend: 0x0, symName: __ZTVN7testing8internal15TestFactoryImplIN12_GLOBAL__N_135CaesarDec_RotVec_MultipleElems_TestEEE, symObjAddr: 0x261960, symBinAddr: 0x1003F2580, symSize: 0x0 }
  - { offset: 0x59356, size: 0x8, addend: 0x0, symName: __ZTVN12_GLOBAL__N_135CaesarDec_RotVec_MultipleElems_TestE, symObjAddr: 0x261A00, symBinAddr: 0x1003F2620, symSize: 0x0 }
  - { offset: 0x5936B, size: 0x8, addend: 0x0, symName: _.str.127, symObjAddr: 0x186220, symBinAddr: 0x1002ADA20, symSize: 0x0 }
  - { offset: 0x5937C, size: 0x8, addend: 0x0, symName: _.str.128, symObjAddr: 0x186240, symBinAddr: 0x1002ADA40, symSize: 0x0 }
  - { offset: 0x5938D, size: 0x8, addend: 0x0, symName: _.str.129, symObjAddr: 0x186260, symBinAddr: 0x1002ADA60, symSize: 0x0 }
  - { offset: 0x5939E, size: 0x8, addend: 0x0, symName: _.str.130, symObjAddr: 0x186280, symBinAddr: 0x1002ADA80, symSize: 0x0 }
  - { offset: 0x593AF, size: 0x8, addend: 0x0, symName: _.str.131, symObjAddr: 0x1862A0, symBinAddr: 0x1002ADAA0, symSize: 0x0 }
  - { offset: 0x593C0, size: 0x8, addend: 0x0, symName: __ZTVNSt3__120__shared_ptr_pointerIPN7testing8internal26ParameterizedTestSuiteInfoIN12_GLOBAL__N_115CaesarDec_CleanEE8TestInfoENS_10shared_ptrIS7_E27__shared_ptr_default_deleteIS7_S7_EENS_9allocatorIS7_EEEE, symObjAddr: 0x261AE0, symBinAddr: 0x1003F2700, symSize: 0x0 }
  - { offset: 0x597E8, size: 0x8, addend: 0x0, symName: __ZTVN7testing8internal15TestMetaFactoryIN12_GLOBAL__N_125CaesarDec_Clean_Case_TestEEE, symObjAddr: 0x261BE0, symBinAddr: 0x1003F2800, symSize: 0x0 }
  - { offset: 0x59814, size: 0x8, addend: 0x0, symName: __ZTVN7testing8internal19TestMetaFactoryBaseINSt3__15tupleIJNS2_12basic_stringIcNS2_11char_traitsIcEENS2_9allocatorIcEEEES9_EEEEE, symObjAddr: 0x261C90, symBinAddr: 0x1003F28B0, symSize: 0x0 }
  - { offset: 0x59829, size: 0x8, addend: 0x0, symName: __ZTVN7testing8internal24ParameterizedTestFactoryIN12_GLOBAL__N_125CaesarDec_Clean_Case_TestEEE, symObjAddr: 0x261CC0, symBinAddr: 0x1003F28E0, symSize: 0x0 }
  - { offset: 0x5985A, size: 0x8, addend: 0x0, symName: __ZTVN12_GLOBAL__N_125CaesarDec_Clean_Case_TestE, symObjAddr: 0x261D60, symBinAddr: 0x1003F2980, symSize: 0x0 }
  - { offset: 0x5986F, size: 0x8, addend: 0x0, symName: __ZTVN12_GLOBAL__N_115CaesarDec_CleanE, symObjAddr: 0x261EE0, symBinAddr: 0x1003F2AE0, symSize: 0x0 }
  - { offset: 0x59884, size: 0x8, addend: 0x0, symName: __ZTVN7testing13TestWithParamINSt3__15tupleIJNS1_12basic_stringIcNS1_11char_traitsIcEENS1_9allocatorIcEEEES8_EEEEE, symObjAddr: 0x261F60, symBinAddr: 0x1003F2B60, symSize: 0x0 }
  - { offset: 0x59899, size: 0x8, addend: 0x0, symName: __ZTVN7testing18WithParamInterfaceINSt3__15tupleIJNS1_12basic_stringIcNS1_11char_traitsIcEENS1_9allocatorIcEEEES8_EEEEE, symObjAddr: 0x261FC0, symBinAddr: 0x1003F2BC0, symSize: 0x0 }
  - { offset: 0x598AE, size: 0x8, addend: 0x0, symName: _.str.135, symObjAddr: 0x1866E0, symBinAddr: 0x1002ADEE0, symSize: 0x0 }
  - { offset: 0x598C1, size: 0x8, addend: 0x0, symName: _.str.136, symObjAddr: 0x186700, symBinAddr: 0x1002ADF00, symSize: 0x0 }
  - { offset: 0x598E0, size: 0x8, addend: 0x0, symName: _.str.137, symObjAddr: 0x186760, symBinAddr: 0x1002ADF60, symSize: 0x0 }
  - { offset: 0x598FF, size: 0x8, addend: 0x0, symName: _.str.138, symObjAddr: 0x1867E0, symBinAddr: 0x1002ADFE0, symSize: 0x0 }
  - { offset: 0x5991C, size: 0x8, addend: 0x0, symName: __ZTVN7testing18PolymorphicMatcherINS_8internal18StrEqualityMatcherINSt3__112basic_stringIcNS3_11char_traitsIcEENS3_9allocatorIcEEEEEEE15MonomorphicImplIRKS9_EE, symObjAddr: 0x261FE0, symBinAddr: 0x1003F2BE0, symSize: 0x0 }
  - { offset: 0x5997D, size: 0x8, addend: 0x0, symName: _.str.139, symObjAddr: 0x186840, symBinAddr: 0x1002AE040, symSize: 0x0 }
  - { offset: 0x5999C, size: 0x8, addend: 0x0, symName: _.str.140, symObjAddr: 0x186860, symBinAddr: 0x1002AE060, symSize: 0x0 }
  - { offset: 0x599AF, size: 0x8, addend: 0x0, symName: _.str.141, symObjAddr: 0x186880, symBinAddr: 0x1002AE080, symSize: 0x0 }
  - { offset: 0x599C2, size: 0x8, addend: 0x0, symName: _.str.142, symObjAddr: 0x1868A0, symBinAddr: 0x1002AE0A0, symSize: 0x0 }
  - { offset: 0x599DD, size: 0x8, addend: 0x0, symName: __ZN7testing8internal11MatcherBaseIRKNSt3__112basic_stringIcNS2_11char_traitsIcEENS2_9allocatorIcEEEEE9GetVTableINSB_11ValuePolicyIPKNS_16MatcherInterfaceISA_EELb1EEEEEPKNSB_6VTableEv, symObjAddr: 0x611D8, symBinAddr: 0x100062800, symSize: 0x5C }
  - { offset: 0x59A02, size: 0x8, addend: 0x0, symName: __ZZN7testing8internal11MatcherBaseIRKNSt3__112basic_stringIcNS2_11char_traitsIcEENS2_9allocatorIcEEEEE9GetVTableINSB_11ValuePolicyIPKNS_16MatcherInterfaceISA_EELb1EEEEEPKNSB_6VTableEvE7kVTable, symObjAddr: 0x262080, symBinAddr: 0x1003F2C60, symSize: 0x0 }
  - { offset: 0x59A2A, size: 0x8, addend: 0x0, symName: _.str.143, symObjAddr: 0x1868E0, symBinAddr: 0x1002AE0E0, symSize: 0x0 }
  - { offset: 0x59A3B, size: 0x8, addend: 0x0, symName: _.str.144, symObjAddr: 0x186920, symBinAddr: 0x1002AE120, symSize: 0x0 }
  - { offset: 0x59A58, size: 0x8, addend: 0x0, symName: _.str.145, symObjAddr: 0x186960, symBinAddr: 0x1002AE160, symSize: 0x0 }
  - { offset: 0x59A69, size: 0x8, addend: 0x0, symName: _.str.146, symObjAddr: 0x186980, symBinAddr: 0x1002AE180, symSize: 0x0 }
  - { offset: 0x59A7A, size: 0x8, addend: 0x0, symName: __ZTVN7testing8internal30ValuesInIteratorRangeGeneratorINSt3__15tupleIJNS2_12basic_stringIcNS2_11char_traitsIcEENS2_9allocatorIcEEEES9_EEEEE, symObjAddr: 0x2620A0, symBinAddr: 0x1003F2C80, symSize: 0x0 }
  - { offset: 0x59B4D, size: 0x8, addend: 0x0, symName: __ZTVN7testing8internal23ParamGeneratorInterfaceINSt3__15tupleIJNS2_12basic_stringIcNS2_11char_traitsIcEENS2_9allocatorIcEEEES9_EEEEE, symObjAddr: 0x2620F8, symBinAddr: 0x1003F2CD8, symSize: 0x0 }
  - { offset: 0x59B62, size: 0x8, addend: 0x0, symName: __ZTVN7testing8internal30ValuesInIteratorRangeGeneratorINSt3__15tupleIJNS2_12basic_stringIcNS2_11char_traitsIcEENS2_9allocatorIcEEEES9_EEEE8IteratorE, symObjAddr: 0x262128, symBinAddr: 0x1003F2D08, symSize: 0x0 }
  - { offset: 0x59BD2, size: 0x8, addend: 0x0, symName: __ZTVN7testing8internal22ParamIteratorInterfaceINSt3__15tupleIJNS2_12basic_stringIcNS2_11char_traitsIcEENS2_9allocatorIcEEEES9_EEEEE, symObjAddr: 0x262198, symBinAddr: 0x1003F2D78, symSize: 0x0 }
  - { offset: 0x59BE9, size: 0x8, addend: 0x0, symName: _.str.149, symObjAddr: 0x1869A0, symBinAddr: 0x1002AE1A0, symSize: 0x0 }
  - { offset: 0x59C08, size: 0x8, addend: 0x0, symName: _.str.150, symObjAddr: 0x186A00, symBinAddr: 0x1002AE200, symSize: 0x0 }
  - { offset: 0x59C27, size: 0x8, addend: 0x0, symName: _.str.151, symObjAddr: 0x186A60, symBinAddr: 0x1002AE260, symSize: 0x0 }
  - { offset: 0x59C3A, size: 0x8, addend: 0x0, symName: _.str.152, symObjAddr: 0x186AA0, symBinAddr: 0x1002AE2A0, symSize: 0x0 }
  - { offset: 0x59C57, size: 0x8, addend: 0x0, symName: __ZTVNSt3__120__shared_ptr_pointerIPN7testing8internal23ParamGeneratorInterfaceINS_5tupleIJNS_12basic_stringIcNS_11char_traitsIcEENS_9allocatorIcEEEESA_EEEEENS_10shared_ptrIKSC_E27__shared_ptr_default_deleteISF_SC_EENS8_ISC_EEEE, symObjAddr: 0x2621E0, symBinAddr: 0x1003F2DC0, symSize: 0x0 }
  - { offset: 0x59C9A, size: 0x8, addend: 0x0, symName: __ZTVNSt3__120__shared_ptr_pointerIPN7testing8internal26ParameterizedTestSuiteInfoIN12_GLOBAL__N_121CaesarDec_SplitSpacesEE8TestInfoENS_10shared_ptrIS7_E27__shared_ptr_default_deleteIS7_S7_EENS_9allocatorIS7_EEEE, symObjAddr: 0x262260, symBinAddr: 0x1003F2E40, symSize: 0x0 }
  - { offset: 0x5A060, size: 0x8, addend: 0x0, symName: __ZTVN7testing8internal15TestMetaFactoryIN12_GLOBAL__N_131CaesarDec_SplitSpaces_Case_TestEEE, symObjAddr: 0x262360, symBinAddr: 0x1003F2F40, symSize: 0x0 }
  - { offset: 0x5A08C, size: 0x8, addend: 0x0, symName: __ZTVN7testing8internal19TestMetaFactoryBaseINSt3__15tupleIJNS2_12basic_stringIcNS2_11char_traitsIcEENS2_9allocatorIcEEEENS2_6vectorIS9_NS7_IS9_EEEEEEEEE, symObjAddr: 0x262410, symBinAddr: 0x1003F2FF0, symSize: 0x0 }
  - { offset: 0x5A0A1, size: 0x8, addend: 0x0, symName: __ZTVN7testing8internal24ParameterizedTestFactoryIN12_GLOBAL__N_131CaesarDec_SplitSpaces_Case_TestEEE, symObjAddr: 0x262440, symBinAddr: 0x1003F3020, symSize: 0x0 }
  - { offset: 0x5A0D2, size: 0x8, addend: 0x0, symName: __ZTVN12_GLOBAL__N_131CaesarDec_SplitSpaces_Case_TestE, symObjAddr: 0x2624E0, symBinAddr: 0x1003F30C0, symSize: 0x0 }
  - { offset: 0x5A0E7, size: 0x8, addend: 0x0, symName: __ZTVN12_GLOBAL__N_121CaesarDec_SplitSpacesE, symObjAddr: 0x262660, symBinAddr: 0x1003F3240, symSize: 0x0 }
  - { offset: 0x5A0FC, size: 0x8, addend: 0x0, symName: __ZTVN7testing13TestWithParamINSt3__15tupleIJNS1_12basic_stringIcNS1_11char_traitsIcEENS1_9allocatorIcEEEENS1_6vectorIS8_NS6_IS8_EEEEEEEEE, symObjAddr: 0x2626E0, symBinAddr: 0x1003F32C0, symSize: 0x0 }
  - { offset: 0x5A111, size: 0x8, addend: 0x0, symName: __ZTVN7testing18WithParamInterfaceINSt3__15tupleIJNS1_12basic_stringIcNS1_11char_traitsIcEENS1_9allocatorIcEEEENS1_6vectorIS8_NS6_IS8_EEEEEEEEE, symObjAddr: 0x262740, symBinAddr: 0x1003F3320, symSize: 0x0 }
  - { offset: 0x5A126, size: 0x8, addend: 0x0, symName: _.str.153, symObjAddr: 0x186F60, symBinAddr: 0x1002AE760, symSize: 0x0 }
  - { offset: 0x5A137, size: 0x8, addend: 0x0, symName: _.str.154, symObjAddr: 0x186FA0, symBinAddr: 0x1002AE7A0, symSize: 0x0 }
  - { offset: 0x5A148, size: 0x8, addend: 0x0, symName: _.str.155, symObjAddr: 0x186FC0, symBinAddr: 0x1002AE7C0, symSize: 0x0 }
  - { offset: 0x5A159, size: 0x8, addend: 0x0, symName: _.str.156, symObjAddr: 0x186FE0, symBinAddr: 0x1002AE7E0, symSize: 0x0 }
  - { offset: 0x5A16A, size: 0x8, addend: 0x0, symName: _.str.157, symObjAddr: 0x187000, symBinAddr: 0x1002AE800, symSize: 0x0 }
  - { offset: 0x5A17B, size: 0x8, addend: 0x0, symName: _.str.158, symObjAddr: 0x187020, symBinAddr: 0x1002AE820, symSize: 0x0 }
  - { offset: 0x5A18C, size: 0x8, addend: 0x0, symName: _.str.159, symObjAddr: 0x187040, symBinAddr: 0x1002AE840, symSize: 0x0 }
  - { offset: 0x5A19D, size: 0x8, addend: 0x0, symName: _.str.160, symObjAddr: 0x187060, symBinAddr: 0x1002AE860, symSize: 0x0 }
  - { offset: 0x5A1AE, size: 0x8, addend: 0x0, symName: _.str.161, symObjAddr: 0x187080, symBinAddr: 0x1002AE880, symSize: 0x0 }
  - { offset: 0x5A1BF, size: 0x8, addend: 0x0, symName: _.str.162, symObjAddr: 0x1870A0, symBinAddr: 0x1002AE8A0, symSize: 0x0 }
  - { offset: 0x5A1DC, size: 0x8, addend: 0x0, symName: _.str.163, symObjAddr: 0x1870E0, symBinAddr: 0x1002AE8E0, symSize: 0x0 }
  - { offset: 0x5A1ED, size: 0x8, addend: 0x0, symName: _.str.164, symObjAddr: 0x187100, symBinAddr: 0x1002AE900, symSize: 0x0 }
  - { offset: 0x5A1FE, size: 0x8, addend: 0x0, symName: _.str.165, symObjAddr: 0x187120, symBinAddr: 0x1002AE920, symSize: 0x0 }
  - { offset: 0x5A20F, size: 0x8, addend: 0x0, symName: _.str.166, symObjAddr: 0x187140, symBinAddr: 0x1002AE940, symSize: 0x0 }
  - { offset: 0x5A220, size: 0x8, addend: 0x0, symName: _.str.167, symObjAddr: 0x187160, symBinAddr: 0x1002AE960, symSize: 0x0 }
  - { offset: 0x5A231, size: 0x8, addend: 0x0, symName: _.str.168, symObjAddr: 0x187180, symBinAddr: 0x1002AE980, symSize: 0x0 }
  - { offset: 0x5A24E, size: 0x8, addend: 0x0, symName: _.str.169, symObjAddr: 0x1871C0, symBinAddr: 0x1002AE9C0, symSize: 0x0 }
  - { offset: 0x5A25F, size: 0x8, addend: 0x0, symName: _.str.170, symObjAddr: 0x1871E0, symBinAddr: 0x1002AE9E0, symSize: 0x0 }
  - { offset: 0x5A270, size: 0x8, addend: 0x0, symName: __ZTVN7testing8internal30ValuesInIteratorRangeGeneratorINSt3__15tupleIJNS2_12basic_stringIcNS2_11char_traitsIcEENS2_9allocatorIcEEEENS2_6vectorIS9_NS7_IS9_EEEEEEEEE, symObjAddr: 0x262760, symBinAddr: 0x1003F3340, symSize: 0x0 }
  - { offset: 0x5A343, size: 0x8, addend: 0x0, symName: __ZTVN7testing8internal23ParamGeneratorInterfaceINSt3__15tupleIJNS2_12basic_stringIcNS2_11char_traitsIcEENS2_9allocatorIcEEEENS2_6vectorIS9_NS7_IS9_EEEEEEEEE, symObjAddr: 0x2627B8, symBinAddr: 0x1003F3398, symSize: 0x0 }
  - { offset: 0x5A358, size: 0x8, addend: 0x0, symName: __ZTVN7testing8internal30ValuesInIteratorRangeGeneratorINSt3__15tupleIJNS2_12basic_stringIcNS2_11char_traitsIcEENS2_9allocatorIcEEEENS2_6vectorIS9_NS7_IS9_EEEEEEEE8IteratorE, symObjAddr: 0x2627E8, symBinAddr: 0x1003F33C8, symSize: 0x0 }
  - { offset: 0x5A3C8, size: 0x8, addend: 0x0, symName: __ZTVN7testing8internal22ParamIteratorInterfaceINSt3__15tupleIJNS2_12basic_stringIcNS2_11char_traitsIcEENS2_9allocatorIcEEEENS2_6vectorIS9_NS7_IS9_EEEEEEEEE, symObjAddr: 0x262858, symBinAddr: 0x1003F3438, symSize: 0x0 }
  - { offset: 0x5A3DD, size: 0x8, addend: 0x0, symName: __ZTVNSt3__120__shared_ptr_pointerIPN7testing8internal23ParamGeneratorInterfaceINS_5tupleIJNS_12basic_stringIcNS_11char_traitsIcEENS_9allocatorIcEEEENS_6vectorISA_NS8_ISA_EEEEEEEEENS_10shared_ptrIKSF_E27__shared_ptr_default_deleteISI_SF_EENS8_ISF_EEEE, symObjAddr: 0x2628A0, symBinAddr: 0x1003F3480, symSize: 0x0 }
  - { offset: 0x5A420, size: 0x8, addend: 0x0, symName: __ZTVNSt3__120__shared_ptr_pointerIPN7testing8internal26ParameterizedTestSuiteInfoIN12_GLOBAL__N_124CaesarDec_JoinWithSpacesEE8TestInfoENS_10shared_ptrIS7_E27__shared_ptr_default_deleteIS7_S7_EENS_9allocatorIS7_EEEE, symObjAddr: 0x262920, symBinAddr: 0x1003F3500, symSize: 0x0 }
  - { offset: 0x5A7E6, size: 0x8, addend: 0x0, symName: __ZTVN7testing8internal15TestMetaFactoryIN12_GLOBAL__N_134CaesarDec_JoinWithSpaces_Case_TestEEE, symObjAddr: 0x262A20, symBinAddr: 0x1003F3600, symSize: 0x0 }
  - { offset: 0x5A812, size: 0x8, addend: 0x0, symName: __ZTVN7testing8internal19TestMetaFactoryBaseINSt3__15tupleIJNS2_6vectorINS2_12basic_stringIcNS2_11char_traitsIcEENS2_9allocatorIcEEEENS8_ISA_EEEESA_EEEEE, symObjAddr: 0x262AD0, symBinAddr: 0x1003F36B0, symSize: 0x0 }
  - { offset: 0x5A827, size: 0x8, addend: 0x0, symName: __ZTVN7testing8internal24ParameterizedTestFactoryIN12_GLOBAL__N_134CaesarDec_JoinWithSpaces_Case_TestEEE, symObjAddr: 0x262B00, symBinAddr: 0x1003F36E0, symSize: 0x0 }
  - { offset: 0x5A858, size: 0x8, addend: 0x0, symName: __ZTVN12_GLOBAL__N_134CaesarDec_JoinWithSpaces_Case_TestE, symObjAddr: 0x262BA0, symBinAddr: 0x1003F3780, symSize: 0x0 }
  - { offset: 0x5A86D, size: 0x8, addend: 0x0, symName: __ZTVN12_GLOBAL__N_124CaesarDec_JoinWithSpacesE, symObjAddr: 0x262D20, symBinAddr: 0x1003F3900, symSize: 0x0 }
  - { offset: 0x5A882, size: 0x8, addend: 0x0, symName: __ZTVN7testing13TestWithParamINSt3__15tupleIJNS1_6vectorINS1_12basic_stringIcNS1_11char_traitsIcEENS1_9allocatorIcEEEENS7_IS9_EEEES9_EEEEE, symObjAddr: 0x262DA0, symBinAddr: 0x1003F3980, symSize: 0x0 }
  - { offset: 0x5A897, size: 0x8, addend: 0x0, symName: __ZTVN7testing18WithParamInterfaceINSt3__15tupleIJNS1_6vectorINS1_12basic_stringIcNS1_11char_traitsIcEENS1_9allocatorIcEEEENS7_IS9_EEEES9_EEEEE, symObjAddr: 0x262E00, symBinAddr: 0x1003F39E0, symSize: 0x0 }
  - { offset: 0x5A8AC, size: 0x8, addend: 0x0, symName: _.str.171, symObjAddr: 0x187640, symBinAddr: 0x1002AEE40, symSize: 0x0 }
  - { offset: 0x5A8BD, size: 0x8, addend: 0x0, symName: _.str.172, symObjAddr: 0x187680, symBinAddr: 0x1002AEE80, symSize: 0x0 }
  - { offset: 0x5A8CE, size: 0x8, addend: 0x0, symName: _.str.173, symObjAddr: 0x1876A0, symBinAddr: 0x1002AEEA0, symSize: 0x0 }
  - { offset: 0x5A8DF, size: 0x8, addend: 0x0, symName: _.str.174, symObjAddr: 0x1876C0, symBinAddr: 0x1002AEEC0, symSize: 0x0 }
  - { offset: 0x5A8F0, size: 0x8, addend: 0x0, symName: _.str.175, symObjAddr: 0x1876E0, symBinAddr: 0x1002AEEE0, symSize: 0x0 }
  - { offset: 0x5A901, size: 0x8, addend: 0x0, symName: _.str.176, symObjAddr: 0x187700, symBinAddr: 0x1002AEF00, symSize: 0x0 }
  - { offset: 0x5A912, size: 0x8, addend: 0x0, symName: _.str.177, symObjAddr: 0x187720, symBinAddr: 0x1002AEF20, symSize: 0x0 }
  - { offset: 0x5A923, size: 0x8, addend: 0x0, symName: _.str.178, symObjAddr: 0x187740, symBinAddr: 0x1002AEF40, symSize: 0x0 }
  - { offset: 0x5A934, size: 0x8, addend: 0x0, symName: _.str.179, symObjAddr: 0x187760, symBinAddr: 0x1002AEF60, symSize: 0x0 }
  - { offset: 0x5A945, size: 0x8, addend: 0x0, symName: _.str.180, symObjAddr: 0x187780, symBinAddr: 0x1002AEF80, symSize: 0x0 }
  - { offset: 0x5A956, size: 0x8, addend: 0x0, symName: __ZTVN7testing8internal30ValuesInIteratorRangeGeneratorINSt3__15tupleIJNS2_6vectorINS2_12basic_stringIcNS2_11char_traitsIcEENS2_9allocatorIcEEEENS8_ISA_EEEESA_EEEEE, symObjAddr: 0x262E20, symBinAddr: 0x1003F3A00, symSize: 0x0 }
  - { offset: 0x5AA29, size: 0x8, addend: 0x0, symName: __ZTVN7testing8internal23ParamGeneratorInterfaceINSt3__15tupleIJNS2_6vectorINS2_12basic_stringIcNS2_11char_traitsIcEENS2_9allocatorIcEEEENS8_ISA_EEEESA_EEEEE, symObjAddr: 0x262E78, symBinAddr: 0x1003F3A58, symSize: 0x0 }
  - { offset: 0x5AA3E, size: 0x8, addend: 0x0, symName: __ZTVN7testing8internal30ValuesInIteratorRangeGeneratorINSt3__15tupleIJNS2_6vectorINS2_12basic_stringIcNS2_11char_traitsIcEENS2_9allocatorIcEEEENS8_ISA_EEEESA_EEEE8IteratorE, symObjAddr: 0x262EA8, symBinAddr: 0x1003F3A88, symSize: 0x0 }
  - { offset: 0x5AAAE, size: 0x8, addend: 0x0, symName: __ZTVN7testing8internal22ParamIteratorInterfaceINSt3__15tupleIJNS2_6vectorINS2_12basic_stringIcNS2_11char_traitsIcEENS2_9allocatorIcEEEENS8_ISA_EEEESA_EEEEE, symObjAddr: 0x262F18, symBinAddr: 0x1003F3AF8, symSize: 0x0 }
  - { offset: 0x5AAC3, size: 0x8, addend: 0x0, symName: __ZTVNSt3__120__shared_ptr_pointerIPN7testing8internal23ParamGeneratorInterfaceINS_5tupleIJNS_6vectorINS_12basic_stringIcNS_11char_traitsIcEENS_9allocatorIcEEEENS9_ISB_EEEESB_EEEEENS_10shared_ptrIKSF_E27__shared_ptr_default_deleteISI_SF_EENS9_ISF_EEEE, symObjAddr: 0x262F60, symBinAddr: 0x1003F3B40, symSize: 0x0 }
  - { offset: 0x5AB06, size: 0x8, addend: 0x0, symName: __ZTVNSt3__120__shared_ptr_pointerIPN7testing8internal26ParameterizedTestSuiteInfoIN12_GLOBAL__N_120CaesarDec_NumWordsInEE8TestInfoENS_10shared_ptrIS7_E27__shared_ptr_default_deleteIS7_S7_EENS_9allocatorIS7_EEEE, symObjAddr: 0x262FE0, symBinAddr: 0x1003F3BC0, symSize: 0x0 }
  - { offset: 0x5AECC, size: 0x8, addend: 0x0, symName: __ZTVN7testing8internal15TestMetaFactoryIN12_GLOBAL__N_130CaesarDec_NumWordsIn_Case_TestEEE, symObjAddr: 0x2630E0, symBinAddr: 0x1003F3CC0, symSize: 0x0 }
  - { offset: 0x5AEF8, size: 0x8, addend: 0x0, symName: __ZTVN7testing8internal19TestMetaFactoryBaseINSt3__15tupleIJNS2_6vectorINS2_12basic_stringIcNS2_11char_traitsIcEENS2_9allocatorIcEEEENS8_ISA_EEEESC_iEEEEE, symObjAddr: 0x263190, symBinAddr: 0x1003F3D70, symSize: 0x0 }
  - { offset: 0x5AF0D, size: 0x8, addend: 0x0, symName: __ZTVN7testing8internal24ParameterizedTestFactoryIN12_GLOBAL__N_130CaesarDec_NumWordsIn_Case_TestEEE, symObjAddr: 0x2631C0, symBinAddr: 0x1003F3DA0, symSize: 0x0 }
  - { offset: 0x5AF3E, size: 0x8, addend: 0x0, symName: __ZTVN12_GLOBAL__N_130CaesarDec_NumWordsIn_Case_TestE, symObjAddr: 0x263260, symBinAddr: 0x1003F3E40, symSize: 0x0 }
  - { offset: 0x5AF53, size: 0x8, addend: 0x0, symName: __ZTVN12_GLOBAL__N_120CaesarDec_NumWordsInE, symObjAddr: 0x2633E0, symBinAddr: 0x1003F3FC0, symSize: 0x0 }
  - { offset: 0x5AF68, size: 0x8, addend: 0x0, symName: __ZTVN7testing13TestWithParamINSt3__15tupleIJNS1_6vectorINS1_12basic_stringIcNS1_11char_traitsIcEENS1_9allocatorIcEEEENS7_IS9_EEEESB_iEEEEE, symObjAddr: 0x263460, symBinAddr: 0x1003F4040, symSize: 0x0 }
  - { offset: 0x5AF7D, size: 0x8, addend: 0x0, symName: __ZTVN7testing18WithParamInterfaceINSt3__15tupleIJNS1_6vectorINS1_12basic_stringIcNS1_11char_traitsIcEENS1_9allocatorIcEEEENS7_IS9_EEEESB_iEEEEE, symObjAddr: 0x2634C0, symBinAddr: 0x1003F40A0, symSize: 0x0 }
  - { offset: 0x5AF92, size: 0x8, addend: 0x0, symName: _.str.181, symObjAddr: 0x187BE0, symBinAddr: 0x1002AF3E0, symSize: 0x0 }
  - { offset: 0x5AFA3, size: 0x8, addend: 0x0, symName: __ZTVN7testing7MatcherIRKiEE, symObjAddr: 0x2634E0, symBinAddr: 0x1003F40C0, symSize: 0x0 }
  - { offset: 0x5B03D, size: 0x8, addend: 0x0, symName: __ZTVN7testing8internal11MatcherBaseIRKiEE, symObjAddr: 0x263550, symBinAddr: 0x1003F4130, symSize: 0x0 }
  - { offset: 0x5B06D, size: 0x8, addend: 0x0, symName: __ZN7testing8internal11MatcherBaseIRKiE9GetVTableINS4_11ValuePolicyINS0_9EqMatcherIiEELb1EEEEEPKNS4_6VTableEv, symObjAddr: 0xB7BD0, symBinAddr: 0x1000B91F8, symSize: 0x5C }
  - { offset: 0x5B092, size: 0x8, addend: 0x0, symName: __ZZN7testing8internal11MatcherBaseIRKiE9GetVTableINS4_11ValuePolicyINS0_9EqMatcherIiEELb1EEEEEPKNS4_6VTableEvE7kVTable, symObjAddr: 0x263580, symBinAddr: 0x1003F4160, symSize: 0x0 }
  - { offset: 0x5B0BA, size: 0x8, addend: 0x0, symName: _.str.182, symObjAddr: 0x187C20, symBinAddr: 0x1002AF420, symSize: 0x0 }
  - { offset: 0x5B0CB, size: 0x8, addend: 0x0, symName: _.str.183, symObjAddr: 0x187C40, symBinAddr: 0x1002AF440, symSize: 0x0 }
  - { offset: 0x5B0DC, size: 0x8, addend: 0x0, symName: _.str.184, symObjAddr: 0x187C60, symBinAddr: 0x1002AF460, symSize: 0x0 }
  - { offset: 0x5B0ED, size: 0x8, addend: 0x0, symName: _.str.185, symObjAddr: 0x187C80, symBinAddr: 0x1002AF480, symSize: 0x0 }
  - { offset: 0x5B0FE, size: 0x8, addend: 0x0, symName: _.str.186, symObjAddr: 0x187CA0, symBinAddr: 0x1002AF4A0, symSize: 0x0 }
  - { offset: 0x5B10F, size: 0x8, addend: 0x0, symName: _.str.187, symObjAddr: 0x187CC0, symBinAddr: 0x1002AF4C0, symSize: 0x0 }
  - { offset: 0x5B120, size: 0x8, addend: 0x0, symName: _.str.188, symObjAddr: 0x187CE0, symBinAddr: 0x1002AF4E0, symSize: 0x0 }
  - { offset: 0x5B131, size: 0x8, addend: 0x0, symName: _.str.189, symObjAddr: 0x187D00, symBinAddr: 0x1002AF500, symSize: 0x0 }
  - { offset: 0x5B142, size: 0x8, addend: 0x0, symName: _.str.190, symObjAddr: 0x187D20, symBinAddr: 0x1002AF520, symSize: 0x0 }
  - { offset: 0x5B153, size: 0x8, addend: 0x0, symName: __ZTVN7testing8internal30ValuesInIteratorRangeGeneratorINSt3__15tupleIJNS2_6vectorINS2_12basic_stringIcNS2_11char_traitsIcEENS2_9allocatorIcEEEENS8_ISA_EEEESC_iEEEEE, symObjAddr: 0x2635A0, symBinAddr: 0x1003F4180, symSize: 0x0 }
  - { offset: 0x5B226, size: 0x8, addend: 0x0, symName: __ZTVN7testing8internal23ParamGeneratorInterfaceINSt3__15tupleIJNS2_6vectorINS2_12basic_stringIcNS2_11char_traitsIcEENS2_9allocatorIcEEEENS8_ISA_EEEESC_iEEEEE, symObjAddr: 0x2635F8, symBinAddr: 0x1003F41D8, symSize: 0x0 }
  - { offset: 0x5B23B, size: 0x8, addend: 0x0, symName: __ZTVN7testing8internal30ValuesInIteratorRangeGeneratorINSt3__15tupleIJNS2_6vectorINS2_12basic_stringIcNS2_11char_traitsIcEENS2_9allocatorIcEEEENS8_ISA_EEEESC_iEEEE8IteratorE, symObjAddr: 0x263628, symBinAddr: 0x1003F4208, symSize: 0x0 }
  - { offset: 0x5B2AB, size: 0x8, addend: 0x0, symName: __ZTVN7testing8internal22ParamIteratorInterfaceINSt3__15tupleIJNS2_6vectorINS2_12basic_stringIcNS2_11char_traitsIcEENS2_9allocatorIcEEEENS8_ISA_EEEESC_iEEEEE, symObjAddr: 0x263698, symBinAddr: 0x1003F4278, symSize: 0x0 }
  - { offset: 0x5B2C0, size: 0x8, addend: 0x0, symName: __ZTVNSt3__120__shared_ptr_pointerIPN7testing8internal23ParamGeneratorInterfaceINS_5tupleIJNS_6vectorINS_12basic_stringIcNS_11char_traitsIcEENS_9allocatorIcEEEENS9_ISB_EEEESD_iEEEEENS_10shared_ptrIKSF_E27__shared_ptr_default_deleteISI_SF_EENS9_ISF_EEEE, symObjAddr: 0x2636E0, symBinAddr: 0x1003F42C0, symSize: 0x0 }
  - { offset: 0x5B303, size: 0x8, addend: 0x0, symName: __ZTVNSt3__120__shared_ptr_pointerIPN7testing8internal26ParameterizedTestSuiteInfoIN12_GLOBAL__N_127CaesarDec_CustomDictCommandEE8TestInfoENS_10shared_ptrIS7_E27__shared_ptr_default_deleteIS7_S7_EENS_9allocatorIS7_EEEE, symObjAddr: 0x263760, symBinAddr: 0x1003F4340, symSize: 0x0 }
  - { offset: 0x5B6C9, size: 0x8, addend: 0x0, symName: __ZTVN7testing8internal15TestMetaFactoryIN12_GLOBAL__N_137CaesarDec_CustomDictCommand_Case_TestEEE, symObjAddr: 0x263860, symBinAddr: 0x1003F4440, symSize: 0x0 }
  - { offset: 0x5B6F5, size: 0x8, addend: 0x0, symName: __ZTVN7testing8internal19TestMetaFactoryBaseINSt3__15tupleIJNS2_12basic_stringIcNS2_11char_traitsIcEENS2_9allocatorIcEEEENS2_6vectorIS9_NS7_IS9_EEEES9_S9_EEEEE, symObjAddr: 0x263910, symBinAddr: 0x1003F44F0, symSize: 0x0 }
  - { offset: 0x5B70A, size: 0x8, addend: 0x0, symName: __ZTVN7testing8internal24ParameterizedTestFactoryIN12_GLOBAL__N_137CaesarDec_CustomDictCommand_Case_TestEEE, symObjAddr: 0x263940, symBinAddr: 0x1003F4520, symSize: 0x0 }
  - { offset: 0x5B73B, size: 0x8, addend: 0x0, symName: __ZTVN12_GLOBAL__N_137CaesarDec_CustomDictCommand_Case_TestE, symObjAddr: 0x2639E0, symBinAddr: 0x1003F45C0, symSize: 0x0 }
  - { offset: 0x5B750, size: 0x8, addend: 0x0, symName: __ZTVN12_GLOBAL__N_127CaesarDec_CustomDictCommandE, symObjAddr: 0x263B80, symBinAddr: 0x1003F4740, symSize: 0x0 }
  - { offset: 0x5B765, size: 0x8, addend: 0x0, symName: __ZTVN7testing18WithParamInterfaceINSt3__15tupleIJNS1_12basic_stringIcNS1_11char_traitsIcEENS1_9allocatorIcEEEENS1_6vectorIS8_NS6_IS8_EEEES8_S8_EEEEE, symObjAddr: 0x263C00, symBinAddr: 0x1003F47C0, symSize: 0x0 }
  - { offset: 0x5B77A, size: 0x8, addend: 0x0, symName: __ZTV14CaptureCinCout, symObjAddr: 0x263C20, symBinAddr: 0x1003F47E0, symSize: 0x0 }
  - { offset: 0x5B78F, size: 0x8, addend: 0x0, symName: _.str.192, symObjAddr: 0x1881C0, symBinAddr: 0x1002AF9C0, symSize: 0x0 }
  - { offset: 0x5B7A0, size: 0x8, addend: 0x0, symName: _.str.193, symObjAddr: 0x1881E0, symBinAddr: 0x1002AF9E0, symSize: 0x0 }
  - { offset: 0x5B7B1, size: 0x8, addend: 0x0, symName: _.str.194, symObjAddr: 0x188240, symBinAddr: 0x1002AFA40, symSize: 0x0 }
  - { offset: 0x5B7C2, size: 0x8, addend: 0x0, symName: _.str.195, symObjAddr: 0x1882A0, symBinAddr: 0x1002AFAA0, symSize: 0x0 }
  - { offset: 0x5B7D3, size: 0x8, addend: 0x0, symName: _.str.196, symObjAddr: 0x1882E0, symBinAddr: 0x1002AFAE0, symSize: 0x0 }
  - { offset: 0x5B7F0, size: 0x8, addend: 0x0, symName: __ZTVN7testing18PolymorphicMatcherINS_8internal16HasSubstrMatcherINSt3__112basic_stringIcNS3_11char_traitsIcEENS3_9allocatorIcEEEEEEE15MonomorphicImplIRKS9_EE, symObjAddr: 0x263C60, symBinAddr: 0x1003F4820, symSize: 0x0 }
  - { offset: 0x5B846, size: 0x8, addend: 0x0, symName: _.str.197, symObjAddr: 0x188340, symBinAddr: 0x1002AFB40, symSize: 0x0 }
  - { offset: 0x5B859, size: 0x8, addend: 0x0, symName: _.str.198, symObjAddr: 0x188360, symBinAddr: 0x1002AFB60, symSize: 0x0 }
  - { offset: 0x5B876, size: 0x8, addend: 0x0, symName: __ZTVN7testing8internal14NotMatcherImplIRKNSt3__112basic_stringIcNS2_11char_traitsIcEENS2_9allocatorIcEEEEEE, symObjAddr: 0x263CB0, symBinAddr: 0x1003F4870, symSize: 0x0 }
  - { offset: 0x5B8A2, size: 0x8, addend: 0x0, symName: _.str.199, symObjAddr: 0x1883A0, symBinAddr: 0x1002AFBA0, symSize: 0x0 }
  - { offset: 0x5B8B3, size: 0x8, addend: 0x0, symName: _.str.200, symObjAddr: 0x1883C0, symBinAddr: 0x1002AFBC0, symSize: 0x0 }
  - { offset: 0x5B8C4, size: 0x8, addend: 0x0, symName: _.str.201, symObjAddr: 0x1883E0, symBinAddr: 0x1002AFBE0, symSize: 0x0 }
  - { offset: 0x5B8D5, size: 0x8, addend: 0x0, symName: _.str.202, symObjAddr: 0x188400, symBinAddr: 0x1002AFC00, symSize: 0x0 }
  - { offset: 0x5B8E6, size: 0x8, addend: 0x0, symName: _.str.203, symObjAddr: 0x188420, symBinAddr: 0x1002AFC20, symSize: 0x0 }
  - { offset: 0x5B8F7, size: 0x8, addend: 0x0, symName: _.str.204, symObjAddr: 0x188460, symBinAddr: 0x1002AFC60, symSize: 0x0 }
  - { offset: 0x5B908, size: 0x8, addend: 0x0, symName: _.str.205, symObjAddr: 0x188480, symBinAddr: 0x1002AFC80, symSize: 0x0 }
  - { offset: 0x5B919, size: 0x8, addend: 0x0, symName: _.str.206, symObjAddr: 0x1884A0, symBinAddr: 0x1002AFCA0, symSize: 0x0 }
  - { offset: 0x5B92A, size: 0x8, addend: 0x0, symName: _.str.207, symObjAddr: 0x1884C0, symBinAddr: 0x1002AFCC0, symSize: 0x0 }
  - { offset: 0x5B93B, size: 0x8, addend: 0x0, symName: _.str.208, symObjAddr: 0x1884E0, symBinAddr: 0x1002AFCE0, symSize: 0x0 }
  - { offset: 0x5B94C, size: 0x8, addend: 0x0, symName: _.str.209, symObjAddr: 0x188500, symBinAddr: 0x1002AFD00, symSize: 0x0 }
  - { offset: 0x5B95D, size: 0x8, addend: 0x0, symName: _.str.210, symObjAddr: 0x188520, symBinAddr: 0x1002AFD20, symSize: 0x0 }
  - { offset: 0x5B97A, size: 0x8, addend: 0x0, symName: _.str.211, symObjAddr: 0x188560, symBinAddr: 0x1002AFD60, symSize: 0x0 }
  - { offset: 0x5B98B, size: 0x8, addend: 0x0, symName: _.str.212, symObjAddr: 0x188580, symBinAddr: 0x1002AFD80, symSize: 0x0 }
  - { offset: 0x5B99C, size: 0x8, addend: 0x0, symName: _.str.213, symObjAddr: 0x1885A0, symBinAddr: 0x1002AFDA0, symSize: 0x0 }
  - { offset: 0x5B9AD, size: 0x8, addend: 0x0, symName: _.str.214, symObjAddr: 0x1885C0, symBinAddr: 0x1002AFDC0, symSize: 0x0 }
  - { offset: 0x5B9BE, size: 0x8, addend: 0x0, symName: _.str.215, symObjAddr: 0x1885E0, symBinAddr: 0x1002AFDE0, symSize: 0x0 }
  - { offset: 0x5B9CF, size: 0x8, addend: 0x0, symName: _.str.216, symObjAddr: 0x188620, symBinAddr: 0x1002AFE20, symSize: 0x0 }
  - { offset: 0x5B9E0, size: 0x8, addend: 0x0, symName: _.str.217, symObjAddr: 0x188640, symBinAddr: 0x1002AFE40, symSize: 0x0 }
  - { offset: 0x5B9F1, size: 0x8, addend: 0x0, symName: _.str.218, symObjAddr: 0x188660, symBinAddr: 0x1002AFE60, symSize: 0x0 }
  - { offset: 0x5BA02, size: 0x8, addend: 0x0, symName: _.str.219, symObjAddr: 0x188680, symBinAddr: 0x1002AFE80, symSize: 0x0 }
  - { offset: 0x5BA13, size: 0x8, addend: 0x0, symName: _.str.220, symObjAddr: 0x1886A0, symBinAddr: 0x1002AFEA0, symSize: 0x0 }
  - { offset: 0x5BA24, size: 0x8, addend: 0x0, symName: _.str.221, symObjAddr: 0x1886E0, symBinAddr: 0x1002AFEE0, symSize: 0x0 }
  - { offset: 0x5BA35, size: 0x8, addend: 0x0, symName: _.str.222, symObjAddr: 0x188700, symBinAddr: 0x1002AFF00, symSize: 0x0 }
  - { offset: 0x5BA46, size: 0x8, addend: 0x0, symName: _.str.223, symObjAddr: 0x188720, symBinAddr: 0x1002AFF20, symSize: 0x0 }
  - { offset: 0x5BA57, size: 0x8, addend: 0x0, symName: _.str.224, symObjAddr: 0x188740, symBinAddr: 0x1002AFF40, symSize: 0x0 }
  - { offset: 0x5BA68, size: 0x8, addend: 0x0, symName: _.str.225, symObjAddr: 0x188760, symBinAddr: 0x1002AFF60, symSize: 0x0 }
  - { offset: 0x5BA79, size: 0x8, addend: 0x0, symName: _.str.226, symObjAddr: 0x1887A0, symBinAddr: 0x1002AFFA0, symSize: 0x0 }
  - { offset: 0x5BA8A, size: 0x8, addend: 0x0, symName: _.str.227, symObjAddr: 0x1887C0, symBinAddr: 0x1002AFFC0, symSize: 0x0 }
  - { offset: 0x5BA9B, size: 0x8, addend: 0x0, symName: _.str.228, symObjAddr: 0x1887E0, symBinAddr: 0x1002AFFE0, symSize: 0x0 }
  - { offset: 0x5BAAC, size: 0x8, addend: 0x0, symName: _.str.229, symObjAddr: 0x188800, symBinAddr: 0x1002B0000, symSize: 0x0 }
  - { offset: 0x5BABD, size: 0x8, addend: 0x0, symName: _.str.230, symObjAddr: 0x188840, symBinAddr: 0x1002B0040, symSize: 0x0 }
  - { offset: 0x5BACE, size: 0x8, addend: 0x0, symName: _.str.231, symObjAddr: 0x188860, symBinAddr: 0x1002B0060, symSize: 0x0 }
  - { offset: 0x5BADF, size: 0x8, addend: 0x0, symName: _.str.232, symObjAddr: 0x188880, symBinAddr: 0x1002B0080, symSize: 0x0 }
  - { offset: 0x5BAF0, size: 0x8, addend: 0x0, symName: _.str.233, symObjAddr: 0x1888C0, symBinAddr: 0x1002B00C0, symSize: 0x0 }
  - { offset: 0x5BB0F, size: 0x8, addend: 0x0, symName: _.str.234, symObjAddr: 0x188AC0, symBinAddr: 0x1002B02C0, symSize: 0x0 }
  - { offset: 0x5BB20, size: 0x8, addend: 0x0, symName: _.str.235, symObjAddr: 0x188AE0, symBinAddr: 0x1002B02E0, symSize: 0x0 }
  - { offset: 0x5BB31, size: 0x8, addend: 0x0, symName: _.str.236, symObjAddr: 0x188B00, symBinAddr: 0x1002B0300, symSize: 0x0 }
  - { offset: 0x5BB42, size: 0x8, addend: 0x0, symName: _.str.237, symObjAddr: 0x188B20, symBinAddr: 0x1002B0320, symSize: 0x0 }
  - { offset: 0x5BB53, size: 0x8, addend: 0x0, symName: _.str.238, symObjAddr: 0x188B40, symBinAddr: 0x1002B0340, symSize: 0x0 }
  - { offset: 0x5BB64, size: 0x8, addend: 0x0, symName: _.str.239, symObjAddr: 0x188B60, symBinAddr: 0x1002B0360, symSize: 0x0 }
  - { offset: 0x5BB75, size: 0x8, addend: 0x0, symName: _.str.240, symObjAddr: 0x188B80, symBinAddr: 0x1002B0380, symSize: 0x0 }
  - { offset: 0x5BB86, size: 0x8, addend: 0x0, symName: _.str.241, symObjAddr: 0x188BA0, symBinAddr: 0x1002B03A0, symSize: 0x0 }
  - { offset: 0x5BB97, size: 0x8, addend: 0x0, symName: _.str.242, symObjAddr: 0x188BC0, symBinAddr: 0x1002B03C0, symSize: 0x0 }
  - { offset: 0x5BBA8, size: 0x8, addend: 0x0, symName: _.str.243, symObjAddr: 0x188BE0, symBinAddr: 0x1002B03E0, symSize: 0x0 }
  - { offset: 0x5BBB9, size: 0x8, addend: 0x0, symName: _.str.244, symObjAddr: 0x188C00, symBinAddr: 0x1002B0400, symSize: 0x0 }
  - { offset: 0x5BBCA, size: 0x8, addend: 0x0, symName: _.str.245, symObjAddr: 0x188C20, symBinAddr: 0x1002B0420, symSize: 0x0 }
  - { offset: 0x5BBDB, size: 0x8, addend: 0x0, symName: _.str.246, symObjAddr: 0x188C40, symBinAddr: 0x1002B0440, symSize: 0x0 }
  - { offset: 0x5BBEC, size: 0x8, addend: 0x0, symName: _.str.247, symObjAddr: 0x188C60, symBinAddr: 0x1002B0460, symSize: 0x0 }
  - { offset: 0x5BBFD, size: 0x8, addend: 0x0, symName: _.str.248, symObjAddr: 0x188C80, symBinAddr: 0x1002B0480, symSize: 0x0 }
  - { offset: 0x5BC0E, size: 0x8, addend: 0x0, symName: _.str.249, symObjAddr: 0x188CA0, symBinAddr: 0x1002B04A0, symSize: 0x0 }
  - { offset: 0x5BC1F, size: 0x8, addend: 0x0, symName: _.str.250, symObjAddr: 0x188CC0, symBinAddr: 0x1002B04C0, symSize: 0x0 }
  - { offset: 0x5BC30, size: 0x8, addend: 0x0, symName: _.str.251, symObjAddr: 0x188CE0, symBinAddr: 0x1002B04E0, symSize: 0x0 }
  - { offset: 0x5BC41, size: 0x8, addend: 0x0, symName: _.str.252, symObjAddr: 0x188D00, symBinAddr: 0x1002B0500, symSize: 0x0 }
  - { offset: 0x5BC52, size: 0x8, addend: 0x0, symName: _.str.253, symObjAddr: 0x188D20, symBinAddr: 0x1002B0520, symSize: 0x0 }
  - { offset: 0x5BC63, size: 0x8, addend: 0x0, symName: _.str.254, symObjAddr: 0x188D40, symBinAddr: 0x1002B0540, symSize: 0x0 }
  - { offset: 0x5BC74, size: 0x8, addend: 0x0, symName: _.str.255, symObjAddr: 0x188D60, symBinAddr: 0x1002B0560, symSize: 0x0 }
  - { offset: 0x5BC85, size: 0x8, addend: 0x0, symName: _.str.256, symObjAddr: 0x188D80, symBinAddr: 0x1002B0580, symSize: 0x0 }
  - { offset: 0x5BC96, size: 0x8, addend: 0x0, symName: _.str.257, symObjAddr: 0x188DA0, symBinAddr: 0x1002B05A0, symSize: 0x0 }
  - { offset: 0x5BCA7, size: 0x8, addend: 0x0, symName: _.str.258, symObjAddr: 0x188DC0, symBinAddr: 0x1002B05C0, symSize: 0x0 }
  - { offset: 0x5BCB8, size: 0x8, addend: 0x0, symName: _.str.259, symObjAddr: 0x188DE0, symBinAddr: 0x1002B05E0, symSize: 0x0 }
  - { offset: 0x5BCC9, size: 0x8, addend: 0x0, symName: _.str.260, symObjAddr: 0x188E00, symBinAddr: 0x1002B0600, symSize: 0x0 }
  - { offset: 0x5BCDA, size: 0x8, addend: 0x0, symName: _.str.261, symObjAddr: 0x188E20, symBinAddr: 0x1002B0620, symSize: 0x0 }
  - { offset: 0x5BCEB, size: 0x8, addend: 0x0, symName: _.str.262, symObjAddr: 0x188E40, symBinAddr: 0x1002B0640, symSize: 0x0 }
  - { offset: 0x5BCFC, size: 0x8, addend: 0x0, symName: _.str.263, symObjAddr: 0x188E60, symBinAddr: 0x1002B0660, symSize: 0x0 }
  - { offset: 0x5BD0D, size: 0x8, addend: 0x0, symName: _.str.264, symObjAddr: 0x188E80, symBinAddr: 0x1002B0680, symSize: 0x0 }
  - { offset: 0x5BD1E, size: 0x8, addend: 0x0, symName: _.str.265, symObjAddr: 0x188EA0, symBinAddr: 0x1002B06A0, symSize: 0x0 }
  - { offset: 0x5BD2F, size: 0x8, addend: 0x0, symName: _.str.266, symObjAddr: 0x188EC0, symBinAddr: 0x1002B06C0, symSize: 0x0 }
  - { offset: 0x5BD40, size: 0x8, addend: 0x0, symName: _.str.267, symObjAddr: 0x188EE0, symBinAddr: 0x1002B06E0, symSize: 0x0 }
  - { offset: 0x5BD51, size: 0x8, addend: 0x0, symName: _.str.268, symObjAddr: 0x1890E0, symBinAddr: 0x1002B08E0, symSize: 0x0 }
  - { offset: 0x5BD62, size: 0x8, addend: 0x0, symName: __ZTVN7testing8internal30ValuesInIteratorRangeGeneratorINSt3__15tupleIJNS2_12basic_stringIcNS2_11char_traitsIcEENS2_9allocatorIcEEEENS2_6vectorIS9_NS7_IS9_EEEES9_S9_EEEEE, symObjAddr: 0x263D00, symBinAddr: 0x1003F48C0, symSize: 0x0 }
  - { offset: 0x5BE35, size: 0x8, addend: 0x0, symName: __ZTVN7testing8internal23ParamGeneratorInterfaceINSt3__15tupleIJNS2_12basic_stringIcNS2_11char_traitsIcEENS2_9allocatorIcEEEENS2_6vectorIS9_NS7_IS9_EEEES9_S9_EEEEE, symObjAddr: 0x263D58, symBinAddr: 0x1003F4918, symSize: 0x0 }
  - { offset: 0x5BE4A, size: 0x8, addend: 0x0, symName: __ZTVN7testing8internal30ValuesInIteratorRangeGeneratorINSt3__15tupleIJNS2_12basic_stringIcNS2_11char_traitsIcEENS2_9allocatorIcEEEENS2_6vectorIS9_NS7_IS9_EEEES9_S9_EEEE8IteratorE, symObjAddr: 0x263D88, symBinAddr: 0x1003F4948, symSize: 0x0 }
  - { offset: 0x5BEBA, size: 0x8, addend: 0x0, symName: __ZTVN7testing8internal22ParamIteratorInterfaceINSt3__15tupleIJNS2_12basic_stringIcNS2_11char_traitsIcEENS2_9allocatorIcEEEENS2_6vectorIS9_NS7_IS9_EEEES9_S9_EEEEE, symObjAddr: 0x263DF8, symBinAddr: 0x1003F49B8, symSize: 0x0 }
  - { offset: 0x5BECF, size: 0x8, addend: 0x0, symName: __ZTVNSt3__120__shared_ptr_pointerIPN7testing8internal23ParamGeneratorInterfaceINS_5tupleIJNS_12basic_stringIcNS_11char_traitsIcEENS_9allocatorIcEEEENS_6vectorISA_NS8_ISA_EEEESA_SA_EEEEENS_10shared_ptrIKSF_E27__shared_ptr_default_deleteISI_SF_EENS8_ISF_EEEE, symObjAddr: 0x263E40, symBinAddr: 0x1003F4A00, symSize: 0x0 }
  - { offset: 0x5BF12, size: 0x8, addend: 0x0, symName: __ZTVN7testing8internal15TestFactoryImplIN12_GLOBAL__N_154CaesarDec_FullDictMainCommandPrompt_CommandPrompt_TestEEE, symObjAddr: 0x263EC0, symBinAddr: 0x1003F4A80, symSize: 0x0 }
  - { offset: 0x5BF2D, size: 0x8, addend: 0x0, symName: __ZTVN12_GLOBAL__N_154CaesarDec_FullDictMainCommandPrompt_CommandPrompt_TestE, symObjAddr: 0x263F60, symBinAddr: 0x1003F4B20, symSize: 0x0 }
  - { offset: 0x5BF42, size: 0x8, addend: 0x0, symName: __ZTVN12_GLOBAL__N_135CaesarDec_FullDictMainCommandPromptE, symObjAddr: 0x264040, symBinAddr: 0x1003F4C00, symSize: 0x0 }
  - { offset: 0x5BF57, size: 0x8, addend: 0x0, symName: _.str.269, symObjAddr: 0x189280, symBinAddr: 0x1002B0A80, symSize: 0x0 }
  - { offset: 0x5BF68, size: 0x8, addend: 0x0, symName: _.str.270, symObjAddr: 0x1892A0, symBinAddr: 0x1002B0AA0, symSize: 0x0 }
  - { offset: 0x5BF79, size: 0x8, addend: 0x0, symName: _.str.271, symObjAddr: 0x1892C0, symBinAddr: 0x1002B0AC0, symSize: 0x0 }
  - { offset: 0x5BF8A, size: 0x8, addend: 0x0, symName: _.str.272, symObjAddr: 0x1892E0, symBinAddr: 0x1002B0AE0, symSize: 0x0 }
  - { offset: 0x5BFA7, size: 0x8, addend: 0x0, symName: __ZTVNSt3__120__shared_ptr_pointerIPN7testing8internal26ParameterizedTestSuiteInfoIN12_GLOBAL__N_129CaesarDec_FullDictMainCommandEE8TestInfoENS_10shared_ptrIS7_E27__shared_ptr_default_deleteIS7_S7_EENS_9allocatorIS7_EEEE, symObjAddr: 0x2640A0, symBinAddr: 0x1003F4C60, symSize: 0x0 }
  - { offset: 0x5C36D, size: 0x8, addend: 0x0, symName: __ZTVN7testing8internal15TestMetaFactoryIN12_GLOBAL__N_139CaesarDec_FullDictMainCommand_Case_TestEEE, symObjAddr: 0x2641A0, symBinAddr: 0x1003F4D60, symSize: 0x0 }
  - { offset: 0x5C399, size: 0x8, addend: 0x0, symName: __ZTVN7testing8internal19TestMetaFactoryBaseINSt3__15tupleIJNS2_12basic_stringIcNS2_11char_traitsIcEENS2_9allocatorIcEEEES9_S9_EEEEE, symObjAddr: 0x264250, symBinAddr: 0x1003F4E10, symSize: 0x0 }
  - { offset: 0x5C3AE, size: 0x8, addend: 0x0, symName: __ZTVN7testing8internal24ParameterizedTestFactoryIN12_GLOBAL__N_139CaesarDec_FullDictMainCommand_Case_TestEEE, symObjAddr: 0x264280, symBinAddr: 0x1003F4E40, symSize: 0x0 }
  - { offset: 0x5C3DF, size: 0x8, addend: 0x0, symName: __ZTVN12_GLOBAL__N_139CaesarDec_FullDictMainCommand_Case_TestE, symObjAddr: 0x264320, symBinAddr: 0x1003F4EE0, symSize: 0x0 }
  - { offset: 0x5C3F4, size: 0x8, addend: 0x0, symName: __ZTVN12_GLOBAL__N_129CaesarDec_FullDictMainCommandE, symObjAddr: 0x2644A0, symBinAddr: 0x1003F5060, symSize: 0x0 }
  - { offset: 0x5C409, size: 0x8, addend: 0x0, symName: __ZTVN7testing18WithParamInterfaceINSt3__15tupleIJNS1_12basic_stringIcNS1_11char_traitsIcEENS1_9allocatorIcEEEES8_S8_EEEEE, symObjAddr: 0x264520, symBinAddr: 0x1003F50E0, symSize: 0x0 }
  - { offset: 0x5C420, size: 0x8, addend: 0x0, symName: _.str.273, symObjAddr: 0x189800, symBinAddr: 0x1002B1000, symSize: 0x0 }
  - { offset: 0x5C433, size: 0x8, addend: 0x0, symName: _.str.274, symObjAddr: 0x189880, symBinAddr: 0x1002B1080, symSize: 0x0 }
  - { offset: 0x5C446, size: 0x8, addend: 0x0, symName: _.str.275, symObjAddr: 0x1898C0, symBinAddr: 0x1002B10C0, symSize: 0x0 }
  - { offset: 0x5C459, size: 0x8, addend: 0x0, symName: _.str.276, symObjAddr: 0x1898E0, symBinAddr: 0x1002B10E0, symSize: 0x0 }
  - { offset: 0x5C46C, size: 0x8, addend: 0x0, symName: _.str.277, symObjAddr: 0x189900, symBinAddr: 0x1002B1100, symSize: 0x0 }
  - { offset: 0x5C48B, size: 0x8, addend: 0x0, symName: _.str.278, symObjAddr: 0x189940, symBinAddr: 0x1002B1140, symSize: 0x0 }
  - { offset: 0x5C49E, size: 0x8, addend: 0x0, symName: _.str.279, symObjAddr: 0x1899A0, symBinAddr: 0x1002B11A0, symSize: 0x0 }
  - { offset: 0x5C4B1, size: 0x8, addend: 0x0, symName: _.str.280, symObjAddr: 0x189A00, symBinAddr: 0x1002B1200, symSize: 0x0 }
  - { offset: 0x5C4C4, size: 0x8, addend: 0x0, symName: _.str.281, symObjAddr: 0x189A20, symBinAddr: 0x1002B1220, symSize: 0x0 }
  - { offset: 0x5C4D7, size: 0x8, addend: 0x0, symName: _.str.282, symObjAddr: 0x189A40, symBinAddr: 0x1002B1240, symSize: 0x0 }
  - { offset: 0x5C4E8, size: 0x8, addend: 0x0, symName: __ZTVN7testing8internal30ValuesInIteratorRangeGeneratorINSt3__15tupleIJNS2_12basic_stringIcNS2_11char_traitsIcEENS2_9allocatorIcEEEES9_S9_EEEEE, symObjAddr: 0x264540, symBinAddr: 0x1003F5100, symSize: 0x0 }
  - { offset: 0x5C5BB, size: 0x8, addend: 0x0, symName: __ZTVN7testing8internal23ParamGeneratorInterfaceINSt3__15tupleIJNS2_12basic_stringIcNS2_11char_traitsIcEENS2_9allocatorIcEEEES9_S9_EEEEE, symObjAddr: 0x264598, symBinAddr: 0x1003F5158, symSize: 0x0 }
  - { offset: 0x5C5D0, size: 0x8, addend: 0x0, symName: __ZTVN7testing8internal30ValuesInIteratorRangeGeneratorINSt3__15tupleIJNS2_12basic_stringIcNS2_11char_traitsIcEENS2_9allocatorIcEEEES9_S9_EEEE8IteratorE, symObjAddr: 0x2645C8, symBinAddr: 0x1003F5188, symSize: 0x0 }
  - { offset: 0x5C640, size: 0x8, addend: 0x0, symName: __ZTVN7testing8internal22ParamIteratorInterfaceINSt3__15tupleIJNS2_12basic_stringIcNS2_11char_traitsIcEENS2_9allocatorIcEEEES9_S9_EEEEE, symObjAddr: 0x264638, symBinAddr: 0x1003F51F8, symSize: 0x0 }
  - { offset: 0x5C655, size: 0x8, addend: 0x0, symName: __ZTVNSt3__120__shared_ptr_pointerIPN7testing8internal23ParamGeneratorInterfaceINS_5tupleIJNS_12basic_stringIcNS_11char_traitsIcEENS_9allocatorIcEEEESA_SA_EEEEENS_10shared_ptrIKSC_E27__shared_ptr_default_deleteISF_SC_EENS8_ISC_EEEE, symObjAddr: 0x264680, symBinAddr: 0x1003F5240, symSize: 0x0 }
  - { offset: 0x5C69A, size: 0x8, addend: 0x0, symName: _.str.283, symObjAddr: 0x189A60, symBinAddr: 0x1002B1260, symSize: 0x0 }
  - { offset: 0x5C6B9, size: 0x8, addend: 0x0, symName: _.str.284, symObjAddr: 0x189AC0, symBinAddr: 0x1002B12C0, symSize: 0x0 }
  - { offset: 0x5C6D8, size: 0x8, addend: 0x0, symName: _.str.285, symObjAddr: 0x189B60, symBinAddr: 0x1002B1360, symSize: 0x0 }
  - { offset: 0x5C6EB, size: 0x8, addend: 0x0, symName: _.str.286, symObjAddr: 0x189B80, symBinAddr: 0x1002B1380, symSize: 0x0 }
  - { offset: 0x5C708, size: 0x8, addend: 0x0, symName: __ZTVN7testing8internal26ParameterizedTestSuiteInfoIN12_GLOBAL__N_115CaesarDec_CleanEEE, symObjAddr: 0x264760, symBinAddr: 0x1003F5300, symSize: 0x0 }
  - { offset: 0x5C71D, size: 0x8, addend: 0x0, symName: __ZTVN7testing8internal30ParameterizedTestSuiteInfoBaseE, symObjAddr: 0x2647C0, symBinAddr: 0x1003F5360, symSize: 0x0 }
  - { offset: 0x5C734, size: 0x8, addend: 0x0, symName: _.str.289, symObjAddr: 0x189CA0, symBinAddr: 0x1002B14A0, symSize: 0x0 }
  - { offset: 0x5C747, size: 0x8, addend: 0x0, symName: _.str.290, symObjAddr: 0x189CC0, symBinAddr: 0x1002B14C0, symSize: 0x0 }
  - { offset: 0x5C766, size: 0x8, addend: 0x0, symName: _.str.291, symObjAddr: 0x189D20, symBinAddr: 0x1002B1520, symSize: 0x0 }
  - { offset: 0x5C779, size: 0x8, addend: 0x0, symName: _.str.292, symObjAddr: 0x189D60, symBinAddr: 0x1002B1560, symSize: 0x0 }
  - { offset: 0x5C798, size: 0x8, addend: 0x0, symName: _.str.293, symObjAddr: 0x189E00, symBinAddr: 0x1002B1600, symSize: 0x0 }
  - { offset: 0x5C7AB, size: 0x8, addend: 0x0, symName: _.str.294, symObjAddr: 0x189E20, symBinAddr: 0x1002B1620, symSize: 0x0 }
  - { offset: 0x5C7CA, size: 0x8, addend: 0x0, symName: _.str.295, symObjAddr: 0x189E80, symBinAddr: 0x1002B1680, symSize: 0x0 }
  - { offset: 0x5C7DD, size: 0x8, addend: 0x0, symName: _.str.296, symObjAddr: 0x189EE0, symBinAddr: 0x1002B16E0, symSize: 0x0 }
  - { offset: 0x5C7F0, size: 0x8, addend: 0x0, symName: _.str.297, symObjAddr: 0x189F00, symBinAddr: 0x1002B1700, symSize: 0x0 }
  - { offset: 0x5C803, size: 0x8, addend: 0x0, symName: _.str.302, symObjAddr: 0x189F20, symBinAddr: 0x1002B1720, symSize: 0x0 }
  - { offset: 0x5C814, size: 0x8, addend: 0x0, symName: __ZTVN7testing8internal26ParameterizedTestSuiteInfoIN12_GLOBAL__N_121CaesarDec_SplitSpacesEEE, symObjAddr: 0x264840, symBinAddr: 0x1003F53E0, symSize: 0x0 }
  - { offset: 0x5C829, size: 0x8, addend: 0x0, symName: __ZTVN7testing8internal26ParameterizedTestSuiteInfoIN12_GLOBAL__N_124CaesarDec_JoinWithSpacesEEE, symObjAddr: 0x2648E0, symBinAddr: 0x1003F5480, symSize: 0x0 }
  - { offset: 0x5C83E, size: 0x8, addend: 0x0, symName: __ZTVN7testing8internal26ParameterizedTestSuiteInfoIN12_GLOBAL__N_120CaesarDec_NumWordsInEEE, symObjAddr: 0x264980, symBinAddr: 0x1003F5520, symSize: 0x0 }
  - { offset: 0x5C853, size: 0x8, addend: 0x0, symName: __ZTVN7testing8internal26ParameterizedTestSuiteInfoIN12_GLOBAL__N_127CaesarDec_CustomDictCommandEEE, symObjAddr: 0x264A20, symBinAddr: 0x1003F55C0, symSize: 0x0 }
  - { offset: 0x5C868, size: 0x8, addend: 0x0, symName: __ZTVN7testing8internal26ParameterizedTestSuiteInfoIN12_GLOBAL__N_129CaesarDec_FullDictMainCommandEEE, symObjAddr: 0x264AC0, symBinAddr: 0x1003F5660, symSize: 0x0 }
  - { offset: 0x5DA3E, size: 0x8, addend: 0x0, symName: __ZNSt3__112basic_stringIcNS_11char_traitsIcEENS_9allocatorIcEEEC1B8ne210108ILi0EEEPKc, symObjAddr: 0x0, symBinAddr: 0x100001628, symSize: 0x6C }
  - { offset: 0x5DA7E, size: 0x8, addend: 0x0, symName: __ZN7testing8internal12CodeLocationC1ENSt3__112basic_stringIcNS2_11char_traitsIcEENS2_9allocatorIcEEEEi, symObjAddr: 0x6C, symBinAddr: 0x100001694, symSize: 0x78 }
  - { offset: 0x5DACF, size: 0x8, addend: 0x0, symName: __ZN7testing8internal16SuiteApiResolverINS_4TestEE19GetSetUpCaseOrSuiteEPKci, symObjAddr: 0xEC, symBinAddr: 0x100001714, symSize: 0x478 }
  - { offset: 0x5DB24, size: 0x8, addend: 0x0, symName: __ZN7testing8internal16SuiteApiResolverINS_4TestEE22GetTearDownCaseOrSuiteEPKci, symObjAddr: 0x56C, symBinAddr: 0x100001B94, symSize: 0x478 }
  - { offset: 0x5DB79, size: 0x8, addend: 0x0, symName: __ZN7testing8internal15TestFactoryImplIN12_GLOBAL__N_127CaesarDec_RotVec_Empty_TestEEC1Ev, symObjAddr: 0x9E4, symBinAddr: 0x10000200C, symSize: 0x64 }
  - { offset: 0x5DBA6, size: 0x8, addend: 0x0, symName: __ZN7testing8internal12CodeLocationD1Ev, symObjAddr: 0xA48, symBinAddr: 0x100002070, symSize: 0x64 }
  - { offset: 0x5DBD7, size: 0x8, addend: 0x0, symName: __ZN7testing8internal15TestFactoryImplIN12_GLOBAL__N_129CaesarDec_RotVec_OneElem_TestEEC1Ev, symObjAddr: 0xAAC, symBinAddr: 0x1000020D4, symSize: 0x64 }
  - { offset: 0x5DC04, size: 0x8, addend: 0x0, symName: __ZN7testing8internal15TestFactoryImplIN12_GLOBAL__N_135CaesarDec_RotVec_MultipleElems_TestEEC1Ev, symObjAddr: 0xB10, symBinAddr: 0x100002138, symSize: 0x64 }
  - { offset: 0x5DC31, size: 0x8, addend: 0x0, symName: __ZN12_GLOBAL__N_125CaesarDec_Clean_Case_Test13AddToRegistryEv, symObjAddr: 0xB7C, symBinAddr: 0x1000021A4, symSize: 0x534 }
  - { offset: 0x5DD19, size: 0x8, addend: 0x0, symName: __ZN7testing8internal30ParameterizedTestSuiteRegistry25GetTestSuitePatternHolderIN12_GLOBAL__N_115CaesarDec_CleanEEEPNS0_26ParameterizedTestSuiteInfoIT_EENSt3__112basic_stringIcNS9_11char_traitsIcEENS9_9allocatorIcEEEENS0_12CodeLocationE, symObjAddr: 0x10B0, symBinAddr: 0x1000026D8, symSize: 0xA18 }
  - { offset: 0x5DDAC, size: 0x8, addend: 0x0, symName: __ZN7testing8internal26ParameterizedTestSuiteInfoIN12_GLOBAL__N_115CaesarDec_CleanEE25AddTestSuiteInstantiationENSt3__112basic_stringIcNS5_11char_traitsIcEENS5_9allocatorIcEEEEPFNS0_14ParamGeneratorINS5_5tupleIJSB_SB_EEEEEvEPFSB_RKNS_13TestParamInfoISE_EEEPKci, symObjAddr: 0x1AC8, symBinAddr: 0x1000030F0, symSize: 0x31C }
  - { offset: 0x5DE31, size: 0x8, addend: 0x0, symName: __ZN12_GLOBAL__N_131CaesarDec_SplitSpaces_Case_Test13AddToRegistryEv, symObjAddr: 0x239C, symBinAddr: 0x1000039C4, symSize: 0x534 }
  - { offset: 0x5DE45, size: 0x8, addend: 0x0, symName: __ZN7testing8internal30ParameterizedTestSuiteRegistry25GetTestSuitePatternHolderIN12_GLOBAL__N_121CaesarDec_SplitSpacesEEEPNS0_26ParameterizedTestSuiteInfoIT_EENSt3__112basic_stringIcNS9_11char_traitsIcEENS9_9allocatorIcEEEENS0_12CodeLocationE, symObjAddr: 0x28D0, symBinAddr: 0x100003EF8, symSize: 0xA18 }
  - { offset: 0x5DED8, size: 0x8, addend: 0x0, symName: __ZN7testing8internal26ParameterizedTestSuiteInfoIN12_GLOBAL__N_121CaesarDec_SplitSpacesEE25AddTestSuiteInstantiationENSt3__112basic_stringIcNS5_11char_traitsIcEENS5_9allocatorIcEEEEPFNS0_14ParamGeneratorINS5_5tupleIJSB_NS5_6vectorISB_NS9_ISB_EEEEEEEEEvEPFSB_RKNS_13TestParamInfoISH_EEEPKci, symObjAddr: 0x32E8, symBinAddr: 0x100004910, symSize: 0x31C }
  - { offset: 0x5DF5D, size: 0x8, addend: 0x0, symName: __ZN12_GLOBAL__N_134CaesarDec_JoinWithSpaces_Case_Test13AddToRegistryEv, symObjAddr: 0x6380, symBinAddr: 0x1000079A8, symSize: 0x534 }
  - { offset: 0x5DF71, size: 0x8, addend: 0x0, symName: __ZN7testing8internal30ParameterizedTestSuiteRegistry25GetTestSuitePatternHolderIN12_GLOBAL__N_124CaesarDec_JoinWithSpacesEEEPNS0_26ParameterizedTestSuiteInfoIT_EENSt3__112basic_stringIcNS9_11char_traitsIcEENS9_9allocatorIcEEEENS0_12CodeLocationE, symObjAddr: 0x68B4, symBinAddr: 0x100007EDC, symSize: 0xA18 }
  - { offset: 0x5E004, size: 0x8, addend: 0x0, symName: __ZN7testing8internal26ParameterizedTestSuiteInfoIN12_GLOBAL__N_124CaesarDec_JoinWithSpacesEE25AddTestSuiteInstantiationENSt3__112basic_stringIcNS5_11char_traitsIcEENS5_9allocatorIcEEEEPFNS0_14ParamGeneratorINS5_5tupleIJNS5_6vectorISB_NS9_ISB_EEEESB_EEEEEvEPFSB_RKNS_13TestParamInfoISH_EEEPKci, symObjAddr: 0x72CC, symBinAddr: 0x1000088F4, symSize: 0x31C }
  - { offset: 0x5E089, size: 0x8, addend: 0x0, symName: __ZN12_GLOBAL__N_130CaesarDec_NumWordsIn_Case_Test13AddToRegistryEv, symObjAddr: 0x91A0, symBinAddr: 0x10000A7C8, symSize: 0x534 }
  - { offset: 0x5E09D, size: 0x8, addend: 0x0, symName: __ZN7testing8internal30ParameterizedTestSuiteRegistry25GetTestSuitePatternHolderIN12_GLOBAL__N_120CaesarDec_NumWordsInEEEPNS0_26ParameterizedTestSuiteInfoIT_EENSt3__112basic_stringIcNS9_11char_traitsIcEENS9_9allocatorIcEEEENS0_12CodeLocationE, symObjAddr: 0x96D4, symBinAddr: 0x10000ACFC, symSize: 0xA18 }
  - { offset: 0x5E130, size: 0x8, addend: 0x0, symName: __ZN7testing8internal26ParameterizedTestSuiteInfoIN12_GLOBAL__N_120CaesarDec_NumWordsInEE25AddTestSuiteInstantiationENSt3__112basic_stringIcNS5_11char_traitsIcEENS5_9allocatorIcEEEEPFNS0_14ParamGeneratorINS5_5tupleIJNS5_6vectorISB_NS9_ISB_EEEESG_iEEEEEvEPFSB_RKNS_13TestParamInfoISH_EEEPKci, symObjAddr: 0xA0EC, symBinAddr: 0x10000B714, symSize: 0x31C }
  - { offset: 0x5E1B5, size: 0x8, addend: 0x0, symName: __ZN12_GLOBAL__N_137CaesarDec_CustomDictCommand_Case_Test13AddToRegistryEv, symObjAddr: 0xDB48, symBinAddr: 0x10000F170, symSize: 0x534 }
  - { offset: 0x5E1C9, size: 0x8, addend: 0x0, symName: __ZN7testing8internal30ParameterizedTestSuiteRegistry25GetTestSuitePatternHolderIN12_GLOBAL__N_127CaesarDec_CustomDictCommandEEEPNS0_26ParameterizedTestSuiteInfoIT_EENSt3__112basic_stringIcNS9_11char_traitsIcEENS9_9allocatorIcEEEENS0_12CodeLocationE, symObjAddr: 0xE07C, symBinAddr: 0x10000F6A4, symSize: 0xA18 }
  - { offset: 0x5E25C, size: 0x8, addend: 0x0, symName: __ZN7testing8internal26ParameterizedTestSuiteInfoIN12_GLOBAL__N_127CaesarDec_CustomDictCommandEE25AddTestSuiteInstantiationENSt3__112basic_stringIcNS5_11char_traitsIcEENS5_9allocatorIcEEEEPFNS0_14ParamGeneratorINS5_5tupleIJSB_NS5_6vectorISB_NS9_ISB_EEEESB_SB_EEEEEvEPFSB_RKNS_13TestParamInfoISH_EEEPKci, symObjAddr: 0xEA94, symBinAddr: 0x1000100BC, symSize: 0x31C }
  - { offset: 0x5E2E1, size: 0x8, addend: 0x0, symName: __ZN7testing8internal16SuiteApiResolverIN12_GLOBAL__N_135CaesarDec_FullDictMainCommandPromptEE19GetSetUpCaseOrSuiteEPKci, symObjAddr: 0x141A0, symBinAddr: 0x1000157C8, symSize: 0x478 }
  - { offset: 0x5E336, size: 0x8, addend: 0x0, symName: __ZN7testing8internal16SuiteApiResolverIN12_GLOBAL__N_135CaesarDec_FullDictMainCommandPromptEE22GetTearDownCaseOrSuiteEPKci, symObjAddr: 0x14620, symBinAddr: 0x100015C48, symSize: 0x478 }
  - { offset: 0x5E38B, size: 0x8, addend: 0x0, symName: __ZN7testing8internal15TestFactoryImplIN12_GLOBAL__N_154CaesarDec_FullDictMainCommandPrompt_CommandPrompt_TestEEC1Ev, symObjAddr: 0x14A98, symBinAddr: 0x1000160C0, symSize: 0x64 }
  - { offset: 0x5E3B8, size: 0x8, addend: 0x0, symName: __ZN12_GLOBAL__N_139CaesarDec_FullDictMainCommand_Case_Test13AddToRegistryEv, symObjAddr: 0x14B04, symBinAddr: 0x10001612C, symSize: 0x534 }
  - { offset: 0x5E3CC, size: 0x8, addend: 0x0, symName: __ZN7testing8internal30ParameterizedTestSuiteRegistry25GetTestSuitePatternHolderIN12_GLOBAL__N_129CaesarDec_FullDictMainCommandEEEPNS0_26ParameterizedTestSuiteInfoIT_EENSt3__112basic_stringIcNS9_11char_traitsIcEENS9_9allocatorIcEEEENS0_12CodeLocationE, symObjAddr: 0x15038, symBinAddr: 0x100016660, symSize: 0xA18 }
  - { offset: 0x5E45F, size: 0x8, addend: 0x0, symName: __ZN7testing8internal26ParameterizedTestSuiteInfoIN12_GLOBAL__N_129CaesarDec_FullDictMainCommandEE25AddTestSuiteInstantiationENSt3__112basic_stringIcNS5_11char_traitsIcEENS5_9allocatorIcEEEEPFNS0_14ParamGeneratorINS5_5tupleIJSB_SB_SB_EEEEEvEPFSB_RKNS_13TestParamInfoISE_EEEPKci, symObjAddr: 0x15A50, symBinAddr: 0x100017078, symSize: 0x31C }
  - { offset: 0x5E4E4, size: 0x8, addend: 0x0, symName: __ZNSt3__112basic_stringIcNS_11char_traitsIcEENS_9allocatorIcEEEC2B8ne210108ILi0EEEPKc, symObjAddr: 0x1687C, symBinAddr: 0x100017EA4, symSize: 0x88 }
  - { offset: 0x5E524, size: 0x8, addend: 0x0, symName: __ZNSt3__19allocatorIcEC1B8ne210108Ev, symObjAddr: 0x16904, symBinAddr: 0x100017F2C, symSize: 0x50 }
  - { offset: 0x5E54E, size: 0x8, addend: 0x0, symName: __ZNSt3__111char_traitsIcE6lengthB8ne210108EPKc, symObjAddr: 0x1695C, symBinAddr: 0x100017F84, symSize: 0x24 }
  - { offset: 0x5E571, size: 0x8, addend: 0x0, symName: __ZNSt3__19allocatorIcEC2B8ne210108Ev, symObjAddr: 0x16980, symBinAddr: 0x100017FA8, symSize: 0x70 }
  - { offset: 0x5E59B, size: 0x8, addend: 0x0, symName: __ZNSt3__116__non_trivial_ifILb1ENS_9allocatorIcEEEC2B8ne210108Ev, symObjAddr: 0x169F0, symBinAddr: 0x100018018, symSize: 0x48 }
  - { offset: 0x5E5C5, size: 0x8, addend: 0x0, symName: __ZN7testing8internal12CodeLocationC2ENSt3__112basic_stringIcNS2_11char_traitsIcEENS2_9allocatorIcEEEEi, symObjAddr: 0x16A64, symBinAddr: 0x10001808C, symSize: 0x128 }
  - { offset: 0x5E60E, size: 0x8, addend: 0x0, symName: __ZNSt3__112basic_stringIcNS_11char_traitsIcEENS_9allocatorIcEEEC1B8ne210108EOS5_, symObjAddr: 0x16B8C, symBinAddr: 0x1000181B4, symSize: 0x6C }
  - { offset: 0x5E647, size: 0x8, addend: 0x0, symName: __ZNSt3__112basic_stringIcNS_11char_traitsIcEENS_9allocatorIcEEEC2B8ne210108EOS5_, symObjAddr: 0x16BF8, symBinAddr: 0x100018220, symSize: 0x344 }
  - { offset: 0x5E6B3, size: 0x8, addend: 0x0, symName: __ZZNSt3__112basic_stringIcNS_11char_traitsIcEENS_9allocatorIcEEEC1B8ne210108EOS5_ENKUlRS5_E_clES7_, symObjAddr: 0x16F3C, symBinAddr: 0x100018564, symSize: 0x10C }
  - { offset: 0x5E6EC, size: 0x8, addend: 0x0, symName: __ZNKSt3__112basic_stringIcNS_11char_traitsIcEENS_9allocatorIcEEE14__annotate_newB8ne210108Em, symObjAddr: 0x17058, symBinAddr: 0x100018680, symSize: 0x2F4 }
  - { offset: 0x5E721, size: 0x8, addend: 0x0, symName: __ZNKSt3__112basic_stringIcNS_11char_traitsIcEENS_9allocatorIcEEE9__is_longB8ne210108Ev, symObjAddr: 0x1734C, symBinAddr: 0x100018974, symSize: 0x144 }
  - { offset: 0x5E747, size: 0x8, addend: 0x0, symName: __ZNKSt3__112basic_stringIcNS_11char_traitsIcEENS_9allocatorIcEEE4sizeB8ne210108Ev, symObjAddr: 0x17490, symBinAddr: 0x100018AB8, symSize: 0x88 }
  - { offset: 0x5E76D, size: 0x8, addend: 0x0, symName: __ZNKSt3__112basic_stringIcNS_11char_traitsIcEENS_9allocatorIcEEE17__annotate_deleteB8ne210108Ev, symObjAddr: 0x17518, symBinAddr: 0x100018B40, symSize: 0x318 }
  - { offset: 0x5E793, size: 0x8, addend: 0x0, symName: __ZNKSt3__112basic_stringIcNS_11char_traitsIcEENS_9allocatorIcEEE31__annotate_contiguous_containerB8ne210108EPKvS7_, symObjAddr: 0x17830, symBinAddr: 0x100018E58, symSize: 0x5C }
  - { offset: 0x5E7D7, size: 0x8, addend: 0x0, symName: __ZNKSt3__112basic_stringIcNS_11char_traitsIcEENS_9allocatorIcEEE4dataB8ne210108Ev, symObjAddr: 0x1788C, symBinAddr: 0x100018EB4, symSize: 0x60 }
  - { offset: 0x5E7FD, size: 0x8, addend: 0x0, symName: __ZNKSt3__112basic_stringIcNS_11char_traitsIcEENS_9allocatorIcEEE8capacityB8ne210108Ev, symObjAddr: 0x178EC, symBinAddr: 0x100018F14, symSize: 0x88 }
  - { offset: 0x5E823, size: 0x8, addend: 0x0, symName: __ZNKSt3__112basic_stringIcNS_11char_traitsIcEENS_9allocatorIcEEE13__get_pointerB8ne210108Ev, symObjAddr: 0x17990, symBinAddr: 0x100018FB8, symSize: 0x88 }
  - { offset: 0x5E849, size: 0x8, addend: 0x0, symName: __ZNKSt3__112basic_stringIcNS_11char_traitsIcEENS_9allocatorIcEEE18__get_long_pointerB8ne210108Ev, symObjAddr: 0x17A18, symBinAddr: 0x100019040, symSize: 0x150 }
  - { offset: 0x5E86F, size: 0x8, addend: 0x0, symName: __ZNKSt3__112basic_stringIcNS_11char_traitsIcEENS_9allocatorIcEEE19__get_short_pointerB8ne210108Ev, symObjAddr: 0x17B68, symBinAddr: 0x100019190, symSize: 0x104 }
  - { offset: 0x5E895, size: 0x8, addend: 0x0, symName: __ZNSt3__114pointer_traitsIPKcE10pointer_toB8ne210108ERS1_, symObjAddr: 0x17C74, symBinAddr: 0x10001929C, symSize: 0x14 }
  - { offset: 0x5E8B8, size: 0x8, addend: 0x0, symName: __ZNKSt3__112basic_stringIcNS_11char_traitsIcEENS_9allocatorIcEEE14__get_long_capB8ne210108Ev, symObjAddr: 0x17C88, symBinAddr: 0x1000192B0, symSize: 0x120 }
  - { offset: 0x5E8DE, size: 0x8, addend: 0x0, symName: __ZNKSt3__112basic_stringIcNS_11char_traitsIcEENS_9allocatorIcEEE15__get_long_sizeB8ne210108Ev, symObjAddr: 0x17DA8, symBinAddr: 0x1000193D0, symSize: 0x158 }
  - { offset: 0x5E904, size: 0x8, addend: 0x0, symName: __ZNKSt3__112basic_stringIcNS_11char_traitsIcEENS_9allocatorIcEEE16__get_short_sizeB8ne210108Ev, symObjAddr: 0x17F00, symBinAddr: 0x100019528, symSize: 0x144 }
  - { offset: 0x5E92A, size: 0x8, addend: 0x0, symName: __ZN7testing8internal15TestFactoryImplIN12_GLOBAL__N_127CaesarDec_RotVec_Empty_TestEEC2Ev, symObjAddr: 0x18044, symBinAddr: 0x10001966C, symSize: 0xF8 }
  - { offset: 0x5E957, size: 0x8, addend: 0x0, symName: __ZN7testing8internal15TestFactoryBaseC2Ev, symObjAddr: 0x1813C, symBinAddr: 0x100019764, symSize: 0xB4 }
  - { offset: 0x5E981, size: 0x8, addend: 0x0, symName: __ZN7testing8internal15TestFactoryImplIN12_GLOBAL__N_127CaesarDec_RotVec_Empty_TestEED1Ev, symObjAddr: 0x181F0, symBinAddr: 0x100019818, symSize: 0x64 }
  - { offset: 0x5E9B2, size: 0x8, addend: 0x0, symName: __ZN7testing8internal15TestFactoryImplIN12_GLOBAL__N_127CaesarDec_RotVec_Empty_TestEED0Ev, symObjAddr: 0x18254, symBinAddr: 0x10001987C, symSize: 0x68 }
  - { offset: 0x5E9DF, size: 0x8, addend: 0x0, symName: __ZN7testing8internal15TestFactoryImplIN12_GLOBAL__N_127CaesarDec_RotVec_Empty_TestEE10CreateTestEv, symObjAddr: 0x182BC, symBinAddr: 0x1000198E4, symSize: 0xFC }
  - { offset: 0x5EA05, size: 0x8, addend: 0x0, symName: __ZN7testing8internal15TestFactoryBaseD1Ev, symObjAddr: 0x183B8, symBinAddr: 0x1000199E0, symSize: 0x54 }
  - { offset: 0x5EA33, size: 0x8, addend: 0x0, symName: __ZN7testing8internal15TestFactoryBaseD0Ev, symObjAddr: 0x1840C, symBinAddr: 0x100019A34, symSize: 0x50 }
  - { offset: 0x5EA5D, size: 0x8, addend: 0x0, symName: __ZN7testing8internal15TestFactoryImplIN12_GLOBAL__N_127CaesarDec_RotVec_Empty_TestEED2Ev, symObjAddr: 0x1845C, symBinAddr: 0x100019A84, symSize: 0x64 }
  - { offset: 0x5EA8E, size: 0x8, addend: 0x0, symName: __ZN7testing8internal15TestFactoryBaseD2Ev, symObjAddr: 0x184C0, symBinAddr: 0x100019AE8, symSize: 0x5C }
  - { offset: 0x5EABC, size: 0x8, addend: 0x0, symName: __ZN12_GLOBAL__N_127CaesarDec_RotVec_Empty_TestC1Ev, symObjAddr: 0x1851C, symBinAddr: 0x100019B44, symSize: 0x64 }
  - { offset: 0x5EAE6, size: 0x8, addend: 0x0, symName: __ZN12_GLOBAL__N_127CaesarDec_RotVec_Empty_TestC2Ev, symObjAddr: 0x18580, symBinAddr: 0x100019BA8, symSize: 0xF8 }
  - { offset: 0x5EB10, size: 0x8, addend: 0x0, symName: __ZN12_GLOBAL__N_127CaesarDec_RotVec_Empty_TestD1Ev, symObjAddr: 0x18678, symBinAddr: 0x100019CA0, symSize: 0x64 }
  - { offset: 0x5EB3E, size: 0x8, addend: 0x0, symName: __ZN12_GLOBAL__N_127CaesarDec_RotVec_Empty_TestD0Ev, symObjAddr: 0x186DC, symBinAddr: 0x100019D04, symSize: 0x68 }
  - { offset: 0x5EB68, size: 0x8, addend: 0x0, symName: __ZN12_GLOBAL__N_127CaesarDec_RotVec_Empty_Test8TestBodyEv, symObjAddr: 0x18744, symBinAddr: 0x100019D6C, symSize: 0x5A0 }
  - { offset: 0x5EBB9, size: 0x8, addend: 0x0, symName: __ZN7testing4Test5SetupEv, symObjAddr: 0x18CE4, symBinAddr: 0x10001A30C, symSize: 0x58 }
  - { offset: 0x5EBDF, size: 0x8, addend: 0x0, symName: __ZN12_GLOBAL__N_127CaesarDec_RotVec_Empty_TestD2Ev, symObjAddr: 0x18D3C, symBinAddr: 0x10001A364, symSize: 0x64 }
  - { offset: 0x5EC0D, size: 0x8, addend: 0x0, symName: __ZNSt3__16vectorINS_12basic_stringIcNS_11char_traitsIcEENS_9allocatorIcEEEENS4_IS6_EEEC1B8ne210108Ev, symObjAddr: 0x18DA0, symBinAddr: 0x10001A3C8, symSize: 0x64 }
  - { offset: 0x5EC5F, size: 0x8, addend: 0x0, symName: __ZNK7testing8internal29PredicateFormatterFromMatcherINS_18PolymorphicMatcherINS0_14IsEmptyMatcherEEEEclINSt3__16vectorINS7_12basic_stringIcNS7_11char_traitsIcEENS7_9allocatorIcEEEENSC_ISE_EEEEEENS_15AssertionResultEPKcRKT_, symObjAddr: 0x19194, symBinAddr: 0x10001A7BC, symSize: 0xB10 }
  - { offset: 0x5ECE9, size: 0x8, addend: 0x0, symName: __ZNK7testing15AssertionResultcvbEv, symObjAddr: 0x19CA4, symBinAddr: 0x10001B2CC, symSize: 0xE8 }
  - { offset: 0x5ED0F, size: 0x8, addend: 0x0, symName: __ZNK7testing15AssertionResult15failure_messageEv, symObjAddr: 0x19D8C, symBinAddr: 0x10001B3B4, symSize: 0x5C }
  - { offset: 0x5ED35, size: 0x8, addend: 0x0, symName: __ZN7testing7MessageD1Ev, symObjAddr: 0x19DE8, symBinAddr: 0x10001B410, symSize: 0x64 }
  - { offset: 0x5ED65, size: 0x8, addend: 0x0, symName: __ZN7testing15AssertionResultD1Ev, symObjAddr: 0x19E4C, symBinAddr: 0x10001B474, symSize: 0x64 }
  - { offset: 0x5ED95, size: 0x8, addend: 0x0, symName: __ZNSt3__16vectorINS_12basic_stringIcNS_11char_traitsIcEENS_9allocatorIcEEEENS4_IS6_EEED1B8ne210108Ev, symObjAddr: 0x19EB0, symBinAddr: 0x10001B4D8, symSize: 0x64 }
  - { offset: 0x5EDC3, size: 0x8, addend: 0x0, symName: __ZNSt3__16vectorINS_12basic_stringIcNS_11char_traitsIcEENS_9allocatorIcEEEENS4_IS6_EEEC2B8ne210108Ev, symObjAddr: 0x19F14, symBinAddr: 0x10001B53C, symSize: 0x110 }
  - { offset: 0x5EDED, size: 0x8, addend: 0x0, symName: __ZNSt3__19allocatorINS_12basic_stringIcNS_11char_traitsIcEENS0_IcEEEEEC1B8ne210108Ev, symObjAddr: 0x1A024, symBinAddr: 0x10001B64C, symSize: 0x50 }
  - { offset: 0x5EE17, size: 0x8, addend: 0x0, symName: __ZNSt3__19allocatorINS_12basic_stringIcNS_11char_traitsIcEENS0_IcEEEEEC2B8ne210108Ev, symObjAddr: 0x1A074, symBinAddr: 0x10001B69C, symSize: 0x70 }
  - { offset: 0x5EE41, size: 0x8, addend: 0x0, symName: __ZNSt3__116__non_trivial_ifILb1ENS_9allocatorINS_12basic_stringIcNS_11char_traitsIcEENS1_IcEEEEEEEC2B8ne210108Ev, symObjAddr: 0x1A0E4, symBinAddr: 0x10001B70C, symSize: 0x48 }
  - { offset: 0x5EE6B, size: 0x8, addend: 0x0, symName: __ZN7testing8internal29PredicateFormatterFromMatcherINS_18PolymorphicMatcherINS0_14IsEmptyMatcherEEEEC1ES4_, symObjAddr: 0x1A12C, symBinAddr: 0x10001B754, symSize: 0x60 }
  - { offset: 0x5EEA4, size: 0x8, addend: 0x0, symName: __ZN7testing8internal29PredicateFormatterFromMatcherINS_18PolymorphicMatcherINS0_14IsEmptyMatcherEEEEC2ES4_, symObjAddr: 0x1A18C, symBinAddr: 0x10001B7B4, symSize: 0x60 }
  - { offset: 0x5EEDD, size: 0x8, addend: 0x0, symName: __ZN7testing18PolymorphicMatcherINS_8internal14IsEmptyMatcherEEC1ERKS2_, symObjAddr: 0x1A3C4, symBinAddr: 0x10001B9EC, symSize: 0x58 }
  - { offset: 0x5EF16, size: 0x8, addend: 0x0, symName: __ZN7testing18PolymorphicMatcherINS_8internal14IsEmptyMatcherEEC2ERKS2_, symObjAddr: 0x1A41C, symBinAddr: 0x10001BA44, symSize: 0x4C }
  - { offset: 0x5EF4F, size: 0x8, addend: 0x0, symName: __ZNK7testing8internal11MatcherBaseIRKNSt3__16vectorINS2_12basic_stringIcNS2_11char_traitsIcEENS2_9allocatorIcEEEENS7_IS9_EEEEE7MatchesESD_, symObjAddr: 0x1A4C4, symBinAddr: 0x10001BAEC, symSize: 0x2DC }
  - { offset: 0x5EF97, size: 0x8, addend: 0x0, symName: __ZNSt3__118basic_stringstreamIcNS_11char_traitsIcEENS_9allocatorIcEEEC1B8ne210108Ev, symObjAddr: 0x1A7A0, symBinAddr: 0x10001BDC8, symSize: 0x320 }
  - { offset: 0x5EFC1, size: 0x8, addend: 0x0, symName: __ZNK7testing8internal11MatcherBaseIRKNSt3__16vectorINS2_12basic_stringIcNS2_11char_traitsIcEENS2_9allocatorIcEEEENS7_IS9_EEEEE10DescribeToEPNS2_13basic_ostreamIcS6_EE, symObjAddr: 0x1AB78, symBinAddr: 0x10001C1A0, symSize: 0x4CC }
  - { offset: 0x5EFF7, size: 0x8, addend: 0x0, symName: __ZN7testing25StringMatchResultListenerC1Ev, symObjAddr: 0x1B044, symBinAddr: 0x10001C66C, symSize: 0x64 }
  - { offset: 0x5F021, size: 0x8, addend: 0x0, symName: __ZNK7testing25StringMatchResultListener3strEv, symObjAddr: 0x1BAE4, symBinAddr: 0x10001D10C, symSize: 0xAC }
  - { offset: 0x5F047, size: 0x8, addend: 0x0, symName: __ZN7testing15AssertionResultlsINSt3__112basic_stringIcNS2_11char_traitsIcEENS2_9allocatorIcEEEEEERS0_RKT_, symObjAddr: 0x1BB90, symBinAddr: 0x10001D1B8, symSize: 0x350 }
  - { offset: 0x5F086, size: 0x8, addend: 0x0, symName: __ZNKRSt3__118basic_stringstreamIcNS_11char_traitsIcEENS_9allocatorIcEEE3strB8ne210108Ev, symObjAddr: 0x1BEE0, symBinAddr: 0x10001D508, symSize: 0xAC }
  - { offset: 0x5F0AC, size: 0x8, addend: 0x0, symName: __ZN7testing25StringMatchResultListenerD1Ev, symObjAddr: 0x1BF8C, symBinAddr: 0x10001D5B4, symSize: 0x64 }
  - { offset: 0x5F0DD, size: 0x8, addend: 0x0, symName: __ZNSt3__118basic_stringstreamIcNS_11char_traitsIcEENS_9allocatorIcEEED1Ev, symObjAddr: 0x1BFF0, symBinAddr: 0x10001D618, symSize: 0x78 }
  - { offset: 0x5F10E, size: 0x8, addend: 0x0, symName: __ZN7testing7MatcherIRKNSt3__16vectorINS1_12basic_stringIcNS1_11char_traitsIcEENS1_9allocatorIcEEEENS6_IS8_EEEEED1Ev, symObjAddr: 0x1C068, symBinAddr: 0x10001D690, symSize: 0x64 }
  - { offset: 0x5F144, size: 0x8, addend: 0x0, symName: __ZN7testing8internal15MatcherCastImplIRKNSt3__16vectorINS2_12basic_stringIcNS2_11char_traitsIcEENS2_9allocatorIcEEEENS7_IS9_EEEENS_18PolymorphicMatcherINS0_14IsEmptyMatcherEEEE4CastERKSG_, symObjAddr: 0x1C130, symBinAddr: 0x10001D758, symSize: 0x54 }
  - { offset: 0x5F168, size: 0x8, addend: 0x0, symName: __ZN7testing8internal15MatcherCastImplIRKNSt3__16vectorINS2_12basic_stringIcNS2_11char_traitsIcEENS2_9allocatorIcEEEENS7_IS9_EEEENS_18PolymorphicMatcherINS0_14IsEmptyMatcherEEEE8CastImplILb0EEENS_7MatcherISD_EERKSG_NS2_17integral_constantIbLb1EEENSN_IbXT_EEE, symObjAddr: 0x1C18C, symBinAddr: 0x10001D7B4, symSize: 0x2C }
  - { offset: 0x5F1AC, size: 0x8, addend: 0x0, symName: __ZNK7testing18PolymorphicMatcherINS_8internal14IsEmptyMatcherEEcvNS_7MatcherIT_EEIRKNSt3__16vectorINS8_12basic_stringIcNS8_11char_traitsIcEENS8_9allocatorIcEEEENSD_ISF_EEEEEEv, symObjAddr: 0x1C1B8, symBinAddr: 0x10001D7E0, symSize: 0x150 }
  - { offset: 0x5F1DB, size: 0x8, addend: 0x0, symName: __ZN7testing18PolymorphicMatcherINS_8internal14IsEmptyMatcherEE15MonomorphicImplIRKNSt3__16vectorINS5_12basic_stringIcNS5_11char_traitsIcEENS5_9allocatorIcEEEENSA_ISC_EEEEEC1ERKS2_, symObjAddr: 0x1C308, symBinAddr: 0x10001D930, symSize: 0x6C }
  - { offset: 0x5F214, size: 0x8, addend: 0x0, symName: __ZN7testing7MatcherIRKNSt3__16vectorINS1_12basic_stringIcNS1_11char_traitsIcEENS1_9allocatorIcEEEENS6_IS8_EEEEEC1EPKNS_16MatcherInterfaceISC_EE, symObjAddr: 0x1C374, symBinAddr: 0x10001D99C, symSize: 0x6C }
  - { offset: 0x5F24D, size: 0x8, addend: 0x0, symName: __ZN7testing18PolymorphicMatcherINS_8internal14IsEmptyMatcherEE15MonomorphicImplIRKNSt3__16vectorINS5_12basic_stringIcNS5_11char_traitsIcEENS5_9allocatorIcEEEENSA_ISC_EEEEEC2ERKS2_, symObjAddr: 0x1C3E0, symBinAddr: 0x10001DA08, symSize: 0xFC }
  - { offset: 0x5F28C, size: 0x8, addend: 0x0, symName: __ZN7testing16MatcherInterfaceIRKNSt3__16vectorINS1_12basic_stringIcNS1_11char_traitsIcEENS1_9allocatorIcEEEENS6_IS8_EEEEEC2Ev, symObjAddr: 0x1C4DC, symBinAddr: 0x10001DB04, symSize: 0xF8 }
  - { offset: 0x5F2B8, size: 0x8, addend: 0x0, symName: __ZN7testing18PolymorphicMatcherINS_8internal14IsEmptyMatcherEE15MonomorphicImplIRKNSt3__16vectorINS5_12basic_stringIcNS5_11char_traitsIcEENS5_9allocatorIcEEEENSA_ISC_EEEEED1Ev, symObjAddr: 0x1C5D4, symBinAddr: 0x10001DBFC, symSize: 0x64 }
  - { offset: 0x5F2E9, size: 0x8, addend: 0x0, symName: __ZN7testing18PolymorphicMatcherINS_8internal14IsEmptyMatcherEE15MonomorphicImplIRKNSt3__16vectorINS5_12basic_stringIcNS5_11char_traitsIcEENS5_9allocatorIcEEEENSA_ISC_EEEEED0Ev, symObjAddr: 0x1C638, symBinAddr: 0x10001DC60, symSize: 0x68 }
  - { offset: 0x5F316, size: 0x8, addend: 0x0, symName: __ZNK7testing18PolymorphicMatcherINS_8internal14IsEmptyMatcherEE15MonomorphicImplIRKNSt3__16vectorINS5_12basic_stringIcNS5_11char_traitsIcEENS5_9allocatorIcEEEENSA_ISC_EEEEE10DescribeToEPNS5_13basic_ostreamIcS9_EE, symObjAddr: 0x1C6A0, symBinAddr: 0x10001DCC8, symSize: 0x8C }
  - { offset: 0x5F34B, size: 0x8, addend: 0x0, symName: __ZNK7testing18PolymorphicMatcherINS_8internal14IsEmptyMatcherEE15MonomorphicImplIRKNSt3__16vectorINS5_12basic_stringIcNS5_11char_traitsIcEENS5_9allocatorIcEEEENSA_ISC_EEEEE18DescribeNegationToEPNS5_13basic_ostreamIcS9_EE, symObjAddr: 0x1C72C, symBinAddr: 0x10001DD54, symSize: 0x8C }
  - { offset: 0x5F380, size: 0x8, addend: 0x0, symName: __ZNK7testing18PolymorphicMatcherINS_8internal14IsEmptyMatcherEE15MonomorphicImplIRKNSt3__16vectorINS5_12basic_stringIcNS5_11char_traitsIcEENS5_9allocatorIcEEEENSA_ISC_EEEEE15MatchAndExplainESG_PNS_19MatchResultListenerE, symObjAddr: 0x1C7B8, symBinAddr: 0x10001DDE0, symSize: 0xCC }
  - { offset: 0x5F3C4, size: 0x8, addend: 0x0, symName: __ZN7testing25MatcherDescriberInterfaceC2Ev, symObjAddr: 0x1C884, symBinAddr: 0x10001DEAC, symSize: 0xB4 }
  - { offset: 0x5F3F0, size: 0x8, addend: 0x0, symName: __ZN7testing16MatcherInterfaceIRKNSt3__16vectorINS1_12basic_stringIcNS1_11char_traitsIcEENS1_9allocatorIcEEEENS6_IS8_EEEEED1Ev, symObjAddr: 0x1C938, symBinAddr: 0x10001DF60, symSize: 0x54 }
  - { offset: 0x5F420, size: 0x8, addend: 0x0, symName: __ZN7testing16MatcherInterfaceIRKNSt3__16vectorINS1_12basic_stringIcNS1_11char_traitsIcEENS1_9allocatorIcEEEENS6_IS8_EEEEED0Ev, symObjAddr: 0x1C98C, symBinAddr: 0x10001DFB4, symSize: 0x50 }
  - { offset: 0x5F44C, size: 0x8, addend: 0x0, symName: __ZNK7testing25MatcherDescriberInterface18DescribeNegationToEPNSt3__113basic_ostreamIcNS1_11char_traitsIcEEEE, symObjAddr: 0x1C9DC, symBinAddr: 0x10001E004, symSize: 0x178 }
  - { offset: 0x5F480, size: 0x8, addend: 0x0, symName: __ZN7testing25MatcherDescriberInterfaceD1Ev, symObjAddr: 0x1CB54, symBinAddr: 0x10001E17C, symSize: 0x54 }
  - { offset: 0x5F4AE, size: 0x8, addend: 0x0, symName: __ZN7testing25MatcherDescriberInterfaceD0Ev, symObjAddr: 0x1CBA8, symBinAddr: 0x10001E1D0, symSize: 0x50 }
  - { offset: 0x5F4D8, size: 0x8, addend: 0x0, symName: __ZN7testing18PolymorphicMatcherINS_8internal14IsEmptyMatcherEE15MonomorphicImplIRKNSt3__16vectorINS5_12basic_stringIcNS5_11char_traitsIcEENS5_9allocatorIcEEEENSA_ISC_EEEEED2Ev, symObjAddr: 0x1CBF8, symBinAddr: 0x10001E220, symSize: 0x64 }
  - { offset: 0x5F509, size: 0x8, addend: 0x0, symName: __ZN7testing16MatcherInterfaceIRKNSt3__16vectorINS1_12basic_stringIcNS1_11char_traitsIcEENS1_9allocatorIcEEEENS6_IS8_EEEEED2Ev, symObjAddr: 0x1CC5C, symBinAddr: 0x10001E284, symSize: 0x64 }
  - { offset: 0x5F539, size: 0x8, addend: 0x0, symName: __ZN7testing25MatcherDescriberInterfaceD2Ev, symObjAddr: 0x1CCC0, symBinAddr: 0x10001E2E8, symSize: 0x5C }
  - { offset: 0x5F567, size: 0x8, addend: 0x0, symName: __ZNK7testing8internal14IsEmptyMatcher10DescribeToEPNSt3__113basic_ostreamIcNS2_11char_traitsIcEEEE, symObjAddr: 0x1CD1C, symBinAddr: 0x10001E344, symSize: 0x8C }
  - { offset: 0x5F59B, size: 0x8, addend: 0x0, symName: __ZNK7testing8internal14IsEmptyMatcher18DescribeNegationToEPNSt3__113basic_ostreamIcNS2_11char_traitsIcEEEE, symObjAddr: 0x1CDA8, symBinAddr: 0x10001E3D0, symSize: 0x8C }
  - { offset: 0x5F5CF, size: 0x8, addend: 0x0, symName: __ZNK7testing8internal14IsEmptyMatcher15MatchAndExplainINSt3__16vectorINS3_12basic_stringIcNS3_11char_traitsIcEENS3_9allocatorIcEEEENS8_ISA_EEEEEEbRKT_PNS_19MatchResultListenerE, symObjAddr: 0x1CE34, symBinAddr: 0x10001E45C, symSize: 0x308 }
  - { offset: 0x5F61D, size: 0x8, addend: 0x0, symName: __ZNKSt3__16vectorINS_12basic_stringIcNS_11char_traitsIcEENS_9allocatorIcEEEENS4_IS6_EEE5emptyB8ne210108Ev, symObjAddr: 0x1D13C, symBinAddr: 0x10001E764, symSize: 0xDC }
  - { offset: 0x5F65A, size: 0x8, addend: 0x0, symName: __ZN7testing19MatchResultListenerlsIA15_cEERS0_RKT_, symObjAddr: 0x1D218, symBinAddr: 0x10001E840, symSize: 0x164 }
  - { offset: 0x5F69D, size: 0x8, addend: 0x0, symName: __ZN7testing19MatchResultListenerlsImEERS0_RKT_, symObjAddr: 0x1D37C, symBinAddr: 0x10001E9A4, symSize: 0x194 }
  - { offset: 0x5F6DA, size: 0x8, addend: 0x0, symName: __ZNKSt3__16vectorINS_12basic_stringIcNS_11char_traitsIcEENS_9allocatorIcEEEENS4_IS6_EEE4sizeB8ne210108Ev, symObjAddr: 0x1D510, symBinAddr: 0x10001EB38, symSize: 0xE0 }
  - { offset: 0x5F700, size: 0x8, addend: 0x0, symName: __ZN7testing7MatcherIRKNSt3__16vectorINS1_12basic_stringIcNS1_11char_traitsIcEENS1_9allocatorIcEEEENS6_IS8_EEEEEC2EPKNS_16MatcherInterfaceISC_EE, symObjAddr: 0x1D5F0, symBinAddr: 0x10001EC18, symSize: 0x108 }
  - { offset: 0x5F739, size: 0x8, addend: 0x0, symName: __ZN7testing8internal11MatcherBaseIRKNSt3__16vectorINS2_12basic_stringIcNS2_11char_traitsIcEENS2_9allocatorIcEEEENS7_IS9_EEEEEC2ISD_EEPKNS_16MatcherInterfaceIT_EE, symObjAddr: 0x1D6F8, symBinAddr: 0x10001ED20, symSize: 0x340 }
  - { offset: 0x5F780, size: 0x8, addend: 0x0, symName: __ZN7testing7MatcherIRKNSt3__16vectorINS1_12basic_stringIcNS1_11char_traitsIcEENS1_9allocatorIcEEEENS6_IS8_EEEEED0Ev, symObjAddr: 0x1DA38, symBinAddr: 0x10001F060, symSize: 0x68 }
  - { offset: 0x5F7AC, size: 0x8, addend: 0x0, symName: __ZNK7testing8internal11MatcherBaseIRKNSt3__16vectorINS2_12basic_stringIcNS2_11char_traitsIcEENS2_9allocatorIcEEEENS7_IS9_EEEEE18DescribeNegationToEPNS2_13basic_ostreamIcS6_EE, symObjAddr: 0x1DAA0, symBinAddr: 0x10001F0C8, symSize: 0x4D4 }
  - { offset: 0x5F7E8, size: 0x8, addend: 0x0, symName: __ZN7testing8internal11MatcherBaseIRKNSt3__16vectorINS2_12basic_stringIcNS2_11char_traitsIcEENS2_9allocatorIcEEEENS7_IS9_EEEEE4InitIRPKNS_16MatcherInterfaceISD_EEEEvOT_, symObjAddr: 0x1DF74, symBinAddr: 0x10001F59C, symSize: 0x164 }
  - { offset: 0x5F826, size: 0x8, addend: 0x0, symName: __ZN7testing8internal11MatcherBaseIRKNSt3__16vectorINS2_12basic_stringIcNS2_11char_traitsIcEENS2_9allocatorIcEEEENS7_IS9_EEEEED1Ev, symObjAddr: 0x1E0D8, symBinAddr: 0x10001F700, symSize: 0x64 }
  - { offset: 0x5F854, size: 0x8, addend: 0x0, symName: __ZN7testing8internal11MatcherBaseIRKNSt3__16vectorINS2_12basic_stringIcNS2_11char_traitsIcEENS2_9allocatorIcEEEENS7_IS9_EEEEED0Ev, symObjAddr: 0x1E13C, symBinAddr: 0x10001F764, symSize: 0x68 }
  - { offset: 0x5F87E, size: 0x8, addend: 0x0, symName: __ZN7testing8internal11MatcherBaseIRKNSt3__16vectorINS2_12basic_stringIcNS2_11char_traitsIcEENS2_9allocatorIcEEEENS7_IS9_EEEEE11ValuePolicyIPKNS_16MatcherInterfaceISD_EELb1EE4InitERSE_SJ_, symObjAddr: 0x1E208, symBinAddr: 0x10001F830, symSize: 0x3B4 }
  - { offset: 0x5F8B3, size: 0x8, addend: 0x0, symName: __ZN7testing8internal11MatcherBaseIRKNSt3__16vectorINS2_12basic_stringIcNS2_11char_traitsIcEENS2_9allocatorIcEEEENS7_IS9_EEEEE19MatchAndExplainImplINSE_11ValuePolicyIPKNS_16MatcherInterfaceISD_EELb1EEEEEDTcldtclsrT_3Getfp_E15MatchAndExplainfp0_fp1_EERKSE_SD_PNS_19MatchResultListenerE, symObjAddr: 0x1E5C4, symBinAddr: 0x10001FBEC, symSize: 0x164 }
  - { offset: 0x5F8FE, size: 0x8, addend: 0x0, symName: __ZN7testing8internal11MatcherBaseIRKNSt3__16vectorINS2_12basic_stringIcNS2_11char_traitsIcEENS2_9allocatorIcEEEENS7_IS9_EEEEE12DescribeImplINSE_11ValuePolicyIPKNS_16MatcherInterfaceISD_EELb1EEEEEvRKSE_PNS2_13basic_ostreamIcS6_EEb, symObjAddr: 0x1E730, symBinAddr: 0x10001FD58, symSize: 0x2A8 }
  - { offset: 0x5F949, size: 0x8, addend: 0x0, symName: __ZN7testing8internal11MatcherBaseIRKNSt3__16vectorINS2_12basic_stringIcNS2_11char_traitsIcEENS2_9allocatorIcEEEENS7_IS9_EEEEE16GetDescriberImplINSE_11ValuePolicyIPKNS_16MatcherInterfaceISD_EELb1EEEEEPKNS_25MatcherDescriberInterfaceERKSE_, symObjAddr: 0x1E9E0, symBinAddr: 0x100020008, symSize: 0x31C }
  - { offset: 0x5F977, size: 0x8, addend: 0x0, symName: __ZN7testing8internal13SharedPayloadINSt3__110unique_ptrIKNS_16MatcherInterfaceIRKNS2_6vectorINS2_12basic_stringIcNS2_11char_traitsIcEENS2_9allocatorIcEEEENS9_ISB_EEEEEENS2_14default_deleteISH_EEEEE7DestroyEPNS0_17SharedPayloadBaseE, symObjAddr: 0x1ED04, symBinAddr: 0x10002032C, symSize: 0xAC }
  - { offset: 0x5F99A, size: 0x8, addend: 0x0, symName: __ZN7testing8internal11MatcherBaseIRKNSt3__16vectorINS2_12basic_stringIcNS2_11char_traitsIcEENS2_9allocatorIcEEEENS7_IS9_EEEEE11ValuePolicyIPKNS_16MatcherInterfaceISD_EELb1EE3GetERKSE_, symObjAddr: 0x1EDB8, symBinAddr: 0x1000203E0, symSize: 0x1BC }
  - { offset: 0x5F9BE, size: 0x8, addend: 0x0, symName: __ZNKSt3__110unique_ptrIKN7testing16MatcherInterfaceIRKNS_6vectorINS_12basic_stringIcNS_11char_traitsIcEENS_9allocatorIcEEEENS7_IS9_EEEEEENS_14default_deleteISF_EEEdeB8ne210108Ev, symObjAddr: 0x1EF74, symBinAddr: 0x10002059C, symSize: 0x110 }
  - { offset: 0x5FA12, size: 0x8, addend: 0x0, symName: __ZNSt3__112__tuple_leafILm1EPKN7testing16MatcherInterfaceIRKNS_6vectorINS_12basic_stringIcNS_11char_traitsIcEENS_9allocatorIcEEEENS7_IS9_EEEEEELb0EE3getB8ne210108Ev, symObjAddr: 0x1F38C, symBinAddr: 0x1000209B4, symSize: 0x8C }
  - { offset: 0x5FABE, size: 0x8, addend: 0x0, symName: __ZNSt3__15tupleIJPKN7testing8internal11MatcherBaseIRKNS_6vectorINS_12basic_stringIcNS_11char_traitsIcEENS_9allocatorIcEEEENS8_ISA_EEEEEEPKNS1_16MatcherInterfaceISE_EEEEC1B8ne210108IJSH_SL_ETnNS_9enable_ifIXsr4_AndINS_17integral_constantIbXeqsZT_sZT_EEENSM_17_EnableUTypesCtorIJDpT_EEEEE5valueEiE4typeELi0EEEDpOSS_, symObjAddr: 0x1F418, symBinAddr: 0x100020A40, symSize: 0x74 }
  - { offset: 0x5FB1D, size: 0x8, addend: 0x0, symName: __ZNSt3__15tupleIJPKN7testing8internal11MatcherBaseIRKNS_6vectorINS_12basic_stringIcNS_11char_traitsIcEENS_9allocatorIcEEEENS8_ISA_EEEEEEPKNS1_16MatcherInterfaceISE_EEEEC2B8ne210108IJSH_SL_ETnNS_9enable_ifIXsr4_AndINS_17integral_constantIbXeqsZT_sZT_EEENSM_17_EnableUTypesCtorIJDpT_EEEEE5valueEiE4typeELi0EEEDpOSS_, symObjAddr: 0x1F48C, symBinAddr: 0x100020AB4, symSize: 0xE4 }
  - { offset: 0x5FB7C, size: 0x8, addend: 0x0, symName: __ZNSt3__112__tuple_implINS_15__tuple_indicesIJLm0ELm1EEEEJPKN7testing8internal11MatcherBaseIRKNS_6vectorINS_12basic_stringIcNS_11char_traitsIcEENS_9allocatorIcEEEENSA_ISC_EEEEEEPKNS3_16MatcherInterfaceISG_EEEEC1B8ne210108IJLm0ELm1EEJSJ_SN_ETpTnmJEJEJSJ_SN_EEENS1_IJXspT_EEEENS_13__tuple_typesIJDpT0_EEENS1_IJXspT1_EEEENSR_IJDpT2_EEEDpOT3_, symObjAddr: 0x1F570, symBinAddr: 0x100020B98, symSize: 0x74 }
  - { offset: 0x5FC2E, size: 0x8, addend: 0x0, symName: __ZNSt3__112__tuple_implINS_15__tuple_indicesIJLm0ELm1EEEEJPKN7testing8internal11MatcherBaseIRKNS_6vectorINS_12basic_stringIcNS_11char_traitsIcEENS_9allocatorIcEEEENSA_ISC_EEEEEEPKNS3_16MatcherInterfaceISG_EEEEC2B8ne210108IJLm0ELm1EEJSJ_SN_ETpTnmJEJEJSJ_SN_EEENS1_IJXspT_EEEENS_13__tuple_typesIJDpT0_EEENS1_IJXspT1_EEEENSR_IJDpT2_EEEDpOT3_, symObjAddr: 0x1F5E4, symBinAddr: 0x100020C0C, symSize: 0x168 }
  - { offset: 0x5FCE0, size: 0x8, addend: 0x0, symName: __ZNSt3__112__tuple_leafILm0EPKN7testing8internal11MatcherBaseIRKNS_6vectorINS_12basic_stringIcNS_11char_traitsIcEENS_9allocatorIcEEEENS8_ISA_EEEEEELb0EEC2B8ne210108ISH_TnNS_9enable_ifIXsr4_AndINS_17integral_constantIbXntu9__is_sameu14__remove_cvrefIT_ESI_EEEENS_16is_constructibleISH_JSM_EEEEE5valueEiE4typeELi0EEEOSM_, symObjAddr: 0x1F74C, symBinAddr: 0x100020D74, symSize: 0x124 }
  - { offset: 0x5FD29, size: 0x8, addend: 0x0, symName: __ZNSt3__112__tuple_leafILm1EPKN7testing16MatcherInterfaceIRKNS_6vectorINS_12basic_stringIcNS_11char_traitsIcEENS_9allocatorIcEEEENS7_IS9_EEEEEELb0EEC2B8ne210108ISG_TnNS_9enable_ifIXsr4_AndINS_17integral_constantIbXntu9__is_sameu14__remove_cvrefIT_ESH_EEEENS_16is_constructibleISG_JSL_EEEEE5valueEiE4typeELi0EEEOSL_, symObjAddr: 0x1F870, symBinAddr: 0x100020E98, symSize: 0x124 }
  - { offset: 0x5FD72, size: 0x8, addend: 0x0, symName: __ZN7testing8internal13SharedPayloadINSt3__110unique_ptrIKNS_16MatcherInterfaceIRKNS2_6vectorINS2_12basic_stringIcNS2_11char_traitsIcEENS2_9allocatorIcEEEENS9_ISB_EEEEEENS2_14default_deleteISH_EEEEED1Ev, symObjAddr: 0x1F994, symBinAddr: 0x100020FBC, symSize: 0x64 }
  - { offset: 0x5FDA2, size: 0x8, addend: 0x0, symName: __ZN7testing8internal13SharedPayloadINSt3__110unique_ptrIKNS_16MatcherInterfaceIRKNS2_6vectorINS2_12basic_stringIcNS2_11char_traitsIcEENS2_9allocatorIcEEEENS9_ISB_EEEEEENS2_14default_deleteISH_EEEEED2Ev, symObjAddr: 0x1F9F8, symBinAddr: 0x100021020, symSize: 0x68 }
  - { offset: 0x5FDD2, size: 0x8, addend: 0x0, symName: __ZNSt3__110unique_ptrIKN7testing16MatcherInterfaceIRKNS_6vectorINS_12basic_stringIcNS_11char_traitsIcEENS_9allocatorIcEEEENS7_IS9_EEEEEENS_14default_deleteISF_EEED1B8ne210108Ev, symObjAddr: 0x1FA60, symBinAddr: 0x100021088, symSize: 0x64 }
  - { offset: 0x5FE00, size: 0x8, addend: 0x0, symName: __ZNSt3__110unique_ptrIKN7testing16MatcherInterfaceIRKNS_6vectorINS_12basic_stringIcNS_11char_traitsIcEENS_9allocatorIcEEEENS7_IS9_EEEEEENS_14default_deleteISF_EEED2B8ne210108Ev, symObjAddr: 0x1FAC4, symBinAddr: 0x1000210EC, symSize: 0x68 }
  - { offset: 0x5FE2E, size: 0x8, addend: 0x0, symName: __ZNSt3__110unique_ptrIKN7testing16MatcherInterfaceIRKNS_6vectorINS_12basic_stringIcNS_11char_traitsIcEENS_9allocatorIcEEEENS7_IS9_EEEEEENS_14default_deleteISF_EEE5resetB8ne210108EPSF_, symObjAddr: 0x1FB2C, symBinAddr: 0x100021154, symSize: 0x190 }
  - { offset: 0x5FE72, size: 0x8, addend: 0x0, symName: __ZNKSt3__114default_deleteIKN7testing16MatcherInterfaceIRKNS_6vectorINS_12basic_stringIcNS_11char_traitsIcEENS_9allocatorIcEEEENS7_IS9_EEEEEEEclB8ne210108EPSF_, symObjAddr: 0x1FCBC, symBinAddr: 0x1000212E4, symSize: 0x110 }
  - { offset: 0x5FEA6, size: 0x8, addend: 0x0, symName: __ZNSt3__110unique_ptrIKN7testing16MatcherInterfaceIRKNS_6vectorINS_12basic_stringIcNS_11char_traitsIcEENS_9allocatorIcEEEENS7_IS9_EEEEEENS_14default_deleteISF_EEEC1B8ne210108ILb1EvEEPSF_, symObjAddr: 0x1FDCC, symBinAddr: 0x1000213F4, symSize: 0x6C }
  - { offset: 0x5FEE9, size: 0x8, addend: 0x0, symName: __ZN7testing8internal13SharedPayloadINSt3__110unique_ptrIKNS_16MatcherInterfaceIRKNS2_6vectorINS2_12basic_stringIcNS2_11char_traitsIcEENS2_9allocatorIcEEEENS9_ISB_EEEEEENS2_14default_deleteISH_EEEEEC1EOSK_, symObjAddr: 0x1FE38, symBinAddr: 0x100021460, symSize: 0x6C }
  - { offset: 0x5FF21, size: 0x8, addend: 0x0, symName: __ZNSt3__110unique_ptrIKN7testing16MatcherInterfaceIRKNS_6vectorINS_12basic_stringIcNS_11char_traitsIcEENS_9allocatorIcEEEENS7_IS9_EEEEEENS_14default_deleteISF_EEEC2B8ne210108ILb1EvEEPSF_, symObjAddr: 0x1FEA4, symBinAddr: 0x1000214CC, symSize: 0xB8 }
  - { offset: 0x5FF64, size: 0x8, addend: 0x0, symName: __ZN7testing8internal13SharedPayloadINSt3__110unique_ptrIKNS_16MatcherInterfaceIRKNS2_6vectorINS2_12basic_stringIcNS2_11char_traitsIcEENS2_9allocatorIcEEEENS9_ISB_EEEEEENS2_14default_deleteISH_EEEEEC2EOSK_, symObjAddr: 0x1FF5C, symBinAddr: 0x100021584, symSize: 0xEC }
  - { offset: 0x5FF9C, size: 0x8, addend: 0x0, symName: __ZN7testing8internal17SharedPayloadBaseC2Ev, symObjAddr: 0x20048, symBinAddr: 0x100021670, symSize: 0x68 }
  - { offset: 0x5FFC8, size: 0x8, addend: 0x0, symName: __ZNSt3__110unique_ptrIKN7testing16MatcherInterfaceIRKNS_6vectorINS_12basic_stringIcNS_11char_traitsIcEENS_9allocatorIcEEEENS7_IS9_EEEEEENS_14default_deleteISF_EEEC1B8ne210108EOSI_, symObjAddr: 0x200B0, symBinAddr: 0x1000216D8, symSize: 0x6C }
  - { offset: 0x60000, size: 0x8, addend: 0x0, symName: __ZNSt3__16atomicIiEC1B8ne210108Ei, symObjAddr: 0x2011C, symBinAddr: 0x100021744, symSize: 0x6C }
  - { offset: 0x60038, size: 0x8, addend: 0x0, symName: __ZNSt3__16atomicIiEC2B8ne210108Ei, symObjAddr: 0x20188, symBinAddr: 0x1000217B0, symSize: 0xA8 }
  - { offset: 0x60070, size: 0x8, addend: 0x0, symName: __ZNSt3__113__atomic_baseIiLb1EEC2B8ne210108Ei, symObjAddr: 0x20230, symBinAddr: 0x100021858, symSize: 0xA8 }
  - { offset: 0x600A8, size: 0x8, addend: 0x0, symName: __ZNSt3__113__atomic_baseIiLb0EEC2B8ne210108Ei, symObjAddr: 0x202D8, symBinAddr: 0x100021900, symSize: 0x6C }
  - { offset: 0x600E0, size: 0x8, addend: 0x0, symName: __ZNSt3__117__cxx_atomic_implIiNS_22__cxx_atomic_base_implIiEEEC1B8ne210108Ei, symObjAddr: 0x20344, symBinAddr: 0x10002196C, symSize: 0x6C }
  - { offset: 0x60118, size: 0x8, addend: 0x0, symName: __ZNSt3__117__cxx_atomic_implIiNS_22__cxx_atomic_base_implIiEEEC2B8ne210108Ei, symObjAddr: 0x203B0, symBinAddr: 0x1000219D8, symSize: 0xA8 }
  - { offset: 0x60150, size: 0x8, addend: 0x0, symName: __ZNSt3__122__cxx_atomic_base_implIiEC2Ei, symObjAddr: 0x20458, symBinAddr: 0x100021A80, symSize: 0xDC }
  - { offset: 0x60188, size: 0x8, addend: 0x0, symName: __ZNSt3__110unique_ptrIKN7testing16MatcherInterfaceIRKNS_6vectorINS_12basic_stringIcNS_11char_traitsIcEENS_9allocatorIcEEEENS7_IS9_EEEEEENS_14default_deleteISF_EEEC2B8ne210108EOSI_, symObjAddr: 0x20534, symBinAddr: 0x100021B5C, symSize: 0x114 }
  - { offset: 0x601C0, size: 0x8, addend: 0x0, symName: __ZNSt3__110unique_ptrIKN7testing16MatcherInterfaceIRKNS_6vectorINS_12basic_stringIcNS_11char_traitsIcEENS_9allocatorIcEEEENS7_IS9_EEEEEENS_14default_deleteISF_EEE7releaseB8ne210108Ev, symObjAddr: 0x20648, symBinAddr: 0x100021C70, symSize: 0x148 }
  - { offset: 0x601F5, size: 0x8, addend: 0x0, symName: __ZNSt3__110unique_ptrIKN7testing16MatcherInterfaceIRKNS_6vectorINS_12basic_stringIcNS_11char_traitsIcEENS_9allocatorIcEEEENS7_IS9_EEEEEENS_14default_deleteISF_EEE11get_deleterB8ne210108Ev, symObjAddr: 0x20790, symBinAddr: 0x100021DB8, symSize: 0x78 }
  - { offset: 0x6021B, size: 0x8, addend: 0x0, symName: __ZN7testing8internal11MatcherBaseIRKNSt3__16vectorINS2_12basic_stringIcNS2_11char_traitsIcEENS2_9allocatorIcEEEENS7_IS9_EEEEED2Ev, symObjAddr: 0x20808, symBinAddr: 0x100021E30, symSize: 0xD4 }
  - { offset: 0x60249, size: 0x8, addend: 0x0, symName: __ZN7testing8internal11MatcherBaseIRKNSt3__16vectorINS2_12basic_stringIcNS2_11char_traitsIcEENS2_9allocatorIcEEEENS7_IS9_EEEEE7DestroyEv, symObjAddr: 0x208DC, symBinAddr: 0x100021F04, symSize: 0x2E8 }
  - { offset: 0x6026F, size: 0x8, addend: 0x0, symName: __ZNK7testing8internal11MatcherBaseIRKNSt3__16vectorINS2_12basic_stringIcNS2_11char_traitsIcEENS2_9allocatorIcEEEENS7_IS9_EEEEE8IsSharedEv, symObjAddr: 0x20BC4, symBinAddr: 0x1000221EC, symSize: 0x1AC }
  - { offset: 0x60295, size: 0x8, addend: 0x0, symName: __ZN7testing8internal17SharedPayloadBase5UnrefEv, symObjAddr: 0x20D70, symBinAddr: 0x100022398, symSize: 0xC4 }
  - { offset: 0x602BB, size: 0x8, addend: 0x0, symName: __ZNSt3__113__atomic_baseIiLb1EE9fetch_subB8ne210108EiNS_12memory_orderE, symObjAddr: 0x20E34, symBinAddr: 0x10002245C, symSize: 0xC4 }
  - { offset: 0x60319, size: 0x8, addend: 0x0, symName: __ZN7testing8internal8GTestLog9GetStreamEv, symObjAddr: 0x211E4, symBinAddr: 0x10002280C, symSize: 0x5C }
  - { offset: 0x6033F, size: 0x8, addend: 0x0, symName: __ZN7testing8internal24DummyMatchResultListenerC1Ev, symObjAddr: 0x21240, symBinAddr: 0x100022868, symSize: 0x64 }
  - { offset: 0x60369, size: 0x8, addend: 0x0, symName: __ZNK7testing8internal11MatcherBaseIRKNSt3__16vectorINS2_12basic_stringIcNS2_11char_traitsIcEENS2_9allocatorIcEEEENS7_IS9_EEEEE15MatchAndExplainESD_PNS_19MatchResultListenerE, symObjAddr: 0x212A4, symBinAddr: 0x1000228CC, symSize: 0x504 }
  - { offset: 0x603AE, size: 0x8, addend: 0x0, symName: __ZN7testing8internal24DummyMatchResultListenerD1Ev, symObjAddr: 0x217A8, symBinAddr: 0x100022DD0, symSize: 0x64 }
  - { offset: 0x603DE, size: 0x8, addend: 0x0, symName: __ZN7testing8internal24DummyMatchResultListenerC2Ev, symObjAddr: 0x2180C, symBinAddr: 0x100022E34, symSize: 0xFC }
  - { offset: 0x60408, size: 0x8, addend: 0x0, symName: __ZN7testing19MatchResultListenerC2EPNSt3__113basic_ostreamIcNS1_11char_traitsIcEEEE, symObjAddr: 0x21908, symBinAddr: 0x100022F30, symSize: 0xF4 }
  - { offset: 0x60440, size: 0x8, addend: 0x0, symName: __ZN7testing8internal24DummyMatchResultListenerD0Ev, symObjAddr: 0x219FC, symBinAddr: 0x100023024, symSize: 0x68 }
  - { offset: 0x6046C, size: 0x8, addend: 0x0, symName: __ZN7testing8internal24DummyMatchResultListenerD2Ev, symObjAddr: 0x21A64, symBinAddr: 0x10002308C, symSize: 0x64 }
  - { offset: 0x6049C, size: 0x8, addend: 0x0, symName: __ZN7testing19MatchResultListenerD2Ev, symObjAddr: 0x21AC8, symBinAddr: 0x1000230F0, symSize: 0x5C }
  - { offset: 0x604CB, size: 0x8, addend: 0x0, symName: __ZNSt3__19basic_iosIcNS_11char_traitsIcEEEC2B8ne210108Ev, symObjAddr: 0x21B24, symBinAddr: 0x10002314C, symSize: 0xF8 }
  - { offset: 0x604F5, size: 0x8, addend: 0x0, symName: __ZNSt3__114basic_iostreamIcNS_11char_traitsIcEEEC2B8ne210108EPNS_15basic_streambufIcS2_EE, symObjAddr: 0x21C1C, symBinAddr: 0x100023244, symSize: 0x2F4 }
  - { offset: 0x6053B, size: 0x8, addend: 0x0, symName: __ZNSt3__115basic_stringbufIcNS_11char_traitsIcEENS_9allocatorIcEEEC1B8ne210108Ej, symObjAddr: 0x21F10, symBinAddr: 0x100023538, symSize: 0x6C }
  - { offset: 0x60574, size: 0x8, addend: 0x0, symName: __ZNSt3__18ios_baseC2B8ne210108Ev, symObjAddr: 0x21F7C, symBinAddr: 0x1000235A4, symSize: 0xE4 }
  - { offset: 0x6059E, size: 0x8, addend: 0x0, symName: __ZNSt3__113basic_istreamIcNS_11char_traitsIcEEEC2B8ne210108EPNS_15basic_streambufIcS2_EE, symObjAddr: 0x22060, symBinAddr: 0x100023688, symSize: 0x26C }
  - { offset: 0x605E3, size: 0x8, addend: 0x0, symName: __ZNSt3__113basic_ostreamIcNS_11char_traitsIcEEEC2B8ne210108Ev, symObjAddr: 0x222CC, symBinAddr: 0x1000238F4, symSize: 0x19C }
  - { offset: 0x6061A, size: 0x8, addend: 0x0, symName: __ZNSt3__19basic_iosIcNS_11char_traitsIcEEE4initB8ne210108EPNS_15basic_streambufIcS2_EE, symObjAddr: 0x22468, symBinAddr: 0x100023A90, symSize: 0x104 }
  - { offset: 0x60651, size: 0x8, addend: 0x0, symName: __ZNSt3__118_SentinelValueFillINS_11char_traitsIcEEE6__initB8ne210108Ev, symObjAddr: 0x2256C, symBinAddr: 0x100023B94, symSize: 0x100 }
  - { offset: 0x60677, size: 0x8, addend: 0x0, symName: __ZNSt3__111char_traitsIcE3eofB8ne210108Ev, symObjAddr: 0x22674, symBinAddr: 0x100023C9C, symSize: 0x8 }
  - { offset: 0x6068B, size: 0x8, addend: 0x0, symName: __ZNSt3__115basic_stringbufIcNS_11char_traitsIcEENS_9allocatorIcEEEC2B8ne210108Ej, symObjAddr: 0x2267C, symBinAddr: 0x100023CA4, symSize: 0x1D0 }
  - { offset: 0x606C4, size: 0x8, addend: 0x0, symName: __ZNSt3__112basic_stringIcNS_11char_traitsIcEENS_9allocatorIcEEEC1B8ne210108Ev, symObjAddr: 0x2284C, symBinAddr: 0x100023E74, symSize: 0x64 }
  - { offset: 0x606EE, size: 0x8, addend: 0x0, symName: __ZNSt3__115basic_stringbufIcNS_11char_traitsIcEENS_9allocatorIcEEE15__init_buf_ptrsB8ne210108Ev, symObjAddr: 0x228B0, symBinAddr: 0x100023ED8, symSize: 0x730 }
  - { offset: 0x60734, size: 0x8, addend: 0x0, symName: __ZNSt3__112basic_stringIcNS_11char_traitsIcEENS_9allocatorIcEEEC2B8ne210108Ev, symObjAddr: 0x22FE0, symBinAddr: 0x100024608, symSize: 0x80 }
  - { offset: 0x6075E, size: 0x8, addend: 0x0, symName: __ZNSt3__112basic_stringIcNS_11char_traitsIcEENS_9allocatorIcEEE4dataB8ne210108Ev, symObjAddr: 0x23060, symBinAddr: 0x100024688, symSize: 0x60 }
  - { offset: 0x60784, size: 0x8, addend: 0x0, symName: __ZNSt3__115basic_streambufIcNS_11char_traitsIcEEE4setgB8ne210108EPcS4_S4_, symObjAddr: 0x230C0, symBinAddr: 0x1000246E8, symSize: 0x130 }
  - { offset: 0x607D7, size: 0x8, addend: 0x0, symName: __ZNSt3__112basic_stringIcNS_11char_traitsIcEENS_9allocatorIcEEE6resizeB8ne210108Em, symObjAddr: 0x231F0, symBinAddr: 0x100024818, symSize: 0x68 }
  - { offset: 0x6080C, size: 0x8, addend: 0x0, symName: __ZNSt3__115basic_streambufIcNS_11char_traitsIcEEE4setpB8ne210108EPcS4_, symObjAddr: 0x23258, symBinAddr: 0x100024880, symSize: 0x124 }
  - { offset: 0x60850, size: 0x8, addend: 0x0, symName: __ZNSt3__115basic_streambufIcNS_11char_traitsIcEEE5pbumpB8ne210108Ei, symObjAddr: 0x2337C, symBinAddr: 0x1000249A4, symSize: 0x1A0 }
  - { offset: 0x60885, size: 0x8, addend: 0x0, symName: __ZNSt3__112basic_stringIcNS_11char_traitsIcEENS_9allocatorIcEEE13__get_pointerB8ne210108Ev, symObjAddr: 0x23538, symBinAddr: 0x100024B60, symSize: 0x88 }
  - { offset: 0x608AB, size: 0x8, addend: 0x0, symName: __ZNSt3__112basic_stringIcNS_11char_traitsIcEENS_9allocatorIcEEE18__get_long_pointerB8ne210108Ev, symObjAddr: 0x235C0, symBinAddr: 0x100024BE8, symSize: 0x150 }
  - { offset: 0x608D1, size: 0x8, addend: 0x0, symName: __ZNSt3__112basic_stringIcNS_11char_traitsIcEENS_9allocatorIcEEE19__get_short_pointerB8ne210108Ev, symObjAddr: 0x23710, symBinAddr: 0x100024D38, symSize: 0x104 }
  - { offset: 0x608F7, size: 0x8, addend: 0x0, symName: __ZNSt3__114pointer_traitsIPcE10pointer_toB8ne210108ERc, symObjAddr: 0x2381C, symBinAddr: 0x100024E44, symSize: 0x14 }
  - { offset: 0x6093D, size: 0x8, addend: 0x0, symName: __ZNKSt3__113basic_ostreamIcNS_11char_traitsIcEEE6sentrycvbB8ne210108Ev, symObjAddr: 0x24258, symBinAddr: 0x100025880, symSize: 0xE8 }
  - { offset: 0x60963, size: 0x8, addend: 0x0, symName: __ZNSt3__119ostreambuf_iteratorIcNS_11char_traitsIcEEEC1B8ne210108ERNS_13basic_ostreamIcS2_EE, symObjAddr: 0x24954, symBinAddr: 0x100025F7C, symSize: 0x6C }
  - { offset: 0x6099B, size: 0x8, addend: 0x0, symName: __ZNKSt3__18ios_base5flagsB8ne210108Ev, symObjAddr: 0x249C0, symBinAddr: 0x100025FE8, symSize: 0xC4 }
  - { offset: 0x609C3, size: 0x8, addend: 0x0, symName: __ZNKSt3__19basic_iosIcNS_11char_traitsIcEEE4fillB8ne210108Ev, symObjAddr: 0x24A84, symBinAddr: 0x1000260AC, symSize: 0x108 }
  - { offset: 0x609EB, size: 0x8, addend: 0x0, symName: __ZNKSt3__119ostreambuf_iteratorIcNS_11char_traitsIcEEE6failedB8ne210108Ev, symObjAddr: 0x24B8C, symBinAddr: 0x1000261B4, symSize: 0xA4 }
  - { offset: 0x60A11, size: 0x8, addend: 0x0, symName: __ZNSt3__19basic_iosIcNS_11char_traitsIcEEE8setstateB8ne210108Ej, symObjAddr: 0x24C30, symBinAddr: 0x100026258, symSize: 0x88 }
  - { offset: 0x60A46, size: 0x8, addend: 0x0, symName: __ZNKSt3__18ios_base5widthB8ne210108Ev, symObjAddr: 0x24CB8, symBinAddr: 0x1000262E0, symSize: 0xA0 }
  - { offset: 0x60A6E, size: 0x8, addend: 0x0, symName: __ZNSt3__115basic_streambufIcNS_11char_traitsIcEEE5sputnB8ne210108EPKcl, symObjAddr: 0x24D58, symBinAddr: 0x100026380, symSize: 0xF8 }
  - { offset: 0x60AB0, size: 0x8, addend: 0x0, symName: __ZNSt3__112basic_stringIcNS_11char_traitsIcEENS_9allocatorIcEEEC1B8ne210108Emc, symObjAddr: 0x24E50, symBinAddr: 0x100026478, symSize: 0x74 }
  - { offset: 0x60AF8, size: 0x8, addend: 0x0, symName: __ZNSt3__18ios_base5widthB8ne210108El, symObjAddr: 0x24EC4, symBinAddr: 0x1000264EC, symSize: 0xE8 }
  - { offset: 0x60B3E, size: 0x8, addend: 0x0, symName: __ZNSt3__112basic_stringIcNS_11char_traitsIcEENS_9allocatorIcEEEC2B8ne210108Emc, symObjAddr: 0x24FAC, symBinAddr: 0x1000265D4, symSize: 0x7C }
  - { offset: 0x60B86, size: 0x8, addend: 0x0, symName: __ZNSt3__119ostreambuf_iteratorIcNS_11char_traitsIcEEEC2B8ne210108ERNS_13basic_ostreamIcS2_EE, symObjAddr: 0x25028, symBinAddr: 0x100026650, symSize: 0x19C }
  - { offset: 0x60BBE, size: 0x8, addend: 0x0, symName: __ZNKSt3__19basic_iosIcNS_11char_traitsIcEEE5rdbufB8ne210108Ev, symObjAddr: 0x251C4, symBinAddr: 0x1000267EC, symSize: 0x80 }
  - { offset: 0x60BE6, size: 0x8, addend: 0x0, symName: __ZNKSt3__18ios_base5rdbufB8ne210108Ev, symObjAddr: 0x25244, symBinAddr: 0x10002686C, symSize: 0xA0 }
  - { offset: 0x60C0C, size: 0x8, addend: 0x0, symName: __ZNKSt3__118_SentinelValueFillINS_11char_traitsIcEEE8__is_setB8ne210108Ev, symObjAddr: 0x252E4, symBinAddr: 0x10002690C, symSize: 0x108 }
  - { offset: 0x60C32, size: 0x8, addend: 0x0, symName: __ZNKSt3__19basic_iosIcNS_11char_traitsIcEEE5widenB8ne210108Ec, symObjAddr: 0x253EC, symBinAddr: 0x100026A14, symSize: 0x30C }
  - { offset: 0x60C6B, size: 0x8, addend: 0x0, symName: __ZNSt3__118_SentinelValueFillINS_11char_traitsIcEEEaSB8ne210108Ei, symObjAddr: 0x256F8, symBinAddr: 0x100026D20, symSize: 0x124 }
  - { offset: 0x60CA0, size: 0x8, addend: 0x0, symName: __ZNKSt3__118_SentinelValueFillINS_11char_traitsIcEEE5__getB8ne210108Ev, symObjAddr: 0x2581C, symBinAddr: 0x100026E44, symSize: 0xF4 }
  - { offset: 0x60D0B, size: 0x8, addend: 0x0, symName: __ZNKSt3__15ctypeIcE5widenB8ne210108Ec, symObjAddr: 0x259D8, symBinAddr: 0x100027000, symSize: 0xE8 }
  - { offset: 0x60D40, size: 0x8, addend: 0x0, symName: __ZNSt3__18ios_base8setstateB8ne210108Ej, symObjAddr: 0x25AC0, symBinAddr: 0x1000270E8, symSize: 0xD4 }
  - { offset: 0x60D77, size: 0x8, addend: 0x0, symName: __ZN7testing25StringMatchResultListenerC2Ev, symObjAddr: 0x25B94, symBinAddr: 0x1000271BC, symSize: 0x1C0 }
  - { offset: 0x60DA1, size: 0x8, addend: 0x0, symName: __ZN7testing25StringMatchResultListenerD0Ev, symObjAddr: 0x25D54, symBinAddr: 0x10002737C, symSize: 0x68 }
  - { offset: 0x60DCE, size: 0x8, addend: 0x0, symName: __ZNK7testing19MatchResultListener12IsInterestedEv, symObjAddr: 0x25DBC, symBinAddr: 0x1000273E4, symSize: 0xA8 }
  - { offset: 0x60DF4, size: 0x8, addend: 0x0, symName: __ZN7testing19MatchResultListener6streamEv, symObjAddr: 0x25ED0, symBinAddr: 0x1000274F8, symSize: 0xA0 }
  - { offset: 0x60E1A, size: 0x8, addend: 0x0, symName: __ZN7testing8internal16UniversalPrinterINSt3__16vectorINS2_12basic_stringIcNS2_11char_traitsIcEENS2_9allocatorIcEEEENS7_IS9_EEEEE5PrintERKSB_PNS2_13basic_ostreamIcS6_EE, symObjAddr: 0x26198, symBinAddr: 0x1000277C0, symSize: 0x64 }
  - { offset: 0x60E4D, size: 0x8, addend: 0x0, symName: __ZN7testing8internal16ContainerPrinter10PrintValueINSt3__16vectorINS3_12basic_stringIcNS3_11char_traitsIcEENS3_9allocatorIcEEEENS8_ISA_EEEEvEEvRKT_PNS3_13basic_ostreamIcS7_EE, symObjAddr: 0x262DC, symBinAddr: 0x100027904, symSize: 0x568 }
  - { offset: 0x60F03, size: 0x8, addend: 0x0, symName: __ZNKSt3__16vectorINS_12basic_stringIcNS_11char_traitsIcEENS_9allocatorIcEEEENS4_IS6_EEE5beginB8ne210108Ev, symObjAddr: 0x26A68, symBinAddr: 0x100028090, symSize: 0xB4 }
  - { offset: 0x60F29, size: 0x8, addend: 0x0, symName: __ZNKSt3__16vectorINS_12basic_stringIcNS_11char_traitsIcEENS_9allocatorIcEEEENS4_IS6_EEE3endB8ne210108Ev, symObjAddr: 0x26B1C, symBinAddr: 0x100028144, symSize: 0xB8 }
  - { offset: 0x60F4F, size: 0x8, addend: 0x0, symName: __ZNKSt3__111__wrap_iterIPKNS_12basic_stringIcNS_11char_traitsIcEENS_9allocatorIcEEEEEdeB8ne210108Ev, symObjAddr: 0x26C6C, symBinAddr: 0x100028294, symSize: 0xD4 }
  - { offset: 0x60F75, size: 0x8, addend: 0x0, symName: __ZNSt3__111__wrap_iterIPKNS_12basic_stringIcNS_11char_traitsIcEENS_9allocatorIcEEEEEppB8ne210108Ev, symObjAddr: 0x26DAC, symBinAddr: 0x1000283D4, symSize: 0x178 }
  - { offset: 0x60F9B, size: 0x8, addend: 0x0, symName: __ZNKSt3__16vectorINS_12basic_stringIcNS_11char_traitsIcEENS_9allocatorIcEEEENS4_IS6_EEE11__make_iterB8ne210108EPKS6_, symObjAddr: 0x26F24, symBinAddr: 0x10002854C, symSize: 0x1E8 }
  - { offset: 0x60FD2, size: 0x8, addend: 0x0, symName: __ZNSt3__16vectorINS_12basic_stringIcNS_11char_traitsIcEENS_9allocatorIcEEEENS4_IS6_EEE26__add_alignment_assumptionB8ne210108IPS6_TnNS_9enable_ifIXsr10is_pointerIT_EE5valueEiE4typeELi0EEESA_SC_, symObjAddr: 0x27114, symBinAddr: 0x10002873C, symSize: 0x50 }
  - { offset: 0x61006, size: 0x8, addend: 0x0, symName: __ZNSt3__111__wrap_iterIPKNS_12basic_stringIcNS_11char_traitsIcEENS_9allocatorIcEEEEEC1B8ne210108ES8_, symObjAddr: 0x27164, symBinAddr: 0x10002878C, symSize: 0x6C }
  - { offset: 0x6103E, size: 0x8, addend: 0x0, symName: __ZNSt3__111__wrap_iterIPKNS_12basic_stringIcNS_11char_traitsIcEENS_9allocatorIcEEEEEC2B8ne210108ES8_, symObjAddr: 0x271D0, symBinAddr: 0x1000287F8, symSize: 0xB8 }
  - { offset: 0x61076, size: 0x8, addend: 0x0, symName: __ZNKSt3__111__wrap_iterIPKNS_12basic_stringIcNS_11char_traitsIcEENS_9allocatorIcEEEEE4baseB8ne210108Ev, symObjAddr: 0x27288, symBinAddr: 0x1000288B0, symSize: 0x9C }
  - { offset: 0x6109C, size: 0x8, addend: 0x0, symName: __ZN7testing8internal16UniversalPrinterINSt3__112basic_stringIcNS2_11char_traitsIcEENS2_9allocatorIcEEEEE5PrintERKS8_PNS2_13basic_ostreamIcS5_EE, symObjAddr: 0x2732C, symBinAddr: 0x100028954, symSize: 0x64 }
  - { offset: 0x610E3, size: 0x8, addend: 0x0, symName: __ZNKSt9type_info4nameB8ne210108Ev, symObjAddr: 0x27824, symBinAddr: 0x100028E4C, symSize: 0xAC }
  - { offset: 0x61129, size: 0x8, addend: 0x0, symName: __ZNKSt3__112basic_stringIcNS_11char_traitsIcEENS_9allocatorIcEEE4findB8ne210108EPKcm, symObjAddr: 0x27B20, symBinAddr: 0x100029148, symSize: 0xA8 }
  - { offset: 0x6116D, size: 0x8, addend: 0x0, symName: __ZNSt3__111char_traitsIcE4findB8ne210108EPKcmRS2_, symObjAddr: 0x283AC, symBinAddr: 0x1000299D4, symSize: 0xB0 }
  - { offset: 0x611AC, size: 0x8, addend: 0x0, symName: __ZNSt3__111char_traitsIcE7compareB8ne210108EPKcS3_m, symObjAddr: 0x28464, symBinAddr: 0x100029A8C, symSize: 0x34 }
  - { offset: 0x611EB, size: 0x8, addend: 0x0, symName: __ZNKSt3__112basic_stringIcNS_11char_traitsIcEENS_9allocatorIcEEE6lengthB8ne210108Ev, symObjAddr: 0x284EC, symBinAddr: 0x100029B14, symSize: 0x5C }
  - { offset: 0x61211, size: 0x8, addend: 0x0, symName: __ZNKSt3__112basic_stringIcNS_11char_traitsIcEENS_9allocatorIcEEE13find_first_ofB8ne210108EPKcm, symObjAddr: 0x28548, symBinAddr: 0x100029B70, symSize: 0xA8 }
  - { offset: 0x61255, size: 0x8, addend: 0x0, symName: __ZNSt3__111char_traitsIcE2eqEcc, symObjAddr: 0x28CB0, symBinAddr: 0x10002A2D8, symSize: 0x24 }
  - { offset: 0x61286, size: 0x8, addend: 0x0, symName: __ZNKSt3__112basic_stringIcNS_11char_traitsIcEENS_9allocatorIcEEE5emptyB8ne210108Ev, symObjAddr: 0x28CD4, symBinAddr: 0x10002A2FC, symSize: 0x64 }
  - { offset: 0x612AC, size: 0x8, addend: 0x0, symName: __ZN7testing15AssertionResult13AppendMessageERKNS_7MessageE, symObjAddr: 0x28D38, symBinAddr: 0x10002A360, symSize: 0x484 }
  - { offset: 0x612E2, size: 0x8, addend: 0x0, symName: __ZN7testing7MessagelsINSt3__112basic_stringIcNS2_11char_traitsIcEENS2_9allocatorIcEEEEEERS0_RKT_, symObjAddr: 0x291BC, symBinAddr: 0x10002A7E4, symSize: 0x178 }
  - { offset: 0x61326, size: 0x8, addend: 0x0, symName: __ZNSt3__110unique_ptrINS_12basic_stringIcNS_11char_traitsIcEENS_9allocatorIcEEEENS_14default_deleteIS6_EEEaSB8ne210108EOS9_, symObjAddr: 0x2943C, symBinAddr: 0x10002AA64, symSize: 0xFC }
  - { offset: 0x6135A, size: 0x8, addend: 0x0, symName: __ZNSt3__110unique_ptrINS_12basic_stringIcNS_11char_traitsIcEENS_9allocatorIcEEEENS_14default_deleteIS6_EEED1B8ne210108Ev, symObjAddr: 0x29538, symBinAddr: 0x10002AB60, symSize: 0x64 }
  - { offset: 0x61388, size: 0x8, addend: 0x0, symName: __ZNKSt3__110unique_ptrINS_12basic_stringIcNS_11char_traitsIcEENS_9allocatorIcEEEENS_14default_deleteIS6_EEEptB8ne210108Ev, symObjAddr: 0x2959C, symBinAddr: 0x10002ABC4, symSize: 0xD8 }
  - { offset: 0x613AE, size: 0x8, addend: 0x0, symName: __ZNKSt3__112basic_stringIcNS_11char_traitsIcEENS_9allocatorIcEEE5c_strB8ne210108Ev, symObjAddr: 0x29674, symBinAddr: 0x10002AC9C, symSize: 0x5C }
  - { offset: 0x613D4, size: 0x8, addend: 0x0, symName: __ZNKSt3__110unique_ptrINS_12basic_stringIcNS_11char_traitsIcEENS_9allocatorIcEEEENS_14default_deleteIS6_EEEcvbB8ne210108Ev, symObjAddr: 0x296D0, symBinAddr: 0x10002ACF8, symSize: 0xE0 }
  - { offset: 0x613FA, size: 0x8, addend: 0x0, symName: __ZNSt3__110unique_ptrINS_12basic_stringIcNS_11char_traitsIcEENS_9allocatorIcEEEENS_14default_deleteIS6_EEEC1B8ne210108ILb1EvEEPS6_, symObjAddr: 0x297B0, symBinAddr: 0x10002ADD8, symSize: 0x6C }
  - { offset: 0x6143D, size: 0x8, addend: 0x0, symName: __ZNSt3__110unique_ptrINS_12basic_stringIcNS_11char_traitsIcEENS_9allocatorIcEEEENS_14default_deleteIS6_EEEC2B8ne210108ILb1EvEEPS6_, symObjAddr: 0x2981C, symBinAddr: 0x10002AE44, symSize: 0xB8 }
  - { offset: 0x61480, size: 0x8, addend: 0x0, symName: __ZNSt3__110unique_ptrINS_12basic_stringIcNS_11char_traitsIcEENS_9allocatorIcEEEENS_14default_deleteIS6_EEE5resetB8ne210108EPS6_, symObjAddr: 0x298D4, symBinAddr: 0x10002AEFC, symSize: 0x190 }
  - { offset: 0x614C4, size: 0x8, addend: 0x0, symName: __ZNSt3__110unique_ptrINS_12basic_stringIcNS_11char_traitsIcEENS_9allocatorIcEEEENS_14default_deleteIS6_EEE7releaseB8ne210108Ev, symObjAddr: 0x29A64, symBinAddr: 0x10002B08C, symSize: 0x148 }
  - { offset: 0x614F9, size: 0x8, addend: 0x0, symName: __ZNSt3__110unique_ptrINS_12basic_stringIcNS_11char_traitsIcEENS_9allocatorIcEEEENS_14default_deleteIS6_EEE11get_deleterB8ne210108Ev, symObjAddr: 0x29BAC, symBinAddr: 0x10002B1D4, symSize: 0x78 }
  - { offset: 0x6151F, size: 0x8, addend: 0x0, symName: __ZNKSt3__114default_deleteINS_12basic_stringIcNS_11char_traitsIcEENS_9allocatorIcEEEEEclB8ne210108EPS6_, symObjAddr: 0x29C24, symBinAddr: 0x10002B24C, symSize: 0xA0 }
  - { offset: 0x61553, size: 0x8, addend: 0x0, symName: __ZNSt3__110unique_ptrINS_12basic_stringIcNS_11char_traitsIcEENS_9allocatorIcEEEENS_14default_deleteIS6_EEED2B8ne210108Ev, symObjAddr: 0x29CC4, symBinAddr: 0x10002B2EC, symSize: 0x68 }
  - { offset: 0x61581, size: 0x8, addend: 0x0, symName: __ZNKSt3__110unique_ptrINS_18basic_stringstreamIcNS_11char_traitsIcEENS_9allocatorIcEEEENS_14default_deleteIS6_EEEdeB8ne210108Ev, symObjAddr: 0x29D2C, symBinAddr: 0x10002B354, symSize: 0x110 }
  - { offset: 0x615A7, size: 0x8, addend: 0x0, symName: __ZNKRSt3__115basic_stringbufIcNS_11char_traitsIcEENS_9allocatorIcEEE3strB8ne210108Ev, symObjAddr: 0x29E3C, symBinAddr: 0x10002B464, symSize: 0x24C }
  - { offset: 0x615CE, size: 0x8, addend: 0x0, symName: __ZNKSt3__115basic_stringbufIcNS_11char_traitsIcEENS_9allocatorIcEEE3strB8ne210108IS4_Qsr14__is_allocatorITL0__EE5valueEENS_12basic_stringIcS2_T_EERKS9_, symObjAddr: 0x2A088, symBinAddr: 0x10002B6B0, symSize: 0x26C }
  - { offset: 0x6160E, size: 0x8, addend: 0x0, symName: __ZNKSt3__112basic_stringIcNS_11char_traitsIcEENS_9allocatorIcEEE13get_allocatorB8ne210108Ev, symObjAddr: 0x2A2F4, symBinAddr: 0x10002B91C, symSize: 0x54 }
  - { offset: 0x61634, size: 0x8, addend: 0x0, symName: __ZNKSt3__115basic_stringbufIcNS_11char_traitsIcEENS_9allocatorIcEEE4viewB8ne210108Ev, symObjAddr: 0x2A348, symBinAddr: 0x10002B970, symSize: 0x4C8 }
  - { offset: 0x6165D, size: 0x8, addend: 0x0, symName: __ZNSt3__112basic_stringIcNS_11char_traitsIcEENS_9allocatorIcEEEC1B8ne210108INS_17basic_string_viewIcS2_EETnNS_9enable_ifIXaasr33__can_be_converted_to_string_viewIcS2_T_EE5valuentsr7is_sameIu14__remove_cvrefISA_ES5_EE5valueEiE4typeELi0EEERKSA_RKS4_, symObjAddr: 0x2A810, symBinAddr: 0x10002BE38, symSize: 0x74 }
  - { offset: 0x616B5, size: 0x8, addend: 0x0, symName: __ZNKSt3__115basic_streambufIcNS_11char_traitsIcEEE4pptrB8ne210108Ev, symObjAddr: 0x2A884, symBinAddr: 0x10002BEAC, symSize: 0xA0 }
  - { offset: 0x616DB, size: 0x8, addend: 0x0, symName: __ZNKSt3__115basic_streambufIcNS_11char_traitsIcEEE5pbaseB8ne210108Ev, symObjAddr: 0x2A924, symBinAddr: 0x10002BF4C, symSize: 0xA0 }
  - { offset: 0x61701, size: 0x8, addend: 0x0, symName: __ZNSt3__117basic_string_viewIcNS_11char_traitsIcEEEC1B8ne210108ITkNS_19contiguous_iteratorEPcTkNS_18sized_sentinel_forITL0__EES5_Qaa9is_same_vINS_11conditionalIXsr21__is_primary_templateINS_15iterator_traitsIu14__remove_cvrefIS7_EEEEE5valueENS_26indirectly_readable_traitsISA_EESB_E4type10value_typeET_Ent16is_convertible_vITL0_0_mEEESH_T0_, symObjAddr: 0x2A9C4, symBinAddr: 0x10002BFEC, symSize: 0x74 }
  - { offset: 0x6175B, size: 0x8, addend: 0x0, symName: __ZNKSt3__115basic_streambufIcNS_11char_traitsIcEEE5ebackB8ne210108Ev, symObjAddr: 0x2AA38, symBinAddr: 0x10002C060, symSize: 0xA0 }
  - { offset: 0x61781, size: 0x8, addend: 0x0, symName: __ZNKSt3__115basic_streambufIcNS_11char_traitsIcEEE5egptrB8ne210108Ev, symObjAddr: 0x2AAD8, symBinAddr: 0x10002C100, symSize: 0xA0 }
  - { offset: 0x617A7, size: 0x8, addend: 0x0, symName: __ZNSt3__117basic_string_viewIcNS_11char_traitsIcEEEC1B8ne210108Ev, symObjAddr: 0x2AB78, symBinAddr: 0x10002C1A0, symSize: 0x64 }
  - { offset: 0x617D1, size: 0x8, addend: 0x0, symName: __ZNSt3__117basic_string_viewIcNS_11char_traitsIcEEEC2B8ne210108ITkNS_19contiguous_iteratorEPcTkNS_18sized_sentinel_forITL0__EES5_Qaa9is_same_vINS_11conditionalIXsr21__is_primary_templateINS_15iterator_traitsIu14__remove_cvrefIS7_EEEEE5valueENS_26indirectly_readable_traitsISA_EESB_E4type10value_typeET_Ent16is_convertible_vITL0_0_mEEESH_T0_, symObjAddr: 0x2ABDC, symBinAddr: 0x10002C204, symSize: 0x104 }
  - { offset: 0x6182B, size: 0x8, addend: 0x0, symName: __ZNSt3__117basic_string_viewIcNS_11char_traitsIcEEEC2B8ne210108Ev, symObjAddr: 0x2AD0C, symBinAddr: 0x10002C334, symSize: 0xD8 }
  - { offset: 0x61855, size: 0x8, addend: 0x0, symName: __ZNSt3__112basic_stringIcNS_11char_traitsIcEENS_9allocatorIcEEEC2B8ne210108INS_17basic_string_viewIcS2_EETnNS_9enable_ifIXaasr33__can_be_converted_to_string_viewIcS2_T_EE5valuentsr7is_sameIu14__remove_cvrefISA_ES5_EE5valueEiE4typeELi0EEERKSA_RKS4_, symObjAddr: 0x2ADE4, symBinAddr: 0x10002C40C, symSize: 0x234 }
  - { offset: 0x618D1, size: 0x8, addend: 0x0, symName: __ZNKSt3__117basic_string_viewIcNS_11char_traitsIcEEE4dataB8ne210108Ev, symObjAddr: 0x2B018, symBinAddr: 0x10002C640, symSize: 0x9C }
  - { offset: 0x618F7, size: 0x8, addend: 0x0, symName: __ZNKSt3__117basic_string_viewIcNS_11char_traitsIcEEE4sizeB8ne210108Ev, symObjAddr: 0x2B0B4, symBinAddr: 0x10002C6DC, symSize: 0xA0 }
  - { offset: 0x6191D, size: 0x8, addend: 0x0, symName: __ZN7testing25StringMatchResultListenerD2Ev, symObjAddr: 0x2B154, symBinAddr: 0x10002C77C, symSize: 0xC4 }
  - { offset: 0x6194E, size: 0x8, addend: 0x0, symName: __ZNSt3__118basic_stringstreamIcNS_11char_traitsIcEENS_9allocatorIcEEED2Ev, symObjAddr: 0x2B218, symBinAddr: 0x10002C840, symSize: 0x224 }
  - { offset: 0x6198C, size: 0x8, addend: 0x0, symName: __ZThn16_NSt3__118basic_stringstreamIcNS_11char_traitsIcEENS_9allocatorIcEEED1Ev, symObjAddr: 0x2B43C, symBinAddr: 0x10002CA64, symSize: 0x1C }
  - { offset: 0x619A3, size: 0x8, addend: 0x0, symName: __ZTv0_n24_NSt3__118basic_stringstreamIcNS_11char_traitsIcEENS_9allocatorIcEEED1Ev, symObjAddr: 0x2B458, symBinAddr: 0x10002CA80, symSize: 0xA0 }
  - { offset: 0x619BA, size: 0x8, addend: 0x0, symName: __ZNSt3__115basic_stringbufIcNS_11char_traitsIcEENS_9allocatorIcEEED1Ev, symObjAddr: 0x2B4F8, symBinAddr: 0x10002CB20, symSize: 0x64 }
  - { offset: 0x619EB, size: 0x8, addend: 0x0, symName: __ZNSt3__115basic_stringbufIcNS_11char_traitsIcEENS_9allocatorIcEEED2Ev, symObjAddr: 0x2B55C, symBinAddr: 0x10002CB84, symSize: 0xC4 }
  - { offset: 0x61A1C, size: 0x8, addend: 0x0, symName: __ZN7testing7MatcherIRKNSt3__16vectorINS1_12basic_stringIcNS1_11char_traitsIcEENS1_9allocatorIcEEEENS6_IS8_EEEEED2Ev, symObjAddr: 0x2B620, symBinAddr: 0x10002CC48, symSize: 0x64 }
  - { offset: 0x61A4C, size: 0x8, addend: 0x0, symName: __ZNK7testing15AssertionResult7messageEv, symObjAddr: 0x2B684, symBinAddr: 0x10002CCAC, symSize: 0x150 }
  - { offset: 0x61A72, size: 0x8, addend: 0x0, symName: __ZN7testing7MessageD2Ev, symObjAddr: 0x2B7D4, symBinAddr: 0x10002CDFC, symSize: 0x64 }
  - { offset: 0x61AA2, size: 0x8, addend: 0x0, symName: __ZNSt3__110unique_ptrINS_18basic_stringstreamIcNS_11char_traitsIcEENS_9allocatorIcEEEENS_14default_deleteIS6_EEED1B8ne210108Ev, symObjAddr: 0x2B838, symBinAddr: 0x10002CE60, symSize: 0x64 }
  - { offset: 0x61AD0, size: 0x8, addend: 0x0, symName: __ZNSt3__110unique_ptrINS_18basic_stringstreamIcNS_11char_traitsIcEENS_9allocatorIcEEEENS_14default_deleteIS6_EEED2B8ne210108Ev, symObjAddr: 0x2B89C, symBinAddr: 0x10002CEC4, symSize: 0x68 }
  - { offset: 0x61AFE, size: 0x8, addend: 0x0, symName: __ZNSt3__110unique_ptrINS_18basic_stringstreamIcNS_11char_traitsIcEENS_9allocatorIcEEEENS_14default_deleteIS6_EEE5resetB8ne210108EPS6_, symObjAddr: 0x2B904, symBinAddr: 0x10002CF2C, symSize: 0x190 }
  - { offset: 0x61B42, size: 0x8, addend: 0x0, symName: __ZNKSt3__114default_deleteINS_18basic_stringstreamIcNS_11char_traitsIcEENS_9allocatorIcEEEEEclB8ne210108EPS6_, symObjAddr: 0x2BA94, symBinAddr: 0x10002D0BC, symSize: 0x110 }
  - { offset: 0x61B76, size: 0x8, addend: 0x0, symName: __ZN7testing15AssertionResultD2Ev, symObjAddr: 0x2BBA4, symBinAddr: 0x10002D1CC, symSize: 0x68 }
  - { offset: 0x61BA6, size: 0x8, addend: 0x0, symName: __ZNSt3__16vectorINS_12basic_stringIcNS_11char_traitsIcEENS_9allocatorIcEEEENS4_IS6_EEED2B8ne210108Ev, symObjAddr: 0x2BC0C, symBinAddr: 0x10002D234, symSize: 0x254 }
  - { offset: 0x61BD5, size: 0x8, addend: 0x0, symName: __ZNSt3__16vectorINS_12basic_stringIcNS_11char_traitsIcEENS_9allocatorIcEEEENS4_IS6_EEE16__destroy_vectorC1B8ne210108ERS8_, symObjAddr: 0x2BE60, symBinAddr: 0x10002D488, symSize: 0x6C }
  - { offset: 0x61C0D, size: 0x8, addend: 0x0, symName: __ZNSt3__16vectorINS_12basic_stringIcNS_11char_traitsIcEENS_9allocatorIcEEEENS4_IS6_EEE16__destroy_vectorclB8ne210108Ev, symObjAddr: 0x2BECC, symBinAddr: 0x10002D4F4, symSize: 0x3A0 }
  - { offset: 0x61C33, size: 0x8, addend: 0x0, symName: __ZNSt3__16vectorINS_12basic_stringIcNS_11char_traitsIcEENS_9allocatorIcEEEENS4_IS6_EEE16__destroy_vectorC2B8ne210108ERS8_, symObjAddr: 0x2C26C, symBinAddr: 0x10002D894, symSize: 0xE8 }
  - { offset: 0x61C6B, size: 0x8, addend: 0x0, symName: __ZNSt3__16vectorINS_12basic_stringIcNS_11char_traitsIcEENS_9allocatorIcEEEENS4_IS6_EEE5clearB8ne210108Ev, symObjAddr: 0x2C354, symBinAddr: 0x10002D97C, symSize: 0xB8 }
  - { offset: 0x61CA0, size: 0x8, addend: 0x0, symName: __ZNKSt3__16vectorINS_12basic_stringIcNS_11char_traitsIcEENS_9allocatorIcEEEENS4_IS6_EEE17__annotate_deleteB8ne210108Ev, symObjAddr: 0x2C40C, symBinAddr: 0x10002DA34, symSize: 0x210 }
  - { offset: 0x61CC6, size: 0x8, addend: 0x0, symName: __ZNSt3__116allocator_traitsINS_9allocatorINS_12basic_stringIcNS_11char_traitsIcEENS1_IcEEEEEEE10deallocateB8ne210108ERS7_PS6_m, symObjAddr: 0x2C624, symBinAddr: 0x10002DC4C, symSize: 0x34 }
  - { offset: 0x61D08, size: 0x8, addend: 0x0, symName: __ZNKSt3__16vectorINS_12basic_stringIcNS_11char_traitsIcEENS_9allocatorIcEEEENS4_IS6_EEE8capacityB8ne210108Ev, symObjAddr: 0x2C658, symBinAddr: 0x10002DC80, symSize: 0x120 }
  - { offset: 0x61D2E, size: 0x8, addend: 0x0, symName: __ZNSt3__16vectorINS_12basic_stringIcNS_11char_traitsIcEENS_9allocatorIcEEEENS4_IS6_EEE22__base_destruct_at_endB8ne210108EPS6_, symObjAddr: 0x2C778, symBinAddr: 0x10002DDA0, symSize: 0x1C8 }
  - { offset: 0x61D72, size: 0x8, addend: 0x0, symName: __ZNKSt3__16vectorINS_12basic_stringIcNS_11char_traitsIcEENS_9allocatorIcEEEENS4_IS6_EEE17__annotate_shrinkB8ne210108Em, symObjAddr: 0x2C940, symBinAddr: 0x10002DF68, symSize: 0x200 }
  - { offset: 0x61DA7, size: 0x8, addend: 0x0, symName: __ZNSt3__116allocator_traitsINS_9allocatorINS_12basic_stringIcNS_11char_traitsIcEENS1_IcEEEEEEE7destroyB8ne210108IS6_TnNS_9enable_ifIXnt15__has_destroy_vIS7_PT_EEiE4typeELi0EEEvRS7_SC_, symObjAddr: 0x2CB48, symBinAddr: 0x10002E170, symSize: 0x28 }
  - { offset: 0x61DE6, size: 0x8, addend: 0x0, symName: __ZNKSt3__16vectorINS_12basic_stringIcNS_11char_traitsIcEENS_9allocatorIcEEEENS4_IS6_EEE31__annotate_contiguous_containerB8ne210108EPKvSA_, symObjAddr: 0x2CBF0, symBinAddr: 0x10002E218, symSize: 0x14C }
  - { offset: 0x61E2A, size: 0x8, addend: 0x0, symName: __ZNKSt3__16vectorINS_12basic_stringIcNS_11char_traitsIcEENS_9allocatorIcEEEENS4_IS6_EEE4dataB8ne210108Ev, symObjAddr: 0x2CD3C, symBinAddr: 0x10002E364, symSize: 0xA0 }
  - { offset: 0x61E50, size: 0x8, addend: 0x0, symName: __ZNSt3__19allocatorINS_12basic_stringIcNS_11char_traitsIcEENS0_IcEEEEE10deallocateB8ne210108EPS5_m, symObjAddr: 0x2CE30, symBinAddr: 0x10002E458, symSize: 0x58 }
  - { offset: 0x61E92, size: 0x8, addend: 0x0, symName: __ZN7testing8internal12CodeLocationD2Ev, symObjAddr: 0x2CF2C, symBinAddr: 0x10002E554, symSize: 0x64 }
  - { offset: 0x61EC3, size: 0x8, addend: 0x0, symName: __ZN7testing8internal15TestFactoryImplIN12_GLOBAL__N_129CaesarDec_RotVec_OneElem_TestEEC2Ev, symObjAddr: 0x2CF90, symBinAddr: 0x10002E5B8, symSize: 0xF8 }
  - { offset: 0x61EF0, size: 0x8, addend: 0x0, symName: __ZN7testing8internal15TestFactoryImplIN12_GLOBAL__N_129CaesarDec_RotVec_OneElem_TestEED1Ev, symObjAddr: 0x2D088, symBinAddr: 0x10002E6B0, symSize: 0x64 }
  - { offset: 0x61F21, size: 0x8, addend: 0x0, symName: __ZN7testing8internal15TestFactoryImplIN12_GLOBAL__N_129CaesarDec_RotVec_OneElem_TestEED0Ev, symObjAddr: 0x2D0EC, symBinAddr: 0x10002E714, symSize: 0x68 }
  - { offset: 0x61F4E, size: 0x8, addend: 0x0, symName: __ZN7testing8internal15TestFactoryImplIN12_GLOBAL__N_129CaesarDec_RotVec_OneElem_TestEE10CreateTestEv, symObjAddr: 0x2D154, symBinAddr: 0x10002E77C, symSize: 0xFC }
  - { offset: 0x61F74, size: 0x8, addend: 0x0, symName: __ZN7testing8internal15TestFactoryImplIN12_GLOBAL__N_129CaesarDec_RotVec_OneElem_TestEED2Ev, symObjAddr: 0x2D250, symBinAddr: 0x10002E878, symSize: 0x64 }
  - { offset: 0x61FA5, size: 0x8, addend: 0x0, symName: __ZN12_GLOBAL__N_129CaesarDec_RotVec_OneElem_TestC1Ev, symObjAddr: 0x2D2B4, symBinAddr: 0x10002E8DC, symSize: 0x64 }
  - { offset: 0x61FCF, size: 0x8, addend: 0x0, symName: __ZN12_GLOBAL__N_129CaesarDec_RotVec_OneElem_TestC2Ev, symObjAddr: 0x2D318, symBinAddr: 0x10002E940, symSize: 0xF8 }
  - { offset: 0x61FF9, size: 0x8, addend: 0x0, symName: __ZN12_GLOBAL__N_129CaesarDec_RotVec_OneElem_TestD1Ev, symObjAddr: 0x2D410, symBinAddr: 0x10002EA38, symSize: 0x64 }
  - { offset: 0x62027, size: 0x8, addend: 0x0, symName: __ZN12_GLOBAL__N_129CaesarDec_RotVec_OneElem_TestD0Ev, symObjAddr: 0x2D474, symBinAddr: 0x10002EA9C, symSize: 0x68 }
  - { offset: 0x62051, size: 0x8, addend: 0x0, symName: __ZN12_GLOBAL__N_129CaesarDec_RotVec_OneElem_Test8TestBodyEv, symObjAddr: 0x2D4DC, symBinAddr: 0x10002EB04, symSize: 0xB34 }
  - { offset: 0x620CB, size: 0x8, addend: 0x0, symName: __ZN12_GLOBAL__N_129CaesarDec_RotVec_OneElem_TestD2Ev, symObjAddr: 0x2E010, symBinAddr: 0x10002F638, symSize: 0x64 }
  - { offset: 0x620F9, size: 0x8, addend: 0x0, symName: __ZNSt3__16vectorINS_12basic_stringIcNS_11char_traitsIcEENS_9allocatorIcEEEENS4_IS6_EEEC1B8ne210108ESt16initializer_listIS6_E, symObjAddr: 0x2E074, symBinAddr: 0x10002F69C, symSize: 0x74 }
  - { offset: 0x62132, size: 0x8, addend: 0x0, symName: __ZNSt3__16vectorINS_12basic_stringIcNS_11char_traitsIcEENS_9allocatorIcEEEENS4_IS6_EEE4dataB8ne210108Ev, symObjAddr: 0x2E0E8, symBinAddr: 0x10002F710, symSize: 0xA0 }
  - { offset: 0x62163, size: 0x8, addend: 0x0, symName: __ZNK7testing8internal29PredicateFormatterFromMatcherINS0_9EqMatcherIPNSt3__112basic_stringIcNS3_11char_traitsIcEENS3_9allocatorIcEEEEEEEclISA_EENS_15AssertionResultEPKcRKT_, symObjAddr: 0x2E53C, symBinAddr: 0x10002FB64, symSize: 0xB38 }
  - { offset: 0x62204, size: 0x8, addend: 0x0, symName: __ZN7testing7MessagelsIA74_cEERS0_RKT_, symObjAddr: 0x2F074, symBinAddr: 0x10003069C, symSize: 0x140 }
  - { offset: 0x62253, size: 0x8, addend: 0x0, symName: __ZNK7testing8internal29PredicateFormatterFromMatcherINS0_23ElementsAreArrayMatcherIPKcEEEclINSt3__16vectorINS8_12basic_stringIcNS8_11char_traitsIcEENS8_9allocatorIcEEEENSD_ISF_EEEEEENS_15AssertionResultES4_RKT_, symObjAddr: 0x2F66C, symBinAddr: 0x100030C94, symSize: 0xB38 }
  - { offset: 0x622DD, size: 0x8, addend: 0x0, symName: __ZN7testing8internal29PredicateFormatterFromMatcherINS0_23ElementsAreArrayMatcherIPKcEEED1Ev, symObjAddr: 0x301A4, symBinAddr: 0x1000317CC, symSize: 0x64 }
  - { offset: 0x62314, size: 0x8, addend: 0x0, symName: __ZN7testing8internal23ElementsAreArrayMatcherIPKcED1Ev, symObjAddr: 0x30208, symBinAddr: 0x100031830, symSize: 0x64 }
  - { offset: 0x62345, size: 0x8, addend: 0x0, symName: __ZNSt3__16vectorINS_12basic_stringIcNS_11char_traitsIcEENS_9allocatorIcEEEENS4_IS6_EEEC2B8ne210108ESt16initializer_listIS6_E, symObjAddr: 0x3026C, symBinAddr: 0x100031894, symSize: 0x2D0 }
  - { offset: 0x62383, size: 0x8, addend: 0x0, symName: __ZNSt3__16vectorINS_12basic_stringIcNS_11char_traitsIcEENS_9allocatorIcEEEENS4_IS6_EEE16__init_with_sizeB8ne210108IPKS6_SB_EEvT_T0_m, symObjAddr: 0x3053C, symBinAddr: 0x100031B64, symSize: 0x370 }
  - { offset: 0x623FF, size: 0x8, addend: 0x0, symName: __ZNKSt16initializer_listINSt3__112basic_stringIcNS0_11char_traitsIcEENS0_9allocatorIcEEEEE5beginB8ne210108Ev, symObjAddr: 0x308AC, symBinAddr: 0x100031ED4, symSize: 0x9C }
  - { offset: 0x62425, size: 0x8, addend: 0x0, symName: __ZNKSt16initializer_listINSt3__112basic_stringIcNS0_11char_traitsIcEENS0_9allocatorIcEEEEE3endB8ne210108Ev, symObjAddr: 0x30948, symBinAddr: 0x100031F70, symSize: 0x184 }
  - { offset: 0x6244B, size: 0x8, addend: 0x0, symName: __ZNKSt16initializer_listINSt3__112basic_stringIcNS0_11char_traitsIcEENS0_9allocatorIcEEEEE4sizeB8ne210108Ev, symObjAddr: 0x30ACC, symBinAddr: 0x1000320F4, symSize: 0xA0 }
  - { offset: 0x62471, size: 0x8, addend: 0x0, symName: __ZNSt3__16vectorINS_12basic_stringIcNS_11char_traitsIcEENS_9allocatorIcEEEENS4_IS6_EEE11__vallocateB8ne210108Em, symObjAddr: 0x30BE8, symBinAddr: 0x100032210, symSize: 0x484 }
  - { offset: 0x624BB, size: 0x8, addend: 0x0, symName: __ZNSt3__16vectorINS_12basic_stringIcNS_11char_traitsIcEENS_9allocatorIcEEEENS4_IS6_EEE18__construct_at_endIPKS6_SB_EEvT_T0_m, symObjAddr: 0x3106C, symBinAddr: 0x100032694, symSize: 0x3D4 }
  - { offset: 0x62537, size: 0x8, addend: 0x0, symName: __ZNSt3__128__exception_guard_exceptionsINS_6vectorINS_12basic_stringIcNS_11char_traitsIcEENS_9allocatorIcEEEENS5_IS7_EEE16__destroy_vectorEE10__completeB8ne210108Ev, symObjAddr: 0x31440, symBinAddr: 0x100032A68, symSize: 0xC4 }
  - { offset: 0x6255D, size: 0x8, addend: 0x0, symName: __ZNSt3__128__exception_guard_exceptionsINS_6vectorINS_12basic_stringIcNS_11char_traitsIcEENS_9allocatorIcEEEENS5_IS7_EEE16__destroy_vectorEED1B8ne210108Ev, symObjAddr: 0x31504, symBinAddr: 0x100032B2C, symSize: 0x64 }
  - { offset: 0x6258B, size: 0x8, addend: 0x0, symName: __ZNSt3__128__exception_guard_exceptionsINS_6vectorINS_12basic_stringIcNS_11char_traitsIcEENS_9allocatorIcEEEENS5_IS7_EEE16__destroy_vectorEEC1B8ne210108ESA_, symObjAddr: 0x31568, symBinAddr: 0x100032B90, symSize: 0x6C }
  - { offset: 0x625C3, size: 0x8, addend: 0x0, symName: __ZNSt3__128__exception_guard_exceptionsINS_6vectorINS_12basic_stringIcNS_11char_traitsIcEENS_9allocatorIcEEEENS5_IS7_EEE16__destroy_vectorEEC2B8ne210108ESA_, symObjAddr: 0x315D4, symBinAddr: 0x100032BFC, symSize: 0xE0 }
  - { offset: 0x625FB, size: 0x8, addend: 0x0, symName: __ZNKSt3__16vectorINS_12basic_stringIcNS_11char_traitsIcEENS_9allocatorIcEEEENS4_IS6_EEE8max_sizeB8ne210108Ev, symObjAddr: 0x316B4, symBinAddr: 0x100032CDC, symSize: 0x2FC }
  - { offset: 0x62622, size: 0x8, addend: 0x0, symName: __ZNSt3__16vectorINS_12basic_stringIcNS_11char_traitsIcEENS_9allocatorIcEEEENS4_IS6_EEE20__throw_length_errorB8ne210108Ev, symObjAddr: 0x319B8, symBinAddr: 0x100032FE0, symSize: 0x34 }
  - { offset: 0x62636, size: 0x8, addend: 0x0, symName: __ZNKSt3__16vectorINS_12basic_stringIcNS_11char_traitsIcEENS_9allocatorIcEEEENS4_IS6_EEE14__annotate_newB8ne210108Em, symObjAddr: 0x31A34, symBinAddr: 0x10003305C, symSize: 0x200 }
  - { offset: 0x62676, size: 0x8, addend: 0x0, symName: __ZNSt3__116allocator_traitsINS_9allocatorINS_12basic_stringIcNS_11char_traitsIcEENS1_IcEEEEEEE8max_sizeB8ne210108IS7_TnNS_9enable_ifIXnt16__has_max_size_vIKT_EEiE4typeELi0EEEmRKS7_, symObjAddr: 0x31D18, symBinAddr: 0x100033340, symSize: 0x54 }
  - { offset: 0x626A6, size: 0x8, addend: 0x0, symName: __ZNSt3__114numeric_limitsIlE3maxB8ne210108Ev, symObjAddr: 0x31D74, symBinAddr: 0x10003339C, symSize: 0x14 }
  - { offset: 0x626C5, size: 0x8, addend: 0x0, symName: __ZNKSt3__16__lessIvvEclB8ne210108ImmEEbRKT_RKT0_, symObjAddr: 0x32000, symBinAddr: 0x100033628, symSize: 0xD0 }
  - { offset: 0x62719, size: 0x8, addend: 0x0, symName: __ZNSt3__114numeric_limitsImE3maxB8ne210108Ev, symObjAddr: 0x320D8, symBinAddr: 0x100033700, symSize: 0x14 }
  - { offset: 0x6272D, size: 0x8, addend: 0x0, symName: __ZNSt3__123__libcpp_numeric_limitsImLb1EE3maxB8ne210108Ev, symObjAddr: 0x320F4, symBinAddr: 0x10003371C, symSize: 0x8 }
  - { offset: 0x62741, size: 0x8, addend: 0x0, symName: __ZNSt3__123__libcpp_numeric_limitsIlLb1EE3maxB8ne210108Ev, symObjAddr: 0x32104, symBinAddr: 0x10003372C, symSize: 0x8 }
  - { offset: 0x62755, size: 0x8, addend: 0x0, symName: __ZNSt12length_errorC1B8ne210108EPKc, symObjAddr: 0x321B8, symBinAddr: 0x1000337E0, symSize: 0x6C }
  - { offset: 0x6278D, size: 0x8, addend: 0x0, symName: __ZNSt12length_errorC2B8ne210108EPKc, symObjAddr: 0x32224, symBinAddr: 0x10003384C, symSize: 0x108 }
  - { offset: 0x627C5, size: 0x8, addend: 0x0, symName: __ZNSt3__19allocatorINS_12basic_stringIcNS_11char_traitsIcEENS0_IcEEEEE8allocateB8ne210108Em, symObjAddr: 0x3232C, symBinAddr: 0x100033954, symSize: 0xB4 }
  - { offset: 0x62815, size: 0x8, addend: 0x0, symName: __ZNSt3__16vectorINS_12basic_stringIcNS_11char_traitsIcEENS_9allocatorIcEEEENS4_IS6_EEE21_ConstructTransactionC1B8ne210108ERS8_m, symObjAddr: 0x32510, symBinAddr: 0x100033B38, symSize: 0x74 }
  - { offset: 0x6285D, size: 0x8, addend: 0x0, symName: __ZNSt3__16vectorINS_12basic_stringIcNS_11char_traitsIcEENS_9allocatorIcEEEENS4_IS6_EEE21_ConstructTransactionD1B8ne210108Ev, symObjAddr: 0x32804, symBinAddr: 0x100033E2C, symSize: 0x64 }
  - { offset: 0x6288B, size: 0x8, addend: 0x0, symName: __ZNSt3__16vectorINS_12basic_stringIcNS_11char_traitsIcEENS_9allocatorIcEEEENS4_IS6_EEE21_ConstructTransactionC2B8ne210108ERS8_m, symObjAddr: 0x32868, symBinAddr: 0x100033E90, symSize: 0x354 }
  - { offset: 0x628D3, size: 0x8, addend: 0x0, symName: __ZNKSt3__16vectorINS_12basic_stringIcNS_11char_traitsIcEENS_9allocatorIcEEEENS4_IS6_EEE19__annotate_increaseB8ne210108Em, symObjAddr: 0x32BBC, symBinAddr: 0x1000341E4, symSize: 0x2C8 }
  - { offset: 0x62925, size: 0x8, addend: 0x0, symName: __ZNSt3__119__unwrap_range_implIPKNS_12basic_stringIcNS_11char_traitsIcEENS_9allocatorIcEEEES8_E8__unwrapB8ne210108ES8_S8_, symObjAddr: 0x33474, symBinAddr: 0x100034A9C, symSize: 0x248 }
  - { offset: 0x6295E, size: 0x8, addend: 0x0, symName: __ZNSt3__14pairIPKNS_12basic_stringIcNS_11char_traitsIcEENS_9allocatorIcEEEES8_EC1B8ne210108IS8_S8_TnNS_9enable_ifIXclsr25__check_pair_constructionIS8_S8_EE23__is_pair_constructibleIT_T0_EEEiE4typeELi0EEEOSC_OSD_, symObjAddr: 0x336E8, symBinAddr: 0x100034D10, symSize: 0x74 }
  - { offset: 0x629BD, size: 0x8, addend: 0x0, symName: __ZNSt3__118__unwrap_iter_implIPKNS_12basic_stringIcNS_11char_traitsIcEENS_9allocatorIcEEEELb1EE8__unwrapB8ne210108ES8_, symObjAddr: 0x33764, symBinAddr: 0x100034D8C, symSize: 0x24 }
  - { offset: 0x629E0, size: 0x8, addend: 0x0, symName: __ZNSt3__14pairIPKNS_12basic_stringIcNS_11char_traitsIcEENS_9allocatorIcEEEES8_EC2B8ne210108IS8_S8_TnNS_9enable_ifIXclsr25__check_pair_constructionIS8_S8_EE23__is_pair_constructibleIT_T0_EEEiE4typeELi0EEEOSC_OSD_, symObjAddr: 0x337A4, symBinAddr: 0x100034DCC, symSize: 0x1D8 }
  - { offset: 0x62A3F, size: 0x8, addend: 0x0, symName: __ZNSt3__129_AllocatorDestroyRangeReverseINS_9allocatorINS_12basic_stringIcNS_11char_traitsIcEENS1_IcEEEEEEPS6_EC1B8ne210108ERS7_RS8_SB_, symObjAddr: 0x33B88, symBinAddr: 0x1000351B0, symSize: 0x7C }
  - { offset: 0x62A96, size: 0x8, addend: 0x0, symName: __ZNSt3__116allocator_traitsINS_9allocatorINS_12basic_stringIcNS_11char_traitsIcEENS1_IcEEEEEEE9constructB8ne210108IS6_JRKS6_ETnNS_9enable_ifIXnt17__has_construct_vIS7_PT_DpT0_EEiE4typeELi0EEEvRS7_SE_DpOSF_, symObjAddr: 0x33C0C, symBinAddr: 0x100035234, symSize: 0x70 }
  - { offset: 0x62AEF, size: 0x8, addend: 0x0, symName: __ZNSt3__128__exception_guard_exceptionsINS_29_AllocatorDestroyRangeReverseINS_9allocatorINS_12basic_stringIcNS_11char_traitsIcEENS2_IcEEEEEEPS7_EEE10__completeB8ne210108Ev, symObjAddr: 0x33C7C, symBinAddr: 0x1000352A4, symSize: 0xC4 }
  - { offset: 0x62B15, size: 0x8, addend: 0x0, symName: __ZNSt3__128__exception_guard_exceptionsINS_29_AllocatorDestroyRangeReverseINS_9allocatorINS_12basic_stringIcNS_11char_traitsIcEENS2_IcEEEEEEPS7_EEED1B8ne210108Ev, symObjAddr: 0x33D40, symBinAddr: 0x100035368, symSize: 0x64 }
  - { offset: 0x62B43, size: 0x8, addend: 0x0, symName: __ZNSt3__128__exception_guard_exceptionsINS_29_AllocatorDestroyRangeReverseINS_9allocatorINS_12basic_stringIcNS_11char_traitsIcEENS2_IcEEEEEEPS7_EEEC1B8ne210108ESA_, symObjAddr: 0x33DA4, symBinAddr: 0x1000353CC, symSize: 0x70 }
  - { offset: 0x62B7C, size: 0x8, addend: 0x0, symName: __ZNSt3__128__exception_guard_exceptionsINS_29_AllocatorDestroyRangeReverseINS_9allocatorINS_12basic_stringIcNS_11char_traitsIcEENS2_IcEEEEEEPS7_EEEC2B8ne210108ESA_, symObjAddr: 0x33E14, symBinAddr: 0x10003543C, symSize: 0xE4 }
  - { offset: 0x62BB5, size: 0x8, addend: 0x0, symName: __ZNSt3__129_AllocatorDestroyRangeReverseINS_9allocatorINS_12basic_stringIcNS_11char_traitsIcEENS1_IcEEEEEEPS6_EC2B8ne210108ERS7_RS8_SB_, symObjAddr: 0x33EF8, symBinAddr: 0x100035520, symSize: 0x1C4 }
  - { offset: 0x62C0C, size: 0x8, addend: 0x0, symName: __ZNSt3__128__exception_guard_exceptionsINS_29_AllocatorDestroyRangeReverseINS_9allocatorINS_12basic_stringIcNS_11char_traitsIcEENS2_IcEEEEEEPS7_EEED2B8ne210108Ev, symObjAddr: 0x341D8, symBinAddr: 0x100035800, symSize: 0x158 }
  - { offset: 0x62C3A, size: 0x8, addend: 0x0, symName: __ZNKSt3__129_AllocatorDestroyRangeReverseINS_9allocatorINS_12basic_stringIcNS_11char_traitsIcEENS1_IcEEEEEEPS6_EclB8ne210108Ev, symObjAddr: 0x34330, symBinAddr: 0x100035958, symSize: 0x33C }
  - { offset: 0x62C61, size: 0x8, addend: 0x0, symName: __ZNSt3__116reverse_iteratorIPNS_12basic_stringIcNS_11char_traitsIcEENS_9allocatorIcEEEEEC1B8ne210108ES7_, symObjAddr: 0x348B8, symBinAddr: 0x100035EE0, symSize: 0x6C }
  - { offset: 0x62C99, size: 0x8, addend: 0x0, symName: __ZNKSt3__116reverse_iteratorIPNS_12basic_stringIcNS_11char_traitsIcEENS_9allocatorIcEEEEEdeB8ne210108Ev, symObjAddr: 0x349BC, symBinAddr: 0x100035FE4, symSize: 0x150 }
  - { offset: 0x62CCD, size: 0x8, addend: 0x0, symName: __ZNSt3__116reverse_iteratorIPNS_12basic_stringIcNS_11char_traitsIcEENS_9allocatorIcEEEEEppB8ne210108Ev, symObjAddr: 0x34B0C, symBinAddr: 0x100036134, symSize: 0x180 }
  - { offset: 0x62CF3, size: 0x8, addend: 0x0, symName: __ZNKSt3__116reverse_iteratorIPNS_12basic_stringIcNS_11char_traitsIcEENS_9allocatorIcEEEEE4baseB8ne210108Ev, symObjAddr: 0x34C8C, symBinAddr: 0x1000362B4, symSize: 0xA0 }
  - { offset: 0x62D19, size: 0x8, addend: 0x0, symName: __ZNSt3__116reverse_iteratorIPNS_12basic_stringIcNS_11char_traitsIcEENS_9allocatorIcEEEEEC2B8ne210108ES7_, symObjAddr: 0x34D2C, symBinAddr: 0x100036354, symSize: 0xF4 }
  - { offset: 0x62D51, size: 0x8, addend: 0x0, symName: __ZNSt3__118__unwrap_iter_implIPNS_12basic_stringIcNS_11char_traitsIcEENS_9allocatorIcEEEELb1EE8__unwrapB8ne210108ES7_, symObjAddr: 0x34E28, symBinAddr: 0x100036450, symSize: 0x24 }
  - { offset: 0x62D74, size: 0x8, addend: 0x0, symName: __ZNSt3__118__unwrap_iter_implIPNS_12basic_stringIcNS_11char_traitsIcEENS_9allocatorIcEEEELb1EE8__rewrapB8ne210108ES7_S7_, symObjAddr: 0x34E54, symBinAddr: 0x10003647C, symSize: 0x10C }
  - { offset: 0x62DA5, size: 0x8, addend: 0x0, symName: __ZNSt3__16vectorINS_12basic_stringIcNS_11char_traitsIcEENS_9allocatorIcEEEENS4_IS6_EEE21_ConstructTransactionD2B8ne210108Ev, symObjAddr: 0x34F60, symBinAddr: 0x100036588, symSize: 0x31C }
  - { offset: 0x62DD3, size: 0x8, addend: 0x0, symName: __ZNSt3__128__exception_guard_exceptionsINS_6vectorINS_12basic_stringIcNS_11char_traitsIcEENS_9allocatorIcEEEENS5_IS7_EEE16__destroy_vectorEED2B8ne210108Ev, symObjAddr: 0x3527C, symBinAddr: 0x1000368A4, symSize: 0x144 }
  - { offset: 0x62E01, size: 0x8, addend: 0x0, symName: __ZN7testing8internal29PredicateFormatterFromMatcherINS0_9EqMatcherIPNSt3__112basic_stringIcNS3_11char_traitsIcEENS3_9allocatorIcEEEEEEEC1ESB_, symObjAddr: 0x353C0, symBinAddr: 0x1000369E8, symSize: 0x6C }
  - { offset: 0x62E3A, size: 0x8, addend: 0x0, symName: __ZN7testing8internal29PredicateFormatterFromMatcherINS0_9EqMatcherIPNSt3__112basic_stringIcNS3_11char_traitsIcEENS3_9allocatorIcEEEEEEEC2ESB_, symObjAddr: 0x3542C, symBinAddr: 0x100036A54, symSize: 0x70 }
  - { offset: 0x62E73, size: 0x8, addend: 0x0, symName: __ZN7testing8internal9EqMatcherIPNSt3__112basic_stringIcNS2_11char_traitsIcEENS2_9allocatorIcEEEEEC1ERKS9_, symObjAddr: 0x3549C, symBinAddr: 0x100036AC4, symSize: 0x6C }
  - { offset: 0x62EAC, size: 0x8, addend: 0x0, symName: __ZN7testing8internal9EqMatcherIPNSt3__112basic_stringIcNS2_11char_traitsIcEENS2_9allocatorIcEEEEEC2ERKS9_, symObjAddr: 0x35508, symBinAddr: 0x100036B30, symSize: 0xD8 }
  - { offset: 0x62EE5, size: 0x8, addend: 0x0, symName: __ZN7testing8internal14ComparisonBaseINS0_9EqMatcherIPNSt3__112basic_stringIcNS3_11char_traitsIcEENS3_9allocatorIcEEEEEESA_NS3_8equal_toIvEEEC2ERKSA_, symObjAddr: 0x355E0, symBinAddr: 0x100036C08, symSize: 0xE8 }
  - { offset: 0x62F1E, size: 0x8, addend: 0x0, symName: __ZNK7testing8internal11MatcherBaseIRKPNSt3__112basic_stringIcNS2_11char_traitsIcEENS2_9allocatorIcEEEEE7MatchesESB_, symObjAddr: 0x35738, symBinAddr: 0x100036D60, symSize: 0x2DC }
  - { offset: 0x62F66, size: 0x8, addend: 0x0, symName: __ZNK7testing8internal11MatcherBaseIRKPNSt3__112basic_stringIcNS2_11char_traitsIcEENS2_9allocatorIcEEEEE10DescribeToEPNS2_13basic_ostreamIcS5_EE, symObjAddr: 0x35A14, symBinAddr: 0x10003703C, symSize: 0x4CC }
  - { offset: 0x62F9C, size: 0x8, addend: 0x0, symName: __ZN7testing7MatcherIRKPNSt3__112basic_stringIcNS1_11char_traitsIcEENS1_9allocatorIcEEEEED1Ev, symObjAddr: 0x367EC, symBinAddr: 0x100037E14, symSize: 0x64 }
  - { offset: 0x62FCC, size: 0x8, addend: 0x0, symName: __ZN7testing8internal15MatcherCastImplIRKPNSt3__112basic_stringIcNS2_11char_traitsIcEENS2_9allocatorIcEEEENS0_9EqMatcherIS9_EEE4CastERKSD_, symObjAddr: 0x368C8, symBinAddr: 0x100037EF0, symSize: 0x68 }
  - { offset: 0x62FF0, size: 0x8, addend: 0x0, symName: __ZN7testing8internal15MatcherCastImplIRKPNSt3__112basic_stringIcNS2_11char_traitsIcEENS2_9allocatorIcEEEENS0_9EqMatcherIS9_EEE8CastImplILb0EEENS_7MatcherISB_EERKSD_NS2_17integral_constantIbLb1EEENSK_IbXT_EEE, symObjAddr: 0x36938, symBinAddr: 0x100037F60, symSize: 0x9C }
  - { offset: 0x63034, size: 0x8, addend: 0x0, symName: __ZN7testing7MatcherIRKPNSt3__112basic_stringIcNS1_11char_traitsIcEENS1_9allocatorIcEEEEEC1IRKNS_8internal9EqMatcherIS8_EEvEEOT_, symObjAddr: 0x369D4, symBinAddr: 0x100037FFC, symSize: 0x6C }
  - { offset: 0x63077, size: 0x8, addend: 0x0, symName: __ZN7testing7MatcherIRKPNSt3__112basic_stringIcNS1_11char_traitsIcEENS1_9allocatorIcEEEEEC2IRKNS_8internal9EqMatcherIS8_EEvEEOT_, symObjAddr: 0x36A40, symBinAddr: 0x100038068, symSize: 0x138 }
  - { offset: 0x630BA, size: 0x8, addend: 0x0, symName: __ZN7testing8internal11MatcherBaseIRKPNSt3__112basic_stringIcNS2_11char_traitsIcEENS2_9allocatorIcEEEEEC2IRKNS0_9EqMatcherIS9_EEvEEOT_, symObjAddr: 0x36B78, symBinAddr: 0x1000381A0, symSize: 0x1A8 }
  - { offset: 0x630FD, size: 0x8, addend: 0x0, symName: __ZN7testing7MatcherIRKPNSt3__112basic_stringIcNS1_11char_traitsIcEENS1_9allocatorIcEEEEED0Ev, symObjAddr: 0x36D20, symBinAddr: 0x100038348, symSize: 0x68 }
  - { offset: 0x63129, size: 0x8, addend: 0x0, symName: __ZNK7testing8internal11MatcherBaseIRKPNSt3__112basic_stringIcNS2_11char_traitsIcEENS2_9allocatorIcEEEEE18DescribeNegationToEPNS2_13basic_ostreamIcS5_EE, symObjAddr: 0x36D88, symBinAddr: 0x1000383B0, symSize: 0x4CC }
  - { offset: 0x6315F, size: 0x8, addend: 0x0, symName: __ZN7testing8internal11MatcherBaseIRKPNSt3__112basic_stringIcNS2_11char_traitsIcEENS2_9allocatorIcEEEEE4InitIRKNS0_9EqMatcherIS9_EEEEvOT_, symObjAddr: 0x37254, symBinAddr: 0x10003887C, symSize: 0x108 }
  - { offset: 0x6319D, size: 0x8, addend: 0x0, symName: __ZN7testing8internal11MatcherBaseIRKPNSt3__112basic_stringIcNS2_11char_traitsIcEENS2_9allocatorIcEEEEED1Ev, symObjAddr: 0x3735C, symBinAddr: 0x100038984, symSize: 0x64 }
  - { offset: 0x631CB, size: 0x8, addend: 0x0, symName: __ZN7testing8internal11MatcherBaseIRKPNSt3__112basic_stringIcNS2_11char_traitsIcEENS2_9allocatorIcEEEEED0Ev, symObjAddr: 0x373C0, symBinAddr: 0x1000389E8, symSize: 0x68 }
  - { offset: 0x631F5, size: 0x8, addend: 0x0, symName: __ZN7testing8internal11MatcherBaseIRKPNSt3__112basic_stringIcNS2_11char_traitsIcEENS2_9allocatorIcEEEEE11ValuePolicyINS0_9EqMatcherIS9_EELb1EE4InitERSC_SF_, symObjAddr: 0x3748C, symBinAddr: 0x100038AB4, symSize: 0x78 }
  - { offset: 0x63228, size: 0x8, addend: 0x0, symName: __ZN7testing8internal11MatcherBaseIRKPNSt3__112basic_stringIcNS2_11char_traitsIcEENS2_9allocatorIcEEEEE19MatchAndExplainImplINSC_11ValuePolicyINS0_9EqMatcherIS9_EELb1EEEEEDTcldtclsrT_3Getfp_E15MatchAndExplainfp0_clptfp1_6streamEEERKSC_SB_PNS_19MatchResultListenerE, symObjAddr: 0x3750C, symBinAddr: 0x100038B34, symSize: 0x144 }
  - { offset: 0x63273, size: 0x8, addend: 0x0, symName: __ZN7testing8internal11MatcherBaseIRKPNSt3__112basic_stringIcNS2_11char_traitsIcEENS2_9allocatorIcEEEEE12DescribeImplINSC_11ValuePolicyINS0_9EqMatcherIS9_EELb1EEEEEvRKSC_PNS2_13basic_ostreamIcS5_EEb, symObjAddr: 0x37658, symBinAddr: 0x100038C80, symSize: 0x1A8 }
  - { offset: 0x632BE, size: 0x8, addend: 0x0, symName: __ZN7testing8internal11MatcherBaseIRKPNSt3__112basic_stringIcNS2_11char_traitsIcEENS2_9allocatorIcEEEEE16GetDescriberImplINSC_11ValuePolicyINS0_9EqMatcherIS9_EELb1EEEEEPKNS_25MatcherDescriberInterfaceERKSC_, symObjAddr: 0x37808, symBinAddr: 0x100038E30, symSize: 0x31C }
  - { offset: 0x632EC, size: 0x8, addend: 0x0, symName: __ZN7testing8internal11MatcherBaseIRKPNSt3__112basic_stringIcNS2_11char_traitsIcEENS2_9allocatorIcEEEEE11ValuePolicyINS0_9EqMatcherIS9_EELb1EE3GetERKSC_, symObjAddr: 0x37B2C, symBinAddr: 0x100039154, symSize: 0x64 }
  - { offset: 0x6331F, size: 0x8, addend: 0x0, symName: __ZNK7testing8internal14ComparisonBaseINS0_9EqMatcherIPNSt3__112basic_stringIcNS3_11char_traitsIcEENS3_9allocatorIcEEEEEESA_NS3_8equal_toIvEEE15MatchAndExplainISA_EEbRKT_PNS3_13basic_ostreamIcS6_EE, symObjAddr: 0x37B90, symBinAddr: 0x1000391B8, symSize: 0x2B0 }
  - { offset: 0x63376, size: 0x8, addend: 0x0, symName: __ZNKSt3__18equal_toIvEclB8ne210108IRKPNS_12basic_stringIcNS_11char_traitsIcEENS_9allocatorIcEEEESB_EEDTeqclsr3stdE7forwardIT_Efp_Eclsr3stdE7forwardIT0_Efp0_EEOSC_OSD_, symObjAddr: 0x37E40, symBinAddr: 0x100039468, symSize: 0x148 }
  - { offset: 0x633CC, size: 0x8, addend: 0x0, symName: __ZN7testing8internal14ComparisonBaseINS0_9EqMatcherIPNSt3__112basic_stringIcNS3_11char_traitsIcEENS3_9allocatorIcEEEEEESA_NS3_8equal_toIvEEE6UnwrapISA_EERKT_SI_, symObjAddr: 0x37F90, symBinAddr: 0x1000395B8, symSize: 0x58 }
  - { offset: 0x633F9, size: 0x8, addend: 0x0, symName: __ZNK7testing8internal14ComparisonBaseINS0_9EqMatcherIPNSt3__112basic_stringIcNS3_11char_traitsIcEENS3_9allocatorIcEEEEEESA_NS3_8equal_toIvEEE18DescribeNegationToEPNS3_13basic_ostreamIcS6_EE, symObjAddr: 0x37FE8, symBinAddr: 0x100039610, symSize: 0x160 }
  - { offset: 0x6342E, size: 0x8, addend: 0x0, symName: __ZNK7testing8internal14ComparisonBaseINS0_9EqMatcherIPNSt3__112basic_stringIcNS3_11char_traitsIcEENS3_9allocatorIcEEEEEESA_NS3_8equal_toIvEEE10DescribeToEPNS3_13basic_ostreamIcS6_EE, symObjAddr: 0x38148, symBinAddr: 0x100039770, symSize: 0x160 }
  - { offset: 0x63463, size: 0x8, addend: 0x0, symName: __ZN7testing8internal9EqMatcherIPNSt3__112basic_stringIcNS2_11char_traitsIcEENS2_9allocatorIcEEEEE11NegatedDescEv, symObjAddr: 0x382B0, symBinAddr: 0x1000398D8, symSize: 0xC }
  - { offset: 0x63477, size: 0x8, addend: 0x0, symName: __ZN7testing8internal16UniversalPrinterIPNSt3__112basic_stringIcNS2_11char_traitsIcEENS2_9allocatorIcEEEEE5PrintERKS9_PNS2_13basic_ostreamIcS5_EE, symObjAddr: 0x38330, symBinAddr: 0x100039958, symSize: 0x64 }
  - { offset: 0x634AA, size: 0x8, addend: 0x0, symName: __ZN7testing8internal14PointerPrinter10PrintValueINSt3__112basic_stringIcNS3_11char_traitsIcEENS3_9allocatorIcEEEEEEvPT_PNS3_13basic_ostreamIcS6_EE, symObjAddr: 0x38474, symBinAddr: 0x100039A9C, symSize: 0xC0 }
  - { offset: 0x634E4, size: 0x8, addend: 0x0, symName: __ZN7testing8internal9EqMatcherIPNSt3__112basic_stringIcNS2_11char_traitsIcEENS2_9allocatorIcEEEEE4DescEv, symObjAddr: 0x3853C, symBinAddr: 0x100039B64, symSize: 0xC }
  - { offset: 0x63532, size: 0x8, addend: 0x0, symName: __ZNSt3__112__tuple_leafILm0EPKN7testing8internal11MatcherBaseIRKPNS_12basic_stringIcNS_11char_traitsIcEENS_9allocatorIcEEEEEELb0EE3getB8ne210108Ev, symObjAddr: 0x38840, symBinAddr: 0x100039E68, symSize: 0x8C }
  - { offset: 0x635D8, size: 0x8, addend: 0x0, symName: __ZNSt3__15tupleIJPKN7testing8internal11MatcherBaseIRKPNS_12basic_stringIcNS_11char_traitsIcEENS_9allocatorIcEEEEEEPKNS2_9EqMatcherISA_EEEEC1B8ne210108IJSF_SJ_ETnNS_9enable_ifIXsr4_AndINS_17integral_constantIbXeqsZT_sZT_EEENSK_17_EnableUTypesCtorIJDpT_EEEEE5valueEiE4typeELi0EEEDpOSQ_, symObjAddr: 0x388CC, symBinAddr: 0x100039EF4, symSize: 0x74 }
  - { offset: 0x63637, size: 0x8, addend: 0x0, symName: __ZNSt3__15tupleIJPKN7testing8internal11MatcherBaseIRKPNS_12basic_stringIcNS_11char_traitsIcEENS_9allocatorIcEEEEEEPKNS2_9EqMatcherISA_EEEEC2B8ne210108IJSF_SJ_ETnNS_9enable_ifIXsr4_AndINS_17integral_constantIbXeqsZT_sZT_EEENSK_17_EnableUTypesCtorIJDpT_EEEEE5valueEiE4typeELi0EEEDpOSQ_, symObjAddr: 0x38940, symBinAddr: 0x100039F68, symSize: 0xE4 }
  - { offset: 0x63696, size: 0x8, addend: 0x0, symName: __ZNSt3__112__tuple_implINS_15__tuple_indicesIJLm0ELm1EEEEJPKN7testing8internal11MatcherBaseIRKPNS_12basic_stringIcNS_11char_traitsIcEENS_9allocatorIcEEEEEEPKNS4_9EqMatcherISC_EEEEC1B8ne210108IJLm0ELm1EEJSH_SL_ETpTnmJEJEJSH_SL_EEENS1_IJXspT_EEEENS_13__tuple_typesIJDpT0_EEENS1_IJXspT1_EEEENSP_IJDpT2_EEEDpOT3_, symObjAddr: 0x38A24, symBinAddr: 0x10003A04C, symSize: 0x74 }
  - { offset: 0x63748, size: 0x8, addend: 0x0, symName: __ZNSt3__112__tuple_implINS_15__tuple_indicesIJLm0ELm1EEEEJPKN7testing8internal11MatcherBaseIRKPNS_12basic_stringIcNS_11char_traitsIcEENS_9allocatorIcEEEEEEPKNS4_9EqMatcherISC_EEEEC2B8ne210108IJLm0ELm1EEJSH_SL_ETpTnmJEJEJSH_SL_EEENS1_IJXspT_EEEENS_13__tuple_typesIJDpT0_EEENS1_IJXspT1_EEEENSP_IJDpT2_EEEDpOT3_, symObjAddr: 0x38A98, symBinAddr: 0x10003A0C0, symSize: 0x168 }
  - { offset: 0x637FA, size: 0x8, addend: 0x0, symName: __ZNSt3__112__tuple_leafILm0EPKN7testing8internal11MatcherBaseIRKPNS_12basic_stringIcNS_11char_traitsIcEENS_9allocatorIcEEEEEELb0EEC2B8ne210108ISF_TnNS_9enable_ifIXsr4_AndINS_17integral_constantIbXntu9__is_sameu14__remove_cvrefIT_ESG_EEEENS_16is_constructibleISF_JSK_EEEEE5valueEiE4typeELi0EEEOSK_, symObjAddr: 0x38C00, symBinAddr: 0x10003A228, symSize: 0x124 }
  - { offset: 0x63843, size: 0x8, addend: 0x0, symName: __ZNSt3__112__tuple_leafILm1EPKN7testing8internal9EqMatcherIPNS_12basic_stringIcNS_11char_traitsIcEENS_9allocatorIcEEEEEELb0EEC2B8ne210108ISD_TnNS_9enable_ifIXsr4_AndINS_17integral_constantIbXntu9__is_sameu14__remove_cvrefIT_ESE_EEEENS_16is_constructibleISD_JSI_EEEEE5valueEiE4typeELi0EEEOSI_, symObjAddr: 0x38D24, symBinAddr: 0x10003A34C, symSize: 0x124 }
  - { offset: 0x6388C, size: 0x8, addend: 0x0, symName: __ZN7testing8internal11MatcherBaseIRKPNSt3__112basic_stringIcNS2_11char_traitsIcEENS2_9allocatorIcEEEEED2Ev, symObjAddr: 0x38E48, symBinAddr: 0x10003A470, symSize: 0xD4 }
  - { offset: 0x638BA, size: 0x8, addend: 0x0, symName: __ZN7testing8internal11MatcherBaseIRKPNSt3__112basic_stringIcNS2_11char_traitsIcEENS2_9allocatorIcEEEEE7DestroyEv, symObjAddr: 0x38F1C, symBinAddr: 0x10003A544, symSize: 0x2E8 }
  - { offset: 0x638E0, size: 0x8, addend: 0x0, symName: __ZNK7testing8internal11MatcherBaseIRKPNSt3__112basic_stringIcNS2_11char_traitsIcEENS2_9allocatorIcEEEEE8IsSharedEv, symObjAddr: 0x39204, symBinAddr: 0x10003A82C, symSize: 0x1AC }
  - { offset: 0x63906, size: 0x8, addend: 0x0, symName: __ZNK7testing8internal11MatcherBaseIRKPNSt3__112basic_stringIcNS2_11char_traitsIcEENS2_9allocatorIcEEEEE15MatchAndExplainESB_PNS_19MatchResultListenerE, symObjAddr: 0x393B0, symBinAddr: 0x10003A9D8, symSize: 0x504 }
  - { offset: 0x6394B, size: 0x8, addend: 0x0, symName: __ZN7testing7MatcherIRKPNSt3__112basic_stringIcNS1_11char_traitsIcEENS1_9allocatorIcEEEEED2Ev, symObjAddr: 0x398E8, symBinAddr: 0x10003AF10, symSize: 0x64 }
  - { offset: 0x63981, size: 0x8, addend: 0x0, symName: __ZN7testing8internal23ElementsAreArrayMatcherIPKcEC1EOS4_, symObjAddr: 0x3994C, symBinAddr: 0x10003AF74, symSize: 0x6C }
  - { offset: 0x639B7, size: 0x8, addend: 0x0, symName: __ZN7testing8internal29PredicateFormatterFromMatcherINS0_23ElementsAreArrayMatcherIPKcEEEC1ES5_, symObjAddr: 0x399B8, symBinAddr: 0x10003AFE0, symSize: 0x70 }
  - { offset: 0x639F1, size: 0x8, addend: 0x0, symName: __ZN7testing8internal23ElementsAreArrayMatcherIPKcEC2EOS4_, symObjAddr: 0x39A28, symBinAddr: 0x10003B050, symSize: 0xD8 }
  - { offset: 0x63A27, size: 0x8, addend: 0x0, symName: __ZNSt3__16vectorIPKcNS_9allocatorIS2_EEEC1B8ne210108ERKS5_, symObjAddr: 0x39B00, symBinAddr: 0x10003B128, symSize: 0x6C }
  - { offset: 0x63A60, size: 0x8, addend: 0x0, symName: __ZNSt3__16vectorIPKcNS_9allocatorIS2_EEEC2B8ne210108ERKS5_, symObjAddr: 0x39B6C, symBinAddr: 0x10003B194, symSize: 0x270 }
  - { offset: 0x63AA4, size: 0x8, addend: 0x0, symName: __ZNSt3__116allocator_traitsINS_9allocatorIPKcEEE37select_on_container_copy_constructionB8ne210108IS4_TnNS_9enable_ifIXnt45__has_select_on_container_copy_construction_vIKT_EEiE4typeELi0EEES4_RKS4_, symObjAddr: 0x39DE4, symBinAddr: 0x10003B40C, symSize: 0x10 }
  - { offset: 0x63AD8, size: 0x8, addend: 0x0, symName: __ZNSt3__16vectorIPKcNS_9allocatorIS2_EEE16__init_with_sizeB8ne210108IPS2_S7_EEvT_T0_m, symObjAddr: 0x39DF4, symBinAddr: 0x10003B41C, symSize: 0x370 }
  - { offset: 0x63B54, size: 0x8, addend: 0x0, symName: __ZNKSt3__16vectorIPKcNS_9allocatorIS2_EEE4sizeB8ne210108Ev, symObjAddr: 0x3A164, symBinAddr: 0x10003B78C, symSize: 0xE0 }
  - { offset: 0x63B7A, size: 0x8, addend: 0x0, symName: __ZNSt3__16vectorIPKcNS_9allocatorIS2_EEE16__destroy_vectorC1B8ne210108ERS5_, symObjAddr: 0x3A2C0, symBinAddr: 0x10003B8E8, symSize: 0x6C }
  - { offset: 0x63BB2, size: 0x8, addend: 0x0, symName: __ZNSt3__16vectorIPKcNS_9allocatorIS2_EEE11__vallocateB8ne210108Em, symObjAddr: 0x3A32C, symBinAddr: 0x10003B954, symSize: 0x47C }
  - { offset: 0x63BFC, size: 0x8, addend: 0x0, symName: __ZNSt3__16vectorIPKcNS_9allocatorIS2_EEE18__construct_at_endIPS2_S7_EEvT_T0_m, symObjAddr: 0x3A7A8, symBinAddr: 0x10003BDD0, symSize: 0x3D4 }
  - { offset: 0x63C78, size: 0x8, addend: 0x0, symName: __ZNSt3__128__exception_guard_exceptionsINS_6vectorIPKcNS_9allocatorIS3_EEE16__destroy_vectorEE10__completeB8ne210108Ev, symObjAddr: 0x3AB7C, symBinAddr: 0x10003C1A4, symSize: 0xC4 }
  - { offset: 0x63C9E, size: 0x8, addend: 0x0, symName: __ZNSt3__128__exception_guard_exceptionsINS_6vectorIPKcNS_9allocatorIS3_EEE16__destroy_vectorEED1B8ne210108Ev, symObjAddr: 0x3AC40, symBinAddr: 0x10003C268, symSize: 0x64 }
  - { offset: 0x63CCC, size: 0x8, addend: 0x0, symName: __ZNSt3__128__exception_guard_exceptionsINS_6vectorIPKcNS_9allocatorIS3_EEE16__destroy_vectorEEC1B8ne210108ES7_, symObjAddr: 0x3ACA4, symBinAddr: 0x10003C2CC, symSize: 0x6C }
  - { offset: 0x63D04, size: 0x8, addend: 0x0, symName: __ZNSt3__128__exception_guard_exceptionsINS_6vectorIPKcNS_9allocatorIS3_EEE16__destroy_vectorEEC2B8ne210108ES7_, symObjAddr: 0x3AD10, symBinAddr: 0x10003C338, symSize: 0xE0 }
  - { offset: 0x63D3C, size: 0x8, addend: 0x0, symName: __ZNSt3__16vectorIPKcNS_9allocatorIS2_EEE16__destroy_vectorC2B8ne210108ERS5_, symObjAddr: 0x3ADF0, symBinAddr: 0x10003C418, symSize: 0xE8 }
  - { offset: 0x63D74, size: 0x8, addend: 0x0, symName: __ZNKSt3__16vectorIPKcNS_9allocatorIS2_EEE8max_sizeB8ne210108Ev, symObjAddr: 0x3AED8, symBinAddr: 0x10003C500, symSize: 0x2FC }
  - { offset: 0x63D9B, size: 0x8, addend: 0x0, symName: __ZNSt3__16vectorIPKcNS_9allocatorIS2_EEE20__throw_length_errorB8ne210108Ev, symObjAddr: 0x3B1DC, symBinAddr: 0x10003C804, symSize: 0x34 }
  - { offset: 0x63DAF, size: 0x8, addend: 0x0, symName: __ZNKSt3__16vectorIPKcNS_9allocatorIS2_EEE14__annotate_newB8ne210108Em, symObjAddr: 0x3B258, symBinAddr: 0x10003C880, symSize: 0x1F0 }
  - { offset: 0x63DE4, size: 0x8, addend: 0x0, symName: __ZNSt3__116allocator_traitsINS_9allocatorIPKcEEE8max_sizeB8ne210108IS4_TnNS_9enable_ifIXnt16__has_max_size_vIKT_EEiE4typeELi0EEEmRKS4_, symObjAddr: 0x3B450, symBinAddr: 0x10003CA78, symSize: 0x54 }
  - { offset: 0x63E14, size: 0x8, addend: 0x0, symName: __ZNSt3__19allocatorIPKcE8allocateB8ne210108Em, symObjAddr: 0x3B4A4, symBinAddr: 0x10003CACC, symSize: 0xB4 }
  - { offset: 0x63E48, size: 0x8, addend: 0x0, symName: __ZNKSt3__16vectorIPKcNS_9allocatorIS2_EEE31__annotate_contiguous_containerB8ne210108EPKvS7_, symObjAddr: 0x3B610, symBinAddr: 0x10003CC38, symSize: 0x144 }
  - { offset: 0x63E8C, size: 0x8, addend: 0x0, symName: __ZNKSt3__16vectorIPKcNS_9allocatorIS2_EEE4dataB8ne210108Ev, symObjAddr: 0x3B754, symBinAddr: 0x10003CD7C, symSize: 0xA0 }
  - { offset: 0x63EB2, size: 0x8, addend: 0x0, symName: __ZNKSt3__16vectorIPKcNS_9allocatorIS2_EEE8capacityB8ne210108Ev, symObjAddr: 0x3B7F4, symBinAddr: 0x10003CE1C, symSize: 0x120 }
  - { offset: 0x63EF4, size: 0x8, addend: 0x0, symName: __ZNSt3__16vectorIPKcNS_9allocatorIS2_EEE21_ConstructTransactionC1B8ne210108ERS5_m, symObjAddr: 0x3B984, symBinAddr: 0x10003CFAC, symSize: 0x74 }
  - { offset: 0x63F3C, size: 0x8, addend: 0x0, symName: __ZNSt3__16vectorIPKcNS_9allocatorIS2_EEE21_ConstructTransactionD1B8ne210108Ev, symObjAddr: 0x3BC78, symBinAddr: 0x10003D2A0, symSize: 0x64 }
  - { offset: 0x63F6A, size: 0x8, addend: 0x0, symName: __ZNSt3__16vectorIPKcNS_9allocatorIS2_EEE21_ConstructTransactionC2B8ne210108ERS5_m, symObjAddr: 0x3BCDC, symBinAddr: 0x10003D304, symSize: 0x34C }
  - { offset: 0x63FB2, size: 0x8, addend: 0x0, symName: __ZNKSt3__16vectorIPKcNS_9allocatorIS2_EEE19__annotate_increaseB8ne210108Em, symObjAddr: 0x3C028, symBinAddr: 0x10003D650, symSize: 0x2B0 }
  - { offset: 0x64004, size: 0x8, addend: 0x0, symName: __ZNSt3__119__unwrap_range_implIPPKcS3_E8__unwrapB8ne210108ES3_S3_, symObjAddr: 0x3C3E0, symBinAddr: 0x10003DA08, symSize: 0x248 }
  - { offset: 0x6403D, size: 0x8, addend: 0x0, symName: __ZNSt3__14pairIPPKcS3_EC1B8ne210108IS3_S3_TnNS_9enable_ifIXclsr25__check_pair_constructionIS3_S3_EE23__is_pair_constructibleIT_T0_EEEiE4typeELi0EEEOS7_OS8_, symObjAddr: 0x3C628, symBinAddr: 0x10003DC50, symSize: 0x74 }
  - { offset: 0x6409C, size: 0x8, addend: 0x0, symName: __ZNSt3__14pairIPPKcS3_EC2B8ne210108IS3_S3_TnNS_9enable_ifIXclsr25__check_pair_constructionIS3_S3_EE23__is_pair_constructibleIT_T0_EEEiE4typeELi0EEEOS7_OS8_, symObjAddr: 0x3C69C, symBinAddr: 0x10003DCC4, symSize: 0x1D8 }
  - { offset: 0x64106, size: 0x8, addend: 0x0, symName: __ZNKSt3__111__copy_implclB8ne210108IPKcS3_TnNS_9enable_ifIXsr38__can_lower_copy_assignment_to_memmoveIT_T0_EE5valueEiE4typeELi0EEENS_4pairIPS5_PS6_EESA_SA_SB_, symObjAddr: 0x3CEA0, symBinAddr: 0x10003E4C8, symSize: 0x6C }
  - { offset: 0x6416F, size: 0x8, addend: 0x0, symName: __ZNSt3__14pairIPPKcS3_EC1B8ne210108IRS3_S3_TnNS_9enable_ifIXclsr25__check_pair_constructionIS3_S3_EE23__is_pair_constructibleIT_T0_EEEiE4typeELi0EEEOS8_OS9_, symObjAddr: 0x3D76C, symBinAddr: 0x10003ED94, symSize: 0x74 }
  - { offset: 0x641CE, size: 0x8, addend: 0x0, symName: __ZNSt3__14pairIPPKcS3_EC2B8ne210108IRS3_S3_TnNS_9enable_ifIXclsr25__check_pair_constructionIS3_S3_EE23__is_pair_constructibleIT_T0_EEEiE4typeELi0EEEOS8_OS9_, symObjAddr: 0x3D7E0, symBinAddr: 0x10003EE08, symSize: 0x1D8 }
  - { offset: 0x6422D, size: 0x8, addend: 0x0, symName: __ZNSt3__119__unwrap_range_implIPPKcS3_E8__rewrapB8ne210108ES3_S3_, symObjAddr: 0x3D9C0, symBinAddr: 0x10003EFE8, symSize: 0x2C }
  - { offset: 0x6425E, size: 0x8, addend: 0x0, symName: __ZNSt3__118__unwrap_iter_implIPPKcLb1EE8__unwrapB8ne210108ES3_, symObjAddr: 0x3D9F4, symBinAddr: 0x10003F01C, symSize: 0x24 }
  - { offset: 0x64281, size: 0x8, addend: 0x0, symName: __ZNSt3__118__unwrap_iter_implIPPKcLb1EE8__rewrapB8ne210108ES3_S3_, symObjAddr: 0x3DA20, symBinAddr: 0x10003F048, symSize: 0x104 }
  - { offset: 0x642B2, size: 0x8, addend: 0x0, symName: __ZNSt3__16vectorIPKcNS_9allocatorIS2_EEE21_ConstructTransactionD2B8ne210108Ev, symObjAddr: 0x3DB24, symBinAddr: 0x10003F14C, symSize: 0x31C }
  - { offset: 0x642E0, size: 0x8, addend: 0x0, symName: __ZNKSt3__16vectorIPKcNS_9allocatorIS2_EEE17__annotate_shrinkB8ne210108Em, symObjAddr: 0x3DE40, symBinAddr: 0x10003F468, symSize: 0x1F0 }
  - { offset: 0x64315, size: 0x8, addend: 0x0, symName: __ZNSt3__128__exception_guard_exceptionsINS_6vectorIPKcNS_9allocatorIS3_EEE16__destroy_vectorEED2B8ne210108Ev, symObjAddr: 0x3E030, symBinAddr: 0x10003F658, symSize: 0x158 }
  - { offset: 0x64343, size: 0x8, addend: 0x0, symName: __ZNSt3__16vectorIPKcNS_9allocatorIS2_EEE16__destroy_vectorclB8ne210108Ev, symObjAddr: 0x3E188, symBinAddr: 0x10003F7B0, symSize: 0x3A0 }
  - { offset: 0x64369, size: 0x8, addend: 0x0, symName: __ZNSt3__16vectorIPKcNS_9allocatorIS2_EEE5clearB8ne210108Ev, symObjAddr: 0x3E528, symBinAddr: 0x10003FB50, symSize: 0xB8 }
  - { offset: 0x6439E, size: 0x8, addend: 0x0, symName: __ZNKSt3__16vectorIPKcNS_9allocatorIS2_EEE17__annotate_deleteB8ne210108Ev, symObjAddr: 0x3E5E0, symBinAddr: 0x10003FC08, symSize: 0x200 }
  - { offset: 0x643C4, size: 0x8, addend: 0x0, symName: __ZNSt3__116allocator_traitsINS_9allocatorIPKcEEE10deallocateB8ne210108ERS4_PS3_m, symObjAddr: 0x3E7E8, symBinAddr: 0x10003FE10, symSize: 0x34 }
  - { offset: 0x64406, size: 0x8, addend: 0x0, symName: __ZNSt3__16vectorIPKcNS_9allocatorIS2_EEE22__base_destruct_at_endB8ne210108EPS2_, symObjAddr: 0x3E81C, symBinAddr: 0x10003FE44, symSize: 0x1C8 }
  - { offset: 0x6444A, size: 0x8, addend: 0x0, symName: __ZNSt3__116allocator_traitsINS_9allocatorIPKcEEE7destroyB8ne210108IS3_TnNS_9enable_ifIXnt15__has_destroy_vIS4_PT_EEiE4typeELi0EEEvRS4_S9_, symObjAddr: 0x3E9EC, symBinAddr: 0x100040014, symSize: 0x28 }
  - { offset: 0x64489, size: 0x8, addend: 0x0, symName: __ZNSt3__19allocatorIPKcE10deallocateB8ne210108EPS2_m, symObjAddr: 0x3EA2C, symBinAddr: 0x100040054, symSize: 0x58 }
  - { offset: 0x644CB, size: 0x8, addend: 0x0, symName: __ZN7testing8internal29PredicateFormatterFromMatcherINS0_23ElementsAreArrayMatcherIPKcEEEC2ES5_, symObjAddr: 0x3EB00, symBinAddr: 0x100040128, symSize: 0xA4 }
  - { offset: 0x64505, size: 0x8, addend: 0x0, symName: __ZNKSt16initializer_listIPKcE5beginB8ne210108Ev, symObjAddr: 0x3EC24, symBinAddr: 0x10004024C, symSize: 0x9C }
  - { offset: 0x6452B, size: 0x8, addend: 0x0, symName: __ZNKSt16initializer_listIPKcE3endB8ne210108Ev, symObjAddr: 0x3ECC0, symBinAddr: 0x1000402E8, symSize: 0x17C }
  - { offset: 0x64551, size: 0x8, addend: 0x0, symName: __ZN7testing8internal23ElementsAreArrayMatcherIPKcEC1IPKS3_EET_S8_, symObjAddr: 0x3EE3C, symBinAddr: 0x100040464, symSize: 0x74 }
  - { offset: 0x645A2, size: 0x8, addend: 0x0, symName: __ZN7testing8internal23ElementsAreArrayMatcherIPKcEC2IPKS3_EET_S8_, symObjAddr: 0x3EEB0, symBinAddr: 0x1000404D8, symSize: 0x74 }
  - { offset: 0x645F3, size: 0x8, addend: 0x0, symName: __ZNSt3__16vectorIPKcNS_9allocatorIS2_EEEC1B8ne210108IPKS2_TnNS_9enable_ifIXaasr31__has_forward_iterator_categoryIT_EE5valuesr16is_constructibleIS2_NS_15iterator_traitsISA_E9referenceEEE5valueEiE4typeELi0EEESA_SA_, symObjAddr: 0x3EF24, symBinAddr: 0x10004054C, symSize: 0x74 }
  - { offset: 0x64649, size: 0x8, addend: 0x0, symName: __ZNSt3__16vectorIPKcNS_9allocatorIS2_EEEC2B8ne210108IPKS2_TnNS_9enable_ifIXaasr31__has_forward_iterator_categoryIT_EE5valuesr16is_constructibleIS2_NS_15iterator_traitsISA_E9referenceEEE5valueEiE4typeELi0EEESA_SA_, symObjAddr: 0x3EF98, symBinAddr: 0x1000405C0, symSize: 0x140 }
  - { offset: 0x646BB, size: 0x8, addend: 0x0, symName: __ZNSt3__19allocatorIPKcEC1B8ne210108Ev, symObjAddr: 0x3F0D8, symBinAddr: 0x100040700, symSize: 0x50 }
  - { offset: 0x646E5, size: 0x8, addend: 0x0, symName: __ZNSt3__16vectorIPKcNS_9allocatorIS2_EEE16__init_with_sizeB8ne210108IPKS2_S8_EEvT_T0_m, symObjAddr: 0x3F15C, symBinAddr: 0x100040784, symSize: 0x370 }
  - { offset: 0x64761, size: 0x8, addend: 0x0, symName: __ZNSt3__19allocatorIPKcEC2B8ne210108Ev, symObjAddr: 0x3F4CC, symBinAddr: 0x100040AF4, symSize: 0x70 }
  - { offset: 0x6478B, size: 0x8, addend: 0x0, symName: __ZNSt3__116__non_trivial_ifILb1ENS_9allocatorIPKcEEEC2B8ne210108Ev, symObjAddr: 0x3F53C, symBinAddr: 0x100040B64, symSize: 0x48 }
  - { offset: 0x647B5, size: 0x8, addend: 0x0, symName: __ZNSt3__16vectorIPKcNS_9allocatorIS2_EEE18__construct_at_endIPKS2_S8_EEvT_T0_m, symObjAddr: 0x3F5B4, symBinAddr: 0x100040BDC, symSize: 0x3D4 }
  - { offset: 0x6484E, size: 0x8, addend: 0x0, symName: __ZNSt3__119__unwrap_range_implIPKPKcS4_E8__unwrapB8ne210108ES4_S4_, symObjAddr: 0x4017C, symBinAddr: 0x1000417A4, symSize: 0x248 }
  - { offset: 0x64887, size: 0x8, addend: 0x0, symName: __ZNSt3__14pairIPKPKcS4_EC1B8ne210108IS4_S4_TnNS_9enable_ifIXclsr25__check_pair_constructionIS4_S4_EE23__is_pair_constructibleIT_T0_EEEiE4typeELi0EEEOS8_OS9_, symObjAddr: 0x403F0, symBinAddr: 0x100041A18, symSize: 0x74 }
  - { offset: 0x648E6, size: 0x8, addend: 0x0, symName: __ZNSt3__118__unwrap_iter_implIPKPKcLb1EE8__unwrapB8ne210108ES4_, symObjAddr: 0x4046C, symBinAddr: 0x100041A94, symSize: 0x24 }
  - { offset: 0x64909, size: 0x8, addend: 0x0, symName: __ZNSt3__14pairIPKPKcS4_EC2B8ne210108IS4_S4_TnNS_9enable_ifIXclsr25__check_pair_constructionIS4_S4_EE23__is_pair_constructibleIT_T0_EEEiE4typeELi0EEEOS8_OS9_, symObjAddr: 0x404AC, symBinAddr: 0x100041AD4, symSize: 0x1D8 }
  - { offset: 0x64968, size: 0x8, addend: 0x0, symName: __ZNSt3__129_AllocatorDestroyRangeReverseINS_9allocatorIPKcEEPS3_EC1B8ne210108ERS4_RS5_S8_, symObjAddr: 0x40890, symBinAddr: 0x100041EB8, symSize: 0x7C }
  - { offset: 0x649BF, size: 0x8, addend: 0x0, symName: __ZNSt3__116allocator_traitsINS_9allocatorIPKcEEE9constructB8ne210108IS3_JRKS3_ETnNS_9enable_ifIXnt17__has_construct_vIS4_PT_DpT0_EEiE4typeELi0EEEvRS4_SB_DpOSC_, symObjAddr: 0x40914, symBinAddr: 0x100041F3C, symSize: 0x70 }
  - { offset: 0x64A18, size: 0x8, addend: 0x0, symName: __ZNSt3__128__exception_guard_exceptionsINS_29_AllocatorDestroyRangeReverseINS_9allocatorIPKcEEPS4_EEE10__completeB8ne210108Ev, symObjAddr: 0x40984, symBinAddr: 0x100041FAC, symSize: 0xC4 }
  - { offset: 0x64A3E, size: 0x8, addend: 0x0, symName: __ZNSt3__128__exception_guard_exceptionsINS_29_AllocatorDestroyRangeReverseINS_9allocatorIPKcEEPS4_EEED1B8ne210108Ev, symObjAddr: 0x40A48, symBinAddr: 0x100042070, symSize: 0x64 }
  - { offset: 0x64A6C, size: 0x8, addend: 0x0, symName: __ZNSt3__128__exception_guard_exceptionsINS_29_AllocatorDestroyRangeReverseINS_9allocatorIPKcEEPS4_EEEC1B8ne210108ES7_, symObjAddr: 0x40AAC, symBinAddr: 0x1000420D4, symSize: 0x70 }
  - { offset: 0x64AA5, size: 0x8, addend: 0x0, symName: __ZNSt3__128__exception_guard_exceptionsINS_29_AllocatorDestroyRangeReverseINS_9allocatorIPKcEEPS4_EEEC2B8ne210108ES7_, symObjAddr: 0x40B1C, symBinAddr: 0x100042144, symSize: 0xE4 }
  - { offset: 0x64ADE, size: 0x8, addend: 0x0, symName: __ZNSt3__129_AllocatorDestroyRangeReverseINS_9allocatorIPKcEEPS3_EC2B8ne210108ERS4_RS5_S8_, symObjAddr: 0x40C00, symBinAddr: 0x100042228, symSize: 0x1C4 }
  - { offset: 0x64B35, size: 0x8, addend: 0x0, symName: __ZNSt3__128__exception_guard_exceptionsINS_29_AllocatorDestroyRangeReverseINS_9allocatorIPKcEEPS4_EEED2B8ne210108Ev, symObjAddr: 0x40F58, symBinAddr: 0x100042580, symSize: 0x158 }
  - { offset: 0x64B63, size: 0x8, addend: 0x0, symName: __ZNKSt3__129_AllocatorDestroyRangeReverseINS_9allocatorIPKcEEPS3_EclB8ne210108Ev, symObjAddr: 0x410B0, symBinAddr: 0x1000426D8, symSize: 0x33C }
  - { offset: 0x64B8A, size: 0x8, addend: 0x0, symName: __ZNSt3__116reverse_iteratorIPPKcEC1B8ne210108ES3_, symObjAddr: 0x41638, symBinAddr: 0x100042C60, symSize: 0x6C }
  - { offset: 0x64BC2, size: 0x8, addend: 0x0, symName: __ZNKSt3__116reverse_iteratorIPPKcEdeB8ne210108Ev, symObjAddr: 0x4173C, symBinAddr: 0x100042D64, symSize: 0x150 }
  - { offset: 0x64BF6, size: 0x8, addend: 0x0, symName: __ZNSt3__116reverse_iteratorIPPKcEppB8ne210108Ev, symObjAddr: 0x4188C, symBinAddr: 0x100042EB4, symSize: 0x180 }
  - { offset: 0x64C1C, size: 0x8, addend: 0x0, symName: __ZNKSt3__116reverse_iteratorIPPKcE4baseB8ne210108Ev, symObjAddr: 0x41A0C, symBinAddr: 0x100043034, symSize: 0xA0 }
  - { offset: 0x64C42, size: 0x8, addend: 0x0, symName: __ZNSt3__116reverse_iteratorIPPKcEC2B8ne210108ES3_, symObjAddr: 0x41AAC, symBinAddr: 0x1000430D4, symSize: 0xF4 }
  - { offset: 0x64C80, size: 0x8, addend: 0x0, symName: __ZN7testing8internal15MatcherCastImplIRKNSt3__16vectorINS2_12basic_stringIcNS2_11char_traitsIcEENS2_9allocatorIcEEEENS7_IS9_EEEENS0_23ElementsAreArrayMatcherIPKcEEE4CastERKSH_, symObjAddr: 0x41C88, symBinAddr: 0x1000432B0, symSize: 0x68 }
  - { offset: 0x64CA4, size: 0x8, addend: 0x0, symName: __ZN7testing8internal15MatcherCastImplIRKNSt3__16vectorINS2_12basic_stringIcNS2_11char_traitsIcEENS2_9allocatorIcEEEENS7_IS9_EEEENS0_23ElementsAreArrayMatcherIPKcEEE8CastImplILb0EEENS_7MatcherISD_EERKSH_NS2_17integral_constantIbLb1EEENSO_IbXT_EEE, symObjAddr: 0x41CF8, symBinAddr: 0x100043320, symSize: 0x58 }
  - { offset: 0x64CEE, size: 0x8, addend: 0x0, symName: __ZNK7testing8internal23ElementsAreArrayMatcherIPKcEcvNS_7MatcherIT_EEIRKNSt3__16vectorINS9_12basic_stringIcNS9_11char_traitsIcEENS9_9allocatorIcEEEENSE_ISG_EEEEEEv, symObjAddr: 0x41D50, symBinAddr: 0x100043378, symSize: 0x1CC }
  - { offset: 0x64D1D, size: 0x8, addend: 0x0, symName: __ZNKSt3__16vectorIPKcNS_9allocatorIS2_EEE5beginB8ne210108Ev, symObjAddr: 0x41F1C, symBinAddr: 0x100043544, symSize: 0xB4 }
  - { offset: 0x64D43, size: 0x8, addend: 0x0, symName: __ZNKSt3__16vectorIPKcNS_9allocatorIS2_EEE3endB8ne210108Ev, symObjAddr: 0x41FD0, symBinAddr: 0x1000435F8, symSize: 0xB8 }
  - { offset: 0x64D6F, size: 0x8, addend: 0x0, symName: __ZN7testing8internal22ElementsAreMatcherImplIRKNSt3__16vectorINS2_12basic_stringIcNS2_11char_traitsIcEENS2_9allocatorIcEEEENS7_IS9_EEEEEC1INS2_11__wrap_iterIPKPKcEEEET_SM_, symObjAddr: 0x42088, symBinAddr: 0x1000436B0, symSize: 0x74 }
  - { offset: 0x64DC0, size: 0x8, addend: 0x0, symName: __ZNKSt3__16vectorIPKcNS_9allocatorIS2_EEE11__make_iterB8ne210108EPKS2_, symObjAddr: 0x420FC, symBinAddr: 0x100043724, symSize: 0x1E8 }
  - { offset: 0x64DF7, size: 0x8, addend: 0x0, symName: __ZNSt3__16vectorIPKcNS_9allocatorIS2_EEE26__add_alignment_assumptionB8ne210108IPS2_TnNS_9enable_ifIXsr10is_pointerIT_EE5valueEiE4typeELi0EEES7_S9_, symObjAddr: 0x422EC, symBinAddr: 0x100043914, symSize: 0x50 }
  - { offset: 0x64E2B, size: 0x8, addend: 0x0, symName: __ZNSt3__111__wrap_iterIPKPKcEC1B8ne210108ES4_, symObjAddr: 0x4233C, symBinAddr: 0x100043964, symSize: 0x6C }
  - { offset: 0x64E63, size: 0x8, addend: 0x0, symName: __ZNSt3__111__wrap_iterIPKPKcEC2B8ne210108ES4_, symObjAddr: 0x423A8, symBinAddr: 0x1000439D0, symSize: 0xB8 }
  - { offset: 0x64E9B, size: 0x8, addend: 0x0, symName: __ZN7testing8internal22ElementsAreMatcherImplIRKNSt3__16vectorINS2_12basic_stringIcNS2_11char_traitsIcEENS2_9allocatorIcEEEENS7_IS9_EEEEEC2INS2_11__wrap_iterIPKPKcEEEET_SM_, symObjAddr: 0x42460, symBinAddr: 0x100043A88, symSize: 0x540 }
  - { offset: 0x64EF5, size: 0x8, addend: 0x0, symName: __ZNSt3__16vectorIN7testing7MatcherIRKNS_12basic_stringIcNS_11char_traitsIcEENS_9allocatorIcEEEEEENS6_ISB_EEEC1B8ne210108Ev, symObjAddr: 0x429A0, symBinAddr: 0x100043FC8, symSize: 0x64 }
  - { offset: 0x64F1F, size: 0x8, addend: 0x0, symName: __ZNSt3__16vectorIN7testing7MatcherIRKNS_12basic_stringIcNS_11char_traitsIcEENS_9allocatorIcEEEEEENS6_ISB_EEE9push_backB8ne210108EOSB_, symObjAddr: 0x42A9C, symBinAddr: 0x1000440C4, symSize: 0x9C }
  - { offset: 0x64F54, size: 0x8, addend: 0x0, symName: __ZNSt3__111__wrap_iterIPKPKcEppB8ne210108Ei, symObjAddr: 0x42BA8, symBinAddr: 0x1000441D0, symSize: 0xA8 }
  - { offset: 0x64F93, size: 0x8, addend: 0x0, symName: __ZNKSt3__111__wrap_iterIPKPKcEdeB8ne210108Ev, symObjAddr: 0x42C50, symBinAddr: 0x100044278, symSize: 0xD4 }
  - { offset: 0x64FB9, size: 0x8, addend: 0x0, symName: __ZN7testing7MatcherIRKNSt3__112basic_stringIcNS1_11char_traitsIcEENS1_9allocatorIcEEEEED1Ev, symObjAddr: 0x42D24, symBinAddr: 0x10004434C, symSize: 0x64 }
  - { offset: 0x64FEA, size: 0x8, addend: 0x0, symName: __ZNSt3__16vectorIN7testing7MatcherIRKNS_12basic_stringIcNS_11char_traitsIcEENS_9allocatorIcEEEEEENS6_ISB_EEED1B8ne210108Ev, symObjAddr: 0x42D88, symBinAddr: 0x1000443B0, symSize: 0x64 }
  - { offset: 0x65018, size: 0x8, addend: 0x0, symName: __ZN7testing8internal22ElementsAreMatcherImplIRKNSt3__16vectorINS2_12basic_stringIcNS2_11char_traitsIcEENS2_9allocatorIcEEEENS7_IS9_EEEEED1Ev, symObjAddr: 0x42DEC, symBinAddr: 0x100044414, symSize: 0x64 }
  - { offset: 0x65049, size: 0x8, addend: 0x0, symName: __ZN7testing8internal22ElementsAreMatcherImplIRKNSt3__16vectorINS2_12basic_stringIcNS2_11char_traitsIcEENS2_9allocatorIcEEEENS7_IS9_EEEEED0Ev, symObjAddr: 0x42E50, symBinAddr: 0x100044478, symSize: 0x68 }
  - { offset: 0x65076, size: 0x8, addend: 0x0, symName: __ZNK7testing8internal22ElementsAreMatcherImplIRKNSt3__16vectorINS2_12basic_stringIcNS2_11char_traitsIcEENS2_9allocatorIcEEEENS7_IS9_EEEEE10DescribeToEPNS2_13basic_ostreamIcS6_EE, symObjAddr: 0x42EB8, symBinAddr: 0x1000444E0, symSize: 0x710 }
  - { offset: 0x650C3, size: 0x8, addend: 0x0, symName: __ZNK7testing8internal22ElementsAreMatcherImplIRKNSt3__16vectorINS2_12basic_stringIcNS2_11char_traitsIcEENS2_9allocatorIcEEEENS7_IS9_EEEEE18DescribeNegationToEPNS2_13basic_ostreamIcS6_EE, symObjAddr: 0x435C8, symBinAddr: 0x100044BF0, symSize: 0x5F4 }
  - { offset: 0x65110, size: 0x8, addend: 0x0, symName: __ZNK7testing8internal22ElementsAreMatcherImplIRKNSt3__16vectorINS2_12basic_stringIcNS2_11char_traitsIcEENS2_9allocatorIcEEEENS7_IS9_EEEEE15MatchAndExplainESD_PNS_19MatchResultListenerE, symObjAddr: 0x43BBC, symBinAddr: 0x1000451E4, symSize: 0x1538 }
  - { offset: 0x6527F, size: 0x8, addend: 0x0, symName: __ZNSt3__16vectorIN7testing7MatcherIRKNS_12basic_stringIcNS_11char_traitsIcEENS_9allocatorIcEEEEEENS6_ISB_EEEC2B8ne210108Ev, symObjAddr: 0x450F4, symBinAddr: 0x10004671C, symSize: 0x110 }
  - { offset: 0x652A9, size: 0x8, addend: 0x0, symName: __ZNSt3__19allocatorIN7testing7MatcherIRKNS_12basic_stringIcNS_11char_traitsIcEENS0_IcEEEEEEEC1B8ne210108Ev, symObjAddr: 0x45204, symBinAddr: 0x10004682C, symSize: 0x50 }
  - { offset: 0x652D3, size: 0x8, addend: 0x0, symName: __ZNSt3__19allocatorIN7testing7MatcherIRKNS_12basic_stringIcNS_11char_traitsIcEENS0_IcEEEEEEEC2B8ne210108Ev, symObjAddr: 0x45254, symBinAddr: 0x10004687C, symSize: 0x70 }
  - { offset: 0x652FD, size: 0x8, addend: 0x0, symName: __ZNSt3__116__non_trivial_ifILb1ENS_9allocatorIN7testing7MatcherIRKNS_12basic_stringIcNS_11char_traitsIcEENS1_IcEEEEEEEEEC2B8ne210108Ev, symObjAddr: 0x452C4, symBinAddr: 0x1000468EC, symSize: 0x48 }
  - { offset: 0x65327, size: 0x8, addend: 0x0, symName: __ZNKSt3__111__wrap_iterIPKPKcE4baseB8ne210108Ev, symObjAddr: 0x4530C, symBinAddr: 0x100046934, symSize: 0x9C }
  - { offset: 0x65353, size: 0x8, addend: 0x0, symName: __ZNSt3__16vectorIN7testing7MatcherIRKNS_12basic_stringIcNS_11char_traitsIcEENS_9allocatorIcEEEEEENS6_ISB_EEE12emplace_backIJSB_EEERSB_DpOT_, symObjAddr: 0x453A8, symBinAddr: 0x1000469D0, symSize: 0x340 }
  - { offset: 0x653A2, size: 0x8, addend: 0x0, symName: __ZNSt3__16vectorIN7testing7MatcherIRKNS_12basic_stringIcNS_11char_traitsIcEENS_9allocatorIcEEEEEENS6_ISB_EEE30__emplace_back_assume_capacityB8ne210108IJSB_EEEvDpOT_, symObjAddr: 0x456E8, symBinAddr: 0x100046D10, symSize: 0x440 }
  - { offset: 0x653F7, size: 0x8, addend: 0x0, symName: __ZNSt3__16vectorIN7testing7MatcherIRKNS_12basic_stringIcNS_11char_traitsIcEENS_9allocatorIcEEEEEENS6_ISB_EEE24__emplace_back_slow_pathIJSB_EEEPSB_DpOT_, symObjAddr: 0x45B28, symBinAddr: 0x100047150, symSize: 0x4BC }
  - { offset: 0x65468, size: 0x8, addend: 0x0, symName: __ZNSt3__16vectorIN7testing7MatcherIRKNS_12basic_stringIcNS_11char_traitsIcEENS_9allocatorIcEEEEEENS6_ISB_EEE21_ConstructTransactionC1B8ne210108ERSD_m, symObjAddr: 0x45FE4, symBinAddr: 0x10004760C, symSize: 0x74 }
  - { offset: 0x654B0, size: 0x8, addend: 0x0, symName: __ZNSt3__116allocator_traitsINS_9allocatorIN7testing7MatcherIRKNS_12basic_stringIcNS_11char_traitsIcEENS1_IcEEEEEEEEE9constructB8ne210108ISB_JSB_ETnNS_9enable_ifIXnt17__has_construct_vISC_PT_DpT0_EEiE4typeELi0EEEvRSC_SH_DpOSI_, symObjAddr: 0x46060, symBinAddr: 0x100047688, symSize: 0x70 }
  - { offset: 0x65509, size: 0x8, addend: 0x0, symName: __ZNSt3__16vectorIN7testing7MatcherIRKNS_12basic_stringIcNS_11char_traitsIcEENS_9allocatorIcEEEEEENS6_ISB_EEE21_ConstructTransactionD1B8ne210108Ev, symObjAddr: 0x460EC, symBinAddr: 0x100047714, symSize: 0x64 }
  - { offset: 0x65537, size: 0x8, addend: 0x0, symName: __ZNSt3__16vectorIN7testing7MatcherIRKNS_12basic_stringIcNS_11char_traitsIcEENS_9allocatorIcEEEEEENS6_ISB_EEE21_ConstructTransactionC2B8ne210108ERSD_m, symObjAddr: 0x46150, symBinAddr: 0x100047778, symSize: 0x354 }
  - { offset: 0x6557F, size: 0x8, addend: 0x0, symName: __ZNKSt3__16vectorIN7testing7MatcherIRKNS_12basic_stringIcNS_11char_traitsIcEENS_9allocatorIcEEEEEENS6_ISB_EEE19__annotate_increaseB8ne210108Em, symObjAddr: 0x464A4, symBinAddr: 0x100047ACC, symSize: 0x2C8 }
  - { offset: 0x655B4, size: 0x8, addend: 0x0, symName: __ZNKSt3__16vectorIN7testing7MatcherIRKNS_12basic_stringIcNS_11char_traitsIcEENS_9allocatorIcEEEEEENS6_ISB_EEE31__annotate_contiguous_containerB8ne210108EPKvSF_, symObjAddr: 0x4676C, symBinAddr: 0x100047D94, symSize: 0x14C }
  - { offset: 0x655F8, size: 0x8, addend: 0x0, symName: __ZNKSt3__16vectorIN7testing7MatcherIRKNS_12basic_stringIcNS_11char_traitsIcEENS_9allocatorIcEEEEEENS6_ISB_EEE4dataB8ne210108Ev, symObjAddr: 0x468B8, symBinAddr: 0x100047EE0, symSize: 0xA0 }
  - { offset: 0x6561E, size: 0x8, addend: 0x0, symName: __ZNKSt3__16vectorIN7testing7MatcherIRKNS_12basic_stringIcNS_11char_traitsIcEENS_9allocatorIcEEEEEENS6_ISB_EEE4sizeB8ne210108Ev, symObjAddr: 0x46958, symBinAddr: 0x100047F80, symSize: 0xE0 }
  - { offset: 0x65644, size: 0x8, addend: 0x0, symName: __ZNKSt3__16vectorIN7testing7MatcherIRKNS_12basic_stringIcNS_11char_traitsIcEENS_9allocatorIcEEEEEENS6_ISB_EEE8capacityB8ne210108Ev, symObjAddr: 0x46A8C, symBinAddr: 0x1000480B4, symSize: 0x120 }
  - { offset: 0x6566A, size: 0x8, addend: 0x0, symName: __ZN7testing7MatcherIRKNSt3__112basic_stringIcNS1_11char_traitsIcEENS1_9allocatorIcEEEEEC1EOSA_, symObjAddr: 0x46CC8, symBinAddr: 0x1000482F0, symSize: 0x6C }
  - { offset: 0x656A0, size: 0x8, addend: 0x0, symName: __ZN7testing7MatcherIRKNSt3__112basic_stringIcNS1_11char_traitsIcEENS1_9allocatorIcEEEEEC2EOSA_, symObjAddr: 0x46D34, symBinAddr: 0x10004835C, symSize: 0x15C }
  - { offset: 0x656D6, size: 0x8, addend: 0x0, symName: __ZN7testing8internal11MatcherBaseIRKNSt3__112basic_stringIcNS2_11char_traitsIcEENS2_9allocatorIcEEEEEC2EOSB_, symObjAddr: 0x46E90, symBinAddr: 0x1000484B8, symSize: 0x218 }
  - { offset: 0x6570F, size: 0x8, addend: 0x0, symName: __ZN7testing7MatcherIRKNSt3__112basic_stringIcNS1_11char_traitsIcEENS1_9allocatorIcEEEEED0Ev, symObjAddr: 0x470A8, symBinAddr: 0x1000486D0, symSize: 0x68 }
  - { offset: 0x6573C, size: 0x8, addend: 0x0, symName: __ZNK7testing8internal11MatcherBaseIRKNSt3__112basic_stringIcNS2_11char_traitsIcEENS2_9allocatorIcEEEEE10DescribeToEPNS2_13basic_ostreamIcS5_EE, symObjAddr: 0x47110, symBinAddr: 0x100048738, symSize: 0x4CC }
  - { offset: 0x65772, size: 0x8, addend: 0x0, symName: __ZNK7testing8internal11MatcherBaseIRKNSt3__112basic_stringIcNS2_11char_traitsIcEENS2_9allocatorIcEEEEE18DescribeNegationToEPNS2_13basic_ostreamIcS5_EE, symObjAddr: 0x475DC, symBinAddr: 0x100048C04, symSize: 0x4CC }
  - { offset: 0x657A8, size: 0x8, addend: 0x0, symName: __ZN7testing8internal11MatcherBaseIRKNSt3__112basic_stringIcNS2_11char_traitsIcEENS2_9allocatorIcEEEEED1Ev, symObjAddr: 0x47AA8, symBinAddr: 0x1000490D0, symSize: 0x64 }
  - { offset: 0x657D6, size: 0x8, addend: 0x0, symName: __ZN7testing8internal11MatcherBaseIRKNSt3__112basic_stringIcNS2_11char_traitsIcEENS2_9allocatorIcEEEEED0Ev, symObjAddr: 0x47B0C, symBinAddr: 0x100049134, symSize: 0x68 }
  - { offset: 0x65800, size: 0x8, addend: 0x0, symName: __ZN7testing8internal11MatcherBaseIRKNSt3__112basic_stringIcNS2_11char_traitsIcEENS2_9allocatorIcEEEEED2Ev, symObjAddr: 0x47B74, symBinAddr: 0x10004919C, symSize: 0xD4 }
  - { offset: 0x6582E, size: 0x8, addend: 0x0, symName: __ZN7testing8internal11MatcherBaseIRKNSt3__112basic_stringIcNS2_11char_traitsIcEENS2_9allocatorIcEEEEE7DestroyEv, symObjAddr: 0x47C48, symBinAddr: 0x100049270, symSize: 0x2E8 }
  - { offset: 0x65854, size: 0x8, addend: 0x0, symName: __ZNK7testing8internal11MatcherBaseIRKNSt3__112basic_stringIcNS2_11char_traitsIcEENS2_9allocatorIcEEEEE8IsSharedEv, symObjAddr: 0x47F30, symBinAddr: 0x100049558, symSize: 0x1AC }
  - { offset: 0x6587A, size: 0x8, addend: 0x0, symName: __ZNSt3__16vectorIN7testing7MatcherIRKNS_12basic_stringIcNS_11char_traitsIcEENS_9allocatorIcEEEEEENS6_ISB_EEE21_ConstructTransactionD2B8ne210108Ev, symObjAddr: 0x480DC, symBinAddr: 0x100049704, symSize: 0x31C }
  - { offset: 0x658A8, size: 0x8, addend: 0x0, symName: __ZNKSt3__16vectorIN7testing7MatcherIRKNS_12basic_stringIcNS_11char_traitsIcEENS_9allocatorIcEEEEEENS6_ISB_EEE17__annotate_shrinkB8ne210108Em, symObjAddr: 0x483F8, symBinAddr: 0x100049A20, symSize: 0x200 }
  - { offset: 0x658DD, size: 0x8, addend: 0x0, symName: __ZNKSt3__16vectorIN7testing7MatcherIRKNS_12basic_stringIcNS_11char_traitsIcEENS_9allocatorIcEEEEEENS6_ISB_EEE11__recommendB8ne210108Em, symObjAddr: 0x485F8, symBinAddr: 0x100049C20, symSize: 0x374 }
  - { offset: 0x65937, size: 0x8, addend: 0x0, symName: __ZNSt3__114__split_bufferIN7testing7MatcherIRKNS_12basic_stringIcNS_11char_traitsIcEENS_9allocatorIcEEEEEERNS6_ISB_EEEC1EmmSD_, symObjAddr: 0x4896C, symBinAddr: 0x100049F94, symSize: 0x7C }
  - { offset: 0x6598B, size: 0x8, addend: 0x0, symName: __ZNSt3__16vectorIN7testing7MatcherIRKNS_12basic_stringIcNS_11char_traitsIcEENS_9allocatorIcEEEEEENS6_ISB_EEE26__swap_out_circular_bufferERNS_14__split_bufferISB_RSC_EE, symObjAddr: 0x489E8, symBinAddr: 0x10004A010, symSize: 0x670 }
  - { offset: 0x659CF, size: 0x8, addend: 0x0, symName: __ZNSt3__114__split_bufferIN7testing7MatcherIRKNS_12basic_stringIcNS_11char_traitsIcEENS_9allocatorIcEEEEEERNS6_ISB_EEED1Ev, symObjAddr: 0x49058, symBinAddr: 0x10004A680, symSize: 0x64 }
  - { offset: 0x659FD, size: 0x8, addend: 0x0, symName: __ZNKSt3__16vectorIN7testing7MatcherIRKNS_12basic_stringIcNS_11char_traitsIcEENS_9allocatorIcEEEEEENS6_ISB_EEE8max_sizeB8ne210108Ev, symObjAddr: 0x490BC, symBinAddr: 0x10004A6E4, symSize: 0x2FC }
  - { offset: 0x65A24, size: 0x8, addend: 0x0, symName: __ZNSt3__16vectorIN7testing7MatcherIRKNS_12basic_stringIcNS_11char_traitsIcEENS_9allocatorIcEEEEEENS6_ISB_EEE20__throw_length_errorB8ne210108Ev, symObjAddr: 0x493C0, symBinAddr: 0x10004A9E8, symSize: 0x34 }
  - { offset: 0x65A43, size: 0x8, addend: 0x0, symName: __ZNSt3__116allocator_traitsINS_9allocatorIN7testing7MatcherIRKNS_12basic_stringIcNS_11char_traitsIcEENS1_IcEEEEEEEEE8max_sizeB8ne210108ISC_TnNS_9enable_ifIXnt16__has_max_size_vIKT_EEiE4typeELi0EEEmRKSC_, symObjAddr: 0x494D8, symBinAddr: 0x10004AB00, symSize: 0x54 }
  - { offset: 0x65A73, size: 0x8, addend: 0x0, symName: __ZNSt3__114__split_bufferIN7testing7MatcherIRKNS_12basic_stringIcNS_11char_traitsIcEENS_9allocatorIcEEEEEERNS6_ISB_EEEC2EmmSD_, symObjAddr: 0x497A4, symBinAddr: 0x10004ADCC, symSize: 0x664 }
  - { offset: 0x65AEC, size: 0x8, addend: 0x0, symName: __ZNSt3__19allocatorIN7testing7MatcherIRKNS_12basic_stringIcNS_11char_traitsIcEENS0_IcEEEEEEE8allocateB8ne210108Em, symObjAddr: 0x49E50, symBinAddr: 0x10004B478, symSize: 0xB4 }
  - { offset: 0x65B20, size: 0x8, addend: 0x0, symName: __ZNKSt3__16vectorIN7testing7MatcherIRKNS_12basic_stringIcNS_11char_traitsIcEENS_9allocatorIcEEEEEENS6_ISB_EEE17__annotate_deleteB8ne210108Ev, symObjAddr: 0x49FC0, symBinAddr: 0x10004B5E8, symSize: 0x210 }
  - { offset: 0x65B46, size: 0x8, addend: 0x0, symName: __ZNKSt3__16vectorIN7testing7MatcherIRKNS_12basic_stringIcNS_11char_traitsIcEENS_9allocatorIcEEEEEENS6_ISB_EEE14__annotate_newB8ne210108Em, symObjAddr: 0x4A8C0, symBinAddr: 0x10004BEE8, symSize: 0x200 }
  - { offset: 0x65B7B, size: 0x8, addend: 0x0, symName: __ZNSt3__129_AllocatorDestroyRangeReverseINS_9allocatorIN7testing7MatcherIRKNS_12basic_stringIcNS_11char_traitsIcEENS1_IcEEEEEEEEPSB_EC1B8ne210108ERSC_RSD_SG_, symObjAddr: 0x4ACCC, symBinAddr: 0x10004C2F4, symSize: 0x7C }
  - { offset: 0x65BD2, size: 0x8, addend: 0x0, symName: __ZNSt3__116allocator_traitsINS_9allocatorIN7testing7MatcherIRKNS_12basic_stringIcNS_11char_traitsIcEENS1_IcEEEEEEEEE9constructB8ne210108ISB_JRKSB_ETnNS_9enable_ifIXnt17__has_construct_vISC_PT_DpT0_EEiE4typeELi0EEEvRSC_SJ_DpOSK_, symObjAddr: 0x4AD50, symBinAddr: 0x10004C378, symSize: 0x70 }
  - { offset: 0x65C2B, size: 0x8, addend: 0x0, symName: __ZNSt3__128__exception_guard_exceptionsINS_29_AllocatorDestroyRangeReverseINS_9allocatorIN7testing7MatcherIRKNS_12basic_stringIcNS_11char_traitsIcEENS2_IcEEEEEEEEPSC_EEE10__completeB8ne210108Ev, symObjAddr: 0x4ADC0, symBinAddr: 0x10004C3E8, symSize: 0xC4 }
  - { offset: 0x65C51, size: 0x8, addend: 0x0, symName: __ZNSt3__128__exception_guard_exceptionsINS_29_AllocatorDestroyRangeReverseINS_9allocatorIN7testing7MatcherIRKNS_12basic_stringIcNS_11char_traitsIcEENS2_IcEEEEEEEEPSC_EEED1B8ne210108Ev, symObjAddr: 0x4AF78, symBinAddr: 0x10004C5A0, symSize: 0x64 }
  - { offset: 0x65C7F, size: 0x8, addend: 0x0, symName: __ZNSt3__128__exception_guard_exceptionsINS_29_AllocatorDestroyRangeReverseINS_9allocatorIN7testing7MatcherIRKNS_12basic_stringIcNS_11char_traitsIcEENS2_IcEEEEEEEEPSC_EEEC1B8ne210108ESF_, symObjAddr: 0x4AFDC, symBinAddr: 0x10004C604, symSize: 0x70 }
  - { offset: 0x65CB8, size: 0x8, addend: 0x0, symName: __ZNSt3__128__exception_guard_exceptionsINS_29_AllocatorDestroyRangeReverseINS_9allocatorIN7testing7MatcherIRKNS_12basic_stringIcNS_11char_traitsIcEENS2_IcEEEEEEEEPSC_EEEC2B8ne210108ESF_, symObjAddr: 0x4B04C, symBinAddr: 0x10004C674, symSize: 0xE4 }
  - { offset: 0x65CF1, size: 0x8, addend: 0x0, symName: __ZNSt3__129_AllocatorDestroyRangeReverseINS_9allocatorIN7testing7MatcherIRKNS_12basic_stringIcNS_11char_traitsIcEENS1_IcEEEEEEEEPSB_EC2B8ne210108ERSC_RSD_SG_, symObjAddr: 0x4B130, symBinAddr: 0x10004C758, symSize: 0x1C4 }
  - { offset: 0x65D48, size: 0x8, addend: 0x0, symName: __ZN7testing7MatcherIRKNSt3__112basic_stringIcNS1_11char_traitsIcEENS1_9allocatorIcEEEEEC1ERKSA_, symObjAddr: 0x4B410, symBinAddr: 0x10004CA38, symSize: 0x6C }
  - { offset: 0x65D7E, size: 0x8, addend: 0x0, symName: __ZN7testing7MatcherIRKNSt3__112basic_stringIcNS1_11char_traitsIcEENS1_9allocatorIcEEEEEC2ERKSA_, symObjAddr: 0x4B47C, symBinAddr: 0x10004CAA4, symSize: 0x15C }
  - { offset: 0x65DB4, size: 0x8, addend: 0x0, symName: __ZN7testing8internal11MatcherBaseIRKNSt3__112basic_stringIcNS2_11char_traitsIcEENS2_9allocatorIcEEEEEC2ERKSB_, symObjAddr: 0x4B5D8, symBinAddr: 0x10004CC00, symSize: 0x2A0 }
  - { offset: 0x65DED, size: 0x8, addend: 0x0, symName: __ZN7testing8internal17SharedPayloadBase3RefEv, symObjAddr: 0x4B878, symBinAddr: 0x10004CEA0, symSize: 0xBC }
  - { offset: 0x65E13, size: 0x8, addend: 0x0, symName: __ZNSt3__113__atomic_baseIiLb1EE9fetch_addB8ne210108EiNS_12memory_orderE, symObjAddr: 0x4B934, symBinAddr: 0x10004CF5C, symSize: 0xC4 }
  - { offset: 0x65E55, size: 0x8, addend: 0x0, symName: __ZNSt3__116allocator_traitsINS_9allocatorIN7testing7MatcherIRKNS_12basic_stringIcNS_11char_traitsIcEENS1_IcEEEEEEEEE7destroyB8ne210108ISB_TnNS_9enable_ifIXnt15__has_destroy_vISC_PT_EEiE4typeELi0EEEvRSC_SH_, symObjAddr: 0x4BCD8, symBinAddr: 0x10004D300, symSize: 0x28 }
  - { offset: 0x65E94, size: 0x8, addend: 0x0, symName: __ZNSt3__128__exception_guard_exceptionsINS_29_AllocatorDestroyRangeReverseINS_9allocatorIN7testing7MatcherIRKNS_12basic_stringIcNS_11char_traitsIcEENS2_IcEEEEEEEEPSC_EEED2B8ne210108Ev, symObjAddr: 0x4BDDC, symBinAddr: 0x10004D404, symSize: 0x158 }
  - { offset: 0x65EC2, size: 0x8, addend: 0x0, symName: __ZNKSt3__129_AllocatorDestroyRangeReverseINS_9allocatorIN7testing7MatcherIRKNS_12basic_stringIcNS_11char_traitsIcEENS1_IcEEEEEEEEPSB_EclB8ne210108Ev, symObjAddr: 0x4BF34, symBinAddr: 0x10004D55C, symSize: 0x33C }
  - { offset: 0x65EE9, size: 0x8, addend: 0x0, symName: __ZNSt3__116reverse_iteratorIPN7testing7MatcherIRKNS_12basic_stringIcNS_11char_traitsIcEENS_9allocatorIcEEEEEEEC1B8ne210108ESC_, symObjAddr: 0x4C4BC, symBinAddr: 0x10004DAE4, symSize: 0x6C }
  - { offset: 0x65F21, size: 0x8, addend: 0x0, symName: __ZNKSt3__116reverse_iteratorIPN7testing7MatcherIRKNS_12basic_stringIcNS_11char_traitsIcEENS_9allocatorIcEEEEEEEdeB8ne210108Ev, symObjAddr: 0x4C5C0, symBinAddr: 0x10004DBE8, symSize: 0x150 }
  - { offset: 0x65F55, size: 0x8, addend: 0x0, symName: __ZNSt3__116reverse_iteratorIPN7testing7MatcherIRKNS_12basic_stringIcNS_11char_traitsIcEENS_9allocatorIcEEEEEEEppB8ne210108Ev, symObjAddr: 0x4C710, symBinAddr: 0x10004DD38, symSize: 0x180 }
  - { offset: 0x65F7B, size: 0x8, addend: 0x0, symName: __ZNKSt3__116reverse_iteratorIPN7testing7MatcherIRKNS_12basic_stringIcNS_11char_traitsIcEENS_9allocatorIcEEEEEEE4baseB8ne210108Ev, symObjAddr: 0x4C890, symBinAddr: 0x10004DEB8, symSize: 0xA0 }
  - { offset: 0x65FA1, size: 0x8, addend: 0x0, symName: __ZNSt3__116reverse_iteratorIPN7testing7MatcherIRKNS_12basic_stringIcNS_11char_traitsIcEENS_9allocatorIcEEEEEEEC2B8ne210108ESC_, symObjAddr: 0x4C930, symBinAddr: 0x10004DF58, symSize: 0xF4 }
  - { offset: 0x65FD9, size: 0x8, addend: 0x0, symName: __ZNSt3__114__split_bufferIN7testing7MatcherIRKNS_12basic_stringIcNS_11char_traitsIcEENS_9allocatorIcEEEEEERNS6_ISB_EEED2Ev, symObjAddr: 0x4CA24, symBinAddr: 0x10004E04C, symSize: 0x170 }
  - { offset: 0x66007, size: 0x8, addend: 0x0, symName: __ZNSt3__114__split_bufferIN7testing7MatcherIRKNS_12basic_stringIcNS_11char_traitsIcEENS_9allocatorIcEEEEEERNS6_ISB_EEE5clearB8ne210108Ev, symObjAddr: 0x4CB94, symBinAddr: 0x10004E1BC, symSize: 0xA4 }
  - { offset: 0x6602D, size: 0x8, addend: 0x0, symName: __ZNSt3__116allocator_traitsINS_9allocatorIN7testing7MatcherIRKNS_12basic_stringIcNS_11char_traitsIcEENS1_IcEEEEEEEEE10deallocateB8ne210108ERSC_PSB_m, symObjAddr: 0x4CC40, symBinAddr: 0x10004E268, symSize: 0x34 }
  - { offset: 0x6606F, size: 0x8, addend: 0x0, symName: __ZNKSt3__114__split_bufferIN7testing7MatcherIRKNS_12basic_stringIcNS_11char_traitsIcEENS_9allocatorIcEEEEEERNS6_ISB_EEE8capacityB8ne210108Ev, symObjAddr: 0x4CC74, symBinAddr: 0x10004E29C, symSize: 0x120 }
  - { offset: 0x66095, size: 0x8, addend: 0x0, symName: __ZNSt3__114__split_bufferIN7testing7MatcherIRKNS_12basic_stringIcNS_11char_traitsIcEENS_9allocatorIcEEEEEERNS6_ISB_EEE17__destruct_at_endB8ne210108EPSB_, symObjAddr: 0x4CD94, symBinAddr: 0x10004E3BC, symSize: 0x64 }
  - { offset: 0x660C9, size: 0x8, addend: 0x0, symName: __ZNSt3__114__split_bufferIN7testing7MatcherIRKNS_12basic_stringIcNS_11char_traitsIcEENS_9allocatorIcEEEEEERNS6_ISB_EEE17__destruct_at_endB8ne210108EPSB_NS_17integral_constantIbLb0EEE, symObjAddr: 0x4CDF8, symBinAddr: 0x10004E420, symSize: 0x214 }
  - { offset: 0x66108, size: 0x8, addend: 0x0, symName: __ZNSt3__19allocatorIN7testing7MatcherIRKNS_12basic_stringIcNS_11char_traitsIcEENS0_IcEEEEEEE10deallocateB8ne210108EPSA_m, symObjAddr: 0x4D00C, symBinAddr: 0x10004E634, symSize: 0x58 }
  - { offset: 0x6614A, size: 0x8, addend: 0x0, symName: __ZN7testing8internal15MatcherCastImplIRKNSt3__112basic_stringIcNS2_11char_traitsIcEENS2_9allocatorIcEEEEPKcE4CastERKSC_, symObjAddr: 0x4D0EC, symBinAddr: 0x10004E714, symSize: 0x68 }
  - { offset: 0x6616E, size: 0x8, addend: 0x0, symName: __ZN7testing8internal15MatcherCastImplIRKNSt3__112basic_stringIcNS2_11char_traitsIcEENS2_9allocatorIcEEEEPKcE8CastImplILb1EEENS_7MatcherISA_EERKSC_NS2_17integral_constantIbLb1EEENSJ_IbXT_EEE, symObjAddr: 0x4D15C, symBinAddr: 0x10004E784, symSize: 0xA8 }
  - { offset: 0x661B2, size: 0x8, addend: 0x0, symName: __ZNSt3__111__wrap_iterIPKPKcEppB8ne210108Ev, symObjAddr: 0x4D204, symBinAddr: 0x10004E82C, symSize: 0x178 }
  - { offset: 0x661D8, size: 0x8, addend: 0x0, symName: __ZN7testing7MatcherIRKNSt3__112basic_stringIcNS1_11char_traitsIcEENS1_9allocatorIcEEEEED2Ev, symObjAddr: 0x4D37C, symBinAddr: 0x10004E9A4, symSize: 0x64 }
  - { offset: 0x66209, size: 0x8, addend: 0x0, symName: __ZNSt3__16vectorIN7testing7MatcherIRKNS_12basic_stringIcNS_11char_traitsIcEENS_9allocatorIcEEEEEENS6_ISB_EEED2B8ne210108Ev, symObjAddr: 0x4D3E0, symBinAddr: 0x10004EA08, symSize: 0x254 }
  - { offset: 0x66238, size: 0x8, addend: 0x0, symName: __ZNSt3__16vectorIN7testing7MatcherIRKNS_12basic_stringIcNS_11char_traitsIcEENS_9allocatorIcEEEEEENS6_ISB_EEE16__destroy_vectorC1B8ne210108ERSD_, symObjAddr: 0x4D634, symBinAddr: 0x10004EC5C, symSize: 0x6C }
  - { offset: 0x66270, size: 0x8, addend: 0x0, symName: __ZNSt3__16vectorIN7testing7MatcherIRKNS_12basic_stringIcNS_11char_traitsIcEENS_9allocatorIcEEEEEENS6_ISB_EEE16__destroy_vectorclB8ne210108Ev, symObjAddr: 0x4D6A0, symBinAddr: 0x10004ECC8, symSize: 0x3A0 }
  - { offset: 0x66296, size: 0x8, addend: 0x0, symName: __ZNSt3__16vectorIN7testing7MatcherIRKNS_12basic_stringIcNS_11char_traitsIcEENS_9allocatorIcEEEEEENS6_ISB_EEE16__destroy_vectorC2B8ne210108ERSD_, symObjAddr: 0x4DA40, symBinAddr: 0x10004F068, symSize: 0xE8 }
  - { offset: 0x662CE, size: 0x8, addend: 0x0, symName: __ZNSt3__16vectorIN7testing7MatcherIRKNS_12basic_stringIcNS_11char_traitsIcEENS_9allocatorIcEEEEEENS6_ISB_EEE5clearB8ne210108Ev, symObjAddr: 0x4DB28, symBinAddr: 0x10004F150, symSize: 0xB8 }
  - { offset: 0x66303, size: 0x8, addend: 0x0, symName: __ZNSt3__16vectorIN7testing7MatcherIRKNS_12basic_stringIcNS_11char_traitsIcEENS_9allocatorIcEEEEEENS6_ISB_EEE22__base_destruct_at_endB8ne210108EPSB_, symObjAddr: 0x4DBE0, symBinAddr: 0x10004F208, symSize: 0x1C8 }
  - { offset: 0x66347, size: 0x8, addend: 0x0, symName: __ZN7testing8internal22ElementsAreMatcherImplIRKNSt3__16vectorINS2_12basic_stringIcNS2_11char_traitsIcEENS2_9allocatorIcEEEENS7_IS9_EEEEED2Ev, symObjAddr: 0x4DDA8, symBinAddr: 0x10004F3D0, symSize: 0xC4 }
  - { offset: 0x66378, size: 0x8, addend: 0x0, symName: __ZNK7testing8internal22ElementsAreMatcherImplIRKNSt3__16vectorINS2_12basic_stringIcNS2_11char_traitsIcEENS2_9allocatorIcEEEENS7_IS9_EEEEE5countEv, symObjAddr: 0x4DE6C, symBinAddr: 0x10004F494, symSize: 0xA0 }
  - { offset: 0x6639E, size: 0x8, addend: 0x0, symName: __ZNKSt3__16vectorIN7testing7MatcherIRKNS_12basic_stringIcNS_11char_traitsIcEENS_9allocatorIcEEEEEENS6_ISB_EEEixB8ne210108Em, symObjAddr: 0x4DF0C, symBinAddr: 0x10004F534, symSize: 0x188 }
  - { offset: 0x663D3, size: 0x8, addend: 0x0, symName: __ZN7testing8internal22ElementsAreMatcherImplIRKNSt3__16vectorINS2_12basic_stringIcNS2_11char_traitsIcEENS2_9allocatorIcEEEENS7_IS9_EEEEE8ElementsEm, symObjAddr: 0x4E3F4, symBinAddr: 0x10004FA1C, symSize: 0x3DC }
  - { offset: 0x663FB, size: 0x8, addend: 0x0, symName: __ZN7testing7MessagelsImEERS0_RKT_, symObjAddr: 0x4E7D0, symBinAddr: 0x10004FDF8, symSize: 0x180 }
  - { offset: 0x6643F, size: 0x8, addend: 0x0, symName: __ZN7testing7MessagelsIKcEERS0_RKPT_, symObjAddr: 0x4E950, symBinAddr: 0x10004FF78, symSize: 0x278 }
  - { offset: 0x6647C, size: 0x8, addend: 0x0, symName: __ZN7testing7MessageC1ERKS0_, symObjAddr: 0x4EBC8, symBinAddr: 0x1000501F0, symSize: 0x6C }
  - { offset: 0x664B4, size: 0x8, addend: 0x0, symName: __ZN7testing7MessageC2ERKS0_, symObjAddr: 0x4EC34, symBinAddr: 0x10005025C, symSize: 0x45C }
  - { offset: 0x664EE, size: 0x8, addend: 0x0, symName: __ZNSt3__110unique_ptrINS_18basic_stringstreamIcNS_11char_traitsIcEENS_9allocatorIcEEEENS_14default_deleteIS6_EEEC1B8ne210108ILb1EvEEPS6_, symObjAddr: 0x4F090, symBinAddr: 0x1000506B8, symSize: 0x6C }
  - { offset: 0x66531, size: 0x8, addend: 0x0, symName: __ZNSt3__110unique_ptrINS_18basic_stringstreamIcNS_11char_traitsIcEENS_9allocatorIcEEEENS_14default_deleteIS6_EEEC2B8ne210108ILb1EvEEPS6_, symObjAddr: 0x4F0FC, symBinAddr: 0x100050724, symSize: 0xB8 }
  - { offset: 0x66574, size: 0x8, addend: 0x0, symName: __ZNSt3__16vectorINS_12basic_stringIcNS_11char_traitsIcEENS_9allocatorIcEEEENS4_IS6_EEEC1B8ne210108Em, symObjAddr: 0x4F1B4, symBinAddr: 0x1000507DC, symSize: 0x6C }
  - { offset: 0x665B7, size: 0x8, addend: 0x0, symName: __ZN7testing8internal16StlContainerViewINSt3__16vectorINS2_12basic_stringIcNS2_11char_traitsIcEENS2_9allocatorIcEEEENS7_IS9_EEEEE14ConstReferenceERKSB_, symObjAddr: 0x4F228, symBinAddr: 0x100050850, symSize: 0x58 }
  - { offset: 0x665DB, size: 0x8, addend: 0x0, symName: __ZNK7testing8internal11MatcherBaseIRKNSt3__112basic_stringIcNS2_11char_traitsIcEENS2_9allocatorIcEEEEE15MatchAndExplainESA_PNS_19MatchResultListenerE, symObjAddr: 0x4F280, symBinAddr: 0x1000508A8, symSize: 0x504 }
  - { offset: 0x66620, size: 0x8, addend: 0x0, symName: __ZNSt3__16vectorINS_12basic_stringIcNS_11char_traitsIcEENS_9allocatorIcEEEENS4_IS6_EEEixB8ne210108Em, symObjAddr: 0x4F784, symBinAddr: 0x100050DAC, symSize: 0x188 }
  - { offset: 0x66655, size: 0x8, addend: 0x0, symName: __ZNSt3__112basic_stringIcNS_11char_traitsIcEENS_9allocatorIcEEEaSB8ne210108EOS5_, symObjAddr: 0x4F90C, symBinAddr: 0x100050F34, symSize: 0xD4 }
  - { offset: 0x6668A, size: 0x8, addend: 0x0, symName: __ZNK7testing8internal11MatcherBaseIRKNSt3__112basic_stringIcNS2_11char_traitsIcEENS2_9allocatorIcEEEEE7MatchesESA_, symObjAddr: 0x4F9E0, symBinAddr: 0x100051008, symSize: 0x2DC }
  - { offset: 0x666E9, size: 0x8, addend: 0x0, symName: __ZN7testing19MatchResultListenerlsIA11_cEERS0_RKT_, symObjAddr: 0x4FCBC, symBinAddr: 0x1000512E4, symSize: 0x164 }
  - { offset: 0x66726, size: 0x8, addend: 0x0, symName: __ZN7testing19MatchResultListenerlsINS_7MessageEEERS0_RKT_, symObjAddr: 0x4FE20, symBinAddr: 0x100051448, symSize: 0x19C }
  - { offset: 0x6677A, size: 0x8, addend: 0x0, symName: __ZN7testing19MatchResultListenerlsIA16_cEERS0_RKT_, symObjAddr: 0x4FFBC, symBinAddr: 0x1000515E4, symSize: 0x164 }
  - { offset: 0x667C2, size: 0x8, addend: 0x0, symName: __ZN7testing19MatchResultListenerlsIA3_cEERS0_RKT_, symObjAddr: 0x50120, symBinAddr: 0x100051748, symSize: 0x164 }
  - { offset: 0x667FF, size: 0x8, addend: 0x0, symName: __ZN7testing19MatchResultListenerlsINSt3__112basic_stringIcNS2_11char_traitsIcEENS2_9allocatorIcEEEEEERS0_RKT_, symObjAddr: 0x50284, symBinAddr: 0x1000518AC, symSize: 0x19C }
  - { offset: 0x66847, size: 0x8, addend: 0x0, symName: __ZN7testing19MatchResultListenerlsIA7_cEERS0_RKT_, symObjAddr: 0x507F8, symBinAddr: 0x100051E20, symSize: 0x164 }
  - { offset: 0x66884, size: 0x8, addend: 0x0, symName: __ZNSt3__16vectorINS_12basic_stringIcNS_11char_traitsIcEENS_9allocatorIcEEEENS4_IS6_EEEC2B8ne210108Em, symObjAddr: 0x5095C, symBinAddr: 0x100051F84, symSize: 0x41C }
  - { offset: 0x668D6, size: 0x8, addend: 0x0, symName: __ZNSt3__16vectorINS_12basic_stringIcNS_11char_traitsIcEENS_9allocatorIcEEEENS4_IS6_EEE18__construct_at_endEm, symObjAddr: 0x50D78, symBinAddr: 0x1000523A0, symSize: 0x494 }
  - { offset: 0x66950, size: 0x8, addend: 0x0, symName: __ZNSt3__116allocator_traitsINS_9allocatorINS_12basic_stringIcNS_11char_traitsIcEENS1_IcEEEEEEE9constructB8ne210108IS6_JETnNS_9enable_ifIXnt17__has_construct_vIS7_PT_DpT0_EEiE4typeELi0EEEvRS7_SC_DpOSD_, symObjAddr: 0x51214, symBinAddr: 0x10005283C, symSize: 0x28 }
  - { offset: 0x66995, size: 0x8, addend: 0x0, symName: __ZNSt3__112basic_stringIcNS_11char_traitsIcEENS_9allocatorIcEEE13__move_assignB8ne210108ERS5_NS_17integral_constantIbLb1EEE, symObjAddr: 0x512D0, symBinAddr: 0x1000528F8, symSize: 0x508 }
  - { offset: 0x669F8, size: 0x8, addend: 0x0, symName: __ZNSt3__116allocator_traitsINS_9allocatorIcEEE10deallocateB8ne210108ERS2_Pcm, symObjAddr: 0x517E0, symBinAddr: 0x100052E08, symSize: 0x34 }
  - { offset: 0x66A3A, size: 0x8, addend: 0x0, symName: __ZNSt3__112basic_stringIcNS_11char_traitsIcEENS_9allocatorIcEEE19__move_assign_allocB8ne210108ERS5_, symObjAddr: 0x51814, symBinAddr: 0x100052E3C, symSize: 0x9C }
  - { offset: 0x66A6F, size: 0x8, addend: 0x0, symName: __ZNSt3__112basic_stringIcNS_11char_traitsIcEENS_9allocatorIcEEE16__set_short_sizeB8ne210108Em, symObjAddr: 0x518B0, symBinAddr: 0x100052ED8, symSize: 0x230 }
  - { offset: 0x66AA4, size: 0x8, addend: 0x0, symName: __ZNSt3__111char_traitsIcE6assignB8ne210108ERcRKc, symObjAddr: 0x51AE8, symBinAddr: 0x100053110, symSize: 0xDC }
  - { offset: 0x66AD5, size: 0x8, addend: 0x0, symName: __ZNKSt3__112basic_stringIcNS_11char_traitsIcEENS_9allocatorIcEEE17__annotate_shrinkB8ne210108Em, symObjAddr: 0x51BC4, symBinAddr: 0x1000531EC, symSize: 0x2F4 }
  - { offset: 0x66B0A, size: 0x8, addend: 0x0, symName: __ZNSt3__19allocatorIcE10deallocateB8ne210108EPcm, symObjAddr: 0x51EB8, symBinAddr: 0x1000534E0, symSize: 0x58 }
  - { offset: 0x66B4C, size: 0x8, addend: 0x0, symName: __ZNSt3__112basic_stringIcNS_11char_traitsIcEENS_9allocatorIcEEE19__move_assign_allocB8ne210108ERS5_NS_17integral_constantIbLb1EEE, symObjAddr: 0x51F8C, symBinAddr: 0x1000535B4, symSize: 0x80 }
  - { offset: 0x66B8C, size: 0x8, addend: 0x0, symName: __ZN7testing8internal21UniversalTersePrinterINSt3__112basic_stringIcNS2_11char_traitsIcEENS2_9allocatorIcEEEEE5PrintERKS8_PNS2_13basic_ostreamIcS5_EE, symObjAddr: 0x52014, symBinAddr: 0x10005363C, symSize: 0x64 }
  - { offset: 0x66BBF, size: 0x8, addend: 0x0, symName: __ZN7testing8internal29PredicateFormatterFromMatcherINS0_23ElementsAreArrayMatcherIPKcEEED2Ev, symObjAddr: 0x52078, symBinAddr: 0x1000536A0, symSize: 0x64 }
  - { offset: 0x66BF0, size: 0x8, addend: 0x0, symName: __ZN7testing8internal23ElementsAreArrayMatcherIPKcED2Ev, symObjAddr: 0x520DC, symBinAddr: 0x100053704, symSize: 0x64 }
  - { offset: 0x66C21, size: 0x8, addend: 0x0, symName: __ZNSt3__16vectorIPKcNS_9allocatorIS2_EEED1B8ne210108Ev, symObjAddr: 0x52140, symBinAddr: 0x100053768, symSize: 0x64 }
  - { offset: 0x66C4F, size: 0x8, addend: 0x0, symName: __ZNSt3__16vectorIPKcNS_9allocatorIS2_EEED2B8ne210108Ev, symObjAddr: 0x521A4, symBinAddr: 0x1000537CC, symSize: 0x250 }
  - { offset: 0x66C7E, size: 0x8, addend: 0x0, symName: __ZN7testing8internal15TestFactoryImplIN12_GLOBAL__N_135CaesarDec_RotVec_MultipleElems_TestEEC2Ev, symObjAddr: 0x523F4, symBinAddr: 0x100053A1C, symSize: 0xF8 }
  - { offset: 0x66CAB, size: 0x8, addend: 0x0, symName: __ZN7testing8internal15TestFactoryImplIN12_GLOBAL__N_135CaesarDec_RotVec_MultipleElems_TestEED1Ev, symObjAddr: 0x524EC, symBinAddr: 0x100053B14, symSize: 0x64 }
  - { offset: 0x66CDC, size: 0x8, addend: 0x0, symName: __ZN7testing8internal15TestFactoryImplIN12_GLOBAL__N_135CaesarDec_RotVec_MultipleElems_TestEED0Ev, symObjAddr: 0x52550, symBinAddr: 0x100053B78, symSize: 0x68 }
  - { offset: 0x66D09, size: 0x8, addend: 0x0, symName: __ZN7testing8internal15TestFactoryImplIN12_GLOBAL__N_135CaesarDec_RotVec_MultipleElems_TestEE10CreateTestEv, symObjAddr: 0x525B8, symBinAddr: 0x100053BE0, symSize: 0xFC }
  - { offset: 0x66D2F, size: 0x8, addend: 0x0, symName: __ZN7testing8internal15TestFactoryImplIN12_GLOBAL__N_135CaesarDec_RotVec_MultipleElems_TestEED2Ev, symObjAddr: 0x526B4, symBinAddr: 0x100053CDC, symSize: 0x64 }
  - { offset: 0x66D60, size: 0x8, addend: 0x0, symName: __ZN12_GLOBAL__N_135CaesarDec_RotVec_MultipleElems_TestC1Ev, symObjAddr: 0x52718, symBinAddr: 0x100053D40, symSize: 0x64 }
  - { offset: 0x66D8A, size: 0x8, addend: 0x0, symName: __ZN12_GLOBAL__N_135CaesarDec_RotVec_MultipleElems_TestC2Ev, symObjAddr: 0x5277C, symBinAddr: 0x100053DA4, symSize: 0xF8 }
  - { offset: 0x66DB4, size: 0x8, addend: 0x0, symName: __ZN12_GLOBAL__N_135CaesarDec_RotVec_MultipleElems_TestD1Ev, symObjAddr: 0x52874, symBinAddr: 0x100053E9C, symSize: 0x64 }
  - { offset: 0x66DE2, size: 0x8, addend: 0x0, symName: __ZN12_GLOBAL__N_135CaesarDec_RotVec_MultipleElems_TestD0Ev, symObjAddr: 0x528D8, symBinAddr: 0x100053F00, symSize: 0x68 }
  - { offset: 0x66E0C, size: 0x8, addend: 0x0, symName: __ZN12_GLOBAL__N_135CaesarDec_RotVec_MultipleElems_Test8TestBodyEv, symObjAddr: 0x52940, symBinAddr: 0x100053F68, symSize: 0x93C }
  - { offset: 0x66E5E, size: 0x8, addend: 0x0, symName: __ZN12_GLOBAL__N_135CaesarDec_RotVec_MultipleElems_TestD2Ev, symObjAddr: 0x5327C, symBinAddr: 0x1000548A4, symSize: 0x64 }
  - { offset: 0x66E8C, size: 0x8, addend: 0x0, symName: __ZN7testing8internal26ParameterizedTestSuiteInfoIN12_GLOBAL__N_115CaesarDec_CleanEE14AddTestPatternEPKcS6_PNS0_19TestMetaFactoryBaseINSt3__15tupleIJNS8_12basic_stringIcNS8_11char_traitsIcEENS8_9allocatorIcEEEESF_EEEEENS0_12CodeLocationE, symObjAddr: 0x532E0, symBinAddr: 0x100054908, symSize: 0x404 }
  - { offset: 0x66EF0, size: 0x8, addend: 0x0, symName: __ZN7testing8internal15TestMetaFactoryIN12_GLOBAL__N_125CaesarDec_Clean_Case_TestEEC1Ev, symObjAddr: 0x536E4, symBinAddr: 0x100054D0C, symSize: 0x64 }
  - { offset: 0x66F20, size: 0x8, addend: 0x0, symName: __ZNSt3__16vectorINS_10shared_ptrIN7testing8internal26ParameterizedTestSuiteInfoIN12_GLOBAL__N_115CaesarDec_CleanEE8TestInfoEEENS_9allocatorIS9_EEE12emplace_backIJPS8_EEERS9_DpOT_, symObjAddr: 0x53748, symBinAddr: 0x100054D70, symSize: 0x340 }
  - { offset: 0x66F75, size: 0x8, addend: 0x0, symName: __ZN7testing8internal12CodeLocationC1EOS1_, symObjAddr: 0x53A88, symBinAddr: 0x1000550B0, symSize: 0x6C }
  - { offset: 0x66FAB, size: 0x8, addend: 0x0, symName: __ZN7testing8internal26ParameterizedTestSuiteInfoIN12_GLOBAL__N_115CaesarDec_CleanEE8TestInfoC1EPKcPNS0_19TestMetaFactoryBaseINSt3__15tupleIJNS9_12basic_stringIcNS9_11char_traitsIcEENS9_9allocatorIcEEEESG_EEEEENS0_12CodeLocationE, symObjAddr: 0x53AF4, symBinAddr: 0x10005511C, symSize: 0x80 }
  - { offset: 0x67003, size: 0x8, addend: 0x0, symName: __ZNSt3__16vectorINS_10shared_ptrIN7testing8internal26ParameterizedTestSuiteInfoIN12_GLOBAL__N_115CaesarDec_CleanEE8TestInfoEEENS_9allocatorIS9_EEE30__emplace_back_assume_capacityB8ne210108IJPS8_EEEvDpOT_, symObjAddr: 0x53B74, symBinAddr: 0x10005519C, symSize: 0x440 }
  - { offset: 0x67058, size: 0x8, addend: 0x0, symName: __ZNSt3__16vectorINS_10shared_ptrIN7testing8internal26ParameterizedTestSuiteInfoIN12_GLOBAL__N_115CaesarDec_CleanEE8TestInfoEEENS_9allocatorIS9_EEE24__emplace_back_slow_pathIJPS8_EEEPS9_DpOT_, symObjAddr: 0x53FB4, symBinAddr: 0x1000555DC, symSize: 0x4BC }
  - { offset: 0x670C9, size: 0x8, addend: 0x0, symName: __ZNSt3__16vectorINS_10shared_ptrIN7testing8internal26ParameterizedTestSuiteInfoIN12_GLOBAL__N_115CaesarDec_CleanEE8TestInfoEEENS_9allocatorIS9_EEE21_ConstructTransactionC1B8ne210108ERSC_m, symObjAddr: 0x54470, symBinAddr: 0x100055A98, symSize: 0x74 }
  - { offset: 0x67111, size: 0x8, addend: 0x0, symName: __ZNSt3__116allocator_traitsINS_9allocatorINS_10shared_ptrIN7testing8internal26ParameterizedTestSuiteInfoIN12_GLOBAL__N_115CaesarDec_CleanEE8TestInfoEEEEEE9constructB8ne210108ISA_JPS9_ETnNS_9enable_ifIXnt17__has_construct_vISB_PT_DpT0_EEiE4typeELi0EEEvRSB_SH_DpOSI_, symObjAddr: 0x544EC, symBinAddr: 0x100055B14, symSize: 0x70 }
  - { offset: 0x6716A, size: 0x8, addend: 0x0, symName: __ZNSt3__16vectorINS_10shared_ptrIN7testing8internal26ParameterizedTestSuiteInfoIN12_GLOBAL__N_115CaesarDec_CleanEE8TestInfoEEENS_9allocatorIS9_EEE21_ConstructTransactionD1B8ne210108Ev, symObjAddr: 0x54578, symBinAddr: 0x100055BA0, symSize: 0x64 }
  - { offset: 0x67198, size: 0x8, addend: 0x0, symName: __ZNSt3__16vectorINS_10shared_ptrIN7testing8internal26ParameterizedTestSuiteInfoIN12_GLOBAL__N_115CaesarDec_CleanEE8TestInfoEEENS_9allocatorIS9_EEE21_ConstructTransactionC2B8ne210108ERSC_m, symObjAddr: 0x545DC, symBinAddr: 0x100055C04, symSize: 0x34C }
  - { offset: 0x671E0, size: 0x8, addend: 0x0, symName: __ZNKSt3__16vectorINS_10shared_ptrIN7testing8internal26ParameterizedTestSuiteInfoIN12_GLOBAL__N_115CaesarDec_CleanEE8TestInfoEEENS_9allocatorIS9_EEE19__annotate_increaseB8ne210108Em, symObjAddr: 0x54928, symBinAddr: 0x100055F50, symSize: 0x2B0 }
  - { offset: 0x67215, size: 0x8, addend: 0x0, symName: __ZNKSt3__16vectorINS_10shared_ptrIN7testing8internal26ParameterizedTestSuiteInfoIN12_GLOBAL__N_115CaesarDec_CleanEE8TestInfoEEENS_9allocatorIS9_EEE31__annotate_contiguous_containerB8ne210108EPKvSE_, symObjAddr: 0x54BD8, symBinAddr: 0x100056200, symSize: 0x144 }
  - { offset: 0x67259, size: 0x8, addend: 0x0, symName: __ZNKSt3__16vectorINS_10shared_ptrIN7testing8internal26ParameterizedTestSuiteInfoIN12_GLOBAL__N_115CaesarDec_CleanEE8TestInfoEEENS_9allocatorIS9_EEE4dataB8ne210108Ev, symObjAddr: 0x54D1C, symBinAddr: 0x100056344, symSize: 0xA0 }
  - { offset: 0x6727F, size: 0x8, addend: 0x0, symName: __ZNKSt3__16vectorINS_10shared_ptrIN7testing8internal26ParameterizedTestSuiteInfoIN12_GLOBAL__N_115CaesarDec_CleanEE8TestInfoEEENS_9allocatorIS9_EEE4sizeB8ne210108Ev, symObjAddr: 0x54DBC, symBinAddr: 0x1000563E4, symSize: 0xE0 }
  - { offset: 0x672A5, size: 0x8, addend: 0x0, symName: __ZNKSt3__16vectorINS_10shared_ptrIN7testing8internal26ParameterizedTestSuiteInfoIN12_GLOBAL__N_115CaesarDec_CleanEE8TestInfoEEENS_9allocatorIS9_EEE8capacityB8ne210108Ev, symObjAddr: 0x54EF0, symBinAddr: 0x100056518, symSize: 0x120 }
  - { offset: 0x672CB, size: 0x8, addend: 0x0, symName: __ZNSt3__110shared_ptrIN7testing8internal26ParameterizedTestSuiteInfoIN12_GLOBAL__N_115CaesarDec_CleanEE8TestInfoEEC1B8ne210108IS7_TnNS_9enable_ifIXsr4_AndINS_29__raw_pointer_compatible_withIT_S7_vEENS_14__is_deletableIPSC_vEEEE5valueEiE4typeELi0EEESF_, symObjAddr: 0x55170, symBinAddr: 0x100056798, symSize: 0x6C }
  - { offset: 0x67314, size: 0x8, addend: 0x0, symName: __ZNSt3__110shared_ptrIN7testing8internal26ParameterizedTestSuiteInfoIN12_GLOBAL__N_115CaesarDec_CleanEE8TestInfoEEC2B8ne210108IS7_TnNS_9enable_ifIXsr4_AndINS_29__raw_pointer_compatible_withIT_S7_vEENS_14__is_deletableIPSC_vEEEE5valueEiE4typeELi0EEESF_, symObjAddr: 0x551DC, symBinAddr: 0x100056804, symSize: 0x43C }
  - { offset: 0x673AC, size: 0x8, addend: 0x0, symName: __ZNSt3__110unique_ptrIN7testing8internal26ParameterizedTestSuiteInfoIN12_GLOBAL__N_115CaesarDec_CleanEE8TestInfoENS_14default_deleteIS7_EEEC1B8ne210108ILb1EvEEPS7_, symObjAddr: 0x55618, symBinAddr: 0x100056C40, symSize: 0x6C }
  - { offset: 0x673EF, size: 0x8, addend: 0x0, symName: __ZNSt3__19allocatorIN7testing8internal26ParameterizedTestSuiteInfoIN12_GLOBAL__N_115CaesarDec_CleanEE8TestInfoEEC1B8ne210108Ev, symObjAddr: 0x55684, symBinAddr: 0x100056CAC, symSize: 0x50 }
  - { offset: 0x67419, size: 0x8, addend: 0x0, symName: __ZNSt3__120__shared_ptr_pointerIPN7testing8internal26ParameterizedTestSuiteInfoIN12_GLOBAL__N_115CaesarDec_CleanEE8TestInfoENS_10shared_ptrIS7_E27__shared_ptr_default_deleteIS7_S7_EENS_9allocatorIS7_EEEC1B8ne210108ES8_SC_SE_, symObjAddr: 0x556D4, symBinAddr: 0x100056CFC, symSize: 0x6C }
  - { offset: 0x6746D, size: 0x8, addend: 0x0, symName: __ZNSt3__110unique_ptrIN7testing8internal26ParameterizedTestSuiteInfoIN12_GLOBAL__N_115CaesarDec_CleanEE8TestInfoENS_14default_deleteIS7_EEE7releaseB8ne210108Ev, symObjAddr: 0x55740, symBinAddr: 0x100056D68, symSize: 0x148 }
  - { offset: 0x674A2, size: 0x8, addend: 0x0, symName: __ZNSt3__110shared_ptrIN7testing8internal26ParameterizedTestSuiteInfoIN12_GLOBAL__N_115CaesarDec_CleanEE8TestInfoEE18__enable_weak_thisB8ne210108Ez, symObjAddr: 0x55888, symBinAddr: 0x100056EB0, symSize: 0x54 }
  - { offset: 0x674CA, size: 0x8, addend: 0x0, symName: __ZNSt3__110unique_ptrIN7testing8internal26ParameterizedTestSuiteInfoIN12_GLOBAL__N_115CaesarDec_CleanEE8TestInfoENS_14default_deleteIS7_EEED1B8ne210108Ev, symObjAddr: 0x558DC, symBinAddr: 0x100056F04, symSize: 0x64 }
  - { offset: 0x674F8, size: 0x8, addend: 0x0, symName: __ZNSt3__110unique_ptrIN7testing8internal26ParameterizedTestSuiteInfoIN12_GLOBAL__N_115CaesarDec_CleanEE8TestInfoENS_14default_deleteIS7_EEEC2B8ne210108ILb1EvEEPS7_, symObjAddr: 0x55940, symBinAddr: 0x100056F68, symSize: 0xB8 }
  - { offset: 0x6753B, size: 0x8, addend: 0x0, symName: __ZNSt3__19allocatorIN7testing8internal26ParameterizedTestSuiteInfoIN12_GLOBAL__N_115CaesarDec_CleanEE8TestInfoEEC2B8ne210108Ev, symObjAddr: 0x559F8, symBinAddr: 0x100057020, symSize: 0x70 }
  - { offset: 0x67565, size: 0x8, addend: 0x0, symName: __ZNSt3__116__non_trivial_ifILb1ENS_9allocatorIN7testing8internal26ParameterizedTestSuiteInfoIN12_GLOBAL__N_115CaesarDec_CleanEE8TestInfoEEEEC2B8ne210108Ev, symObjAddr: 0x55A68, symBinAddr: 0x100057090, symSize: 0x48 }
  - { offset: 0x6758F, size: 0x8, addend: 0x0, symName: __ZNSt3__120__shared_ptr_pointerIPN7testing8internal26ParameterizedTestSuiteInfoIN12_GLOBAL__N_115CaesarDec_CleanEE8TestInfoENS_10shared_ptrIS7_E27__shared_ptr_default_deleteIS7_S7_EENS_9allocatorIS7_EEEC2B8ne210108ES8_SC_SE_, symObjAddr: 0x55AB0, symBinAddr: 0x1000570D8, symSize: 0x13C }
  - { offset: 0x675E3, size: 0x8, addend: 0x0, symName: __ZNSt3__119__shared_weak_countC2B8ne210108El, symObjAddr: 0x55BEC, symBinAddr: 0x100057214, symSize: 0x144 }
  - { offset: 0x6761B, size: 0x8, addend: 0x0, symName: __ZNSt3__120__shared_ptr_pointerIPN7testing8internal26ParameterizedTestSuiteInfoIN12_GLOBAL__N_115CaesarDec_CleanEE8TestInfoENS_10shared_ptrIS7_E27__shared_ptr_default_deleteIS7_S7_EENS_9allocatorIS7_EEED1Ev, symObjAddr: 0x55D30, symBinAddr: 0x100057358, symSize: 0x64 }
  - { offset: 0x6764B, size: 0x8, addend: 0x0, symName: __ZNSt3__120__shared_ptr_pointerIPN7testing8internal26ParameterizedTestSuiteInfoIN12_GLOBAL__N_115CaesarDec_CleanEE8TestInfoENS_10shared_ptrIS7_E27__shared_ptr_default_deleteIS7_S7_EENS_9allocatorIS7_EEED0Ev, symObjAddr: 0x55D94, symBinAddr: 0x1000573BC, symSize: 0x68 }
  - { offset: 0x67677, size: 0x8, addend: 0x0, symName: __ZNSt3__120__shared_ptr_pointerIPN7testing8internal26ParameterizedTestSuiteInfoIN12_GLOBAL__N_115CaesarDec_CleanEE8TestInfoENS_10shared_ptrIS7_E27__shared_ptr_default_deleteIS7_S7_EENS_9allocatorIS7_EEE16__on_zero_sharedEv, symObjAddr: 0x55DFC, symBinAddr: 0x100057424, symSize: 0x110 }
  - { offset: 0x6769D, size: 0x8, addend: 0x0, symName: __ZNKSt3__120__shared_ptr_pointerIPN7testing8internal26ParameterizedTestSuiteInfoIN12_GLOBAL__N_115CaesarDec_CleanEE8TestInfoENS_10shared_ptrIS7_E27__shared_ptr_default_deleteIS7_S7_EENS_9allocatorIS7_EEE13__get_deleterERKSt9type_info, symObjAddr: 0x55F0C, symBinAddr: 0x100057534, symSize: 0xC8 }
  - { offset: 0x676D1, size: 0x8, addend: 0x0, symName: __ZNSt3__120__shared_ptr_pointerIPN7testing8internal26ParameterizedTestSuiteInfoIN12_GLOBAL__N_115CaesarDec_CleanEE8TestInfoENS_10shared_ptrIS7_E27__shared_ptr_default_deleteIS7_S7_EENS_9allocatorIS7_EEE21__on_zero_shared_weakEv, symObjAddr: 0x55FD4, symBinAddr: 0x1000575FC, symSize: 0x268 }
  - { offset: 0x67716, size: 0x8, addend: 0x0, symName: __ZNSt3__114__shared_countC2B8ne210108El, symObjAddr: 0x5623C, symBinAddr: 0x100057864, symSize: 0xF4 }
  - { offset: 0x6774E, size: 0x8, addend: 0x0, symName: __ZNSt3__120__shared_ptr_pointerIPN7testing8internal26ParameterizedTestSuiteInfoIN12_GLOBAL__N_115CaesarDec_CleanEE8TestInfoENS_10shared_ptrIS7_E27__shared_ptr_default_deleteIS7_S7_EENS_9allocatorIS7_EEED2Ev, symObjAddr: 0x56330, symBinAddr: 0x100057958, symSize: 0x64 }
  - { offset: 0x6777E, size: 0x8, addend: 0x0, symName: __ZNKSt3__114default_deleteIN7testing8internal26ParameterizedTestSuiteInfoIN12_GLOBAL__N_115CaesarDec_CleanEE8TestInfoEEclB8ne210108EPS7_, symObjAddr: 0x56394, symBinAddr: 0x1000579BC, symSize: 0xA0 }
  - { offset: 0x677B2, size: 0x8, addend: 0x0, symName: __ZN7testing8internal26ParameterizedTestSuiteInfoIN12_GLOBAL__N_115CaesarDec_CleanEE8TestInfoD1Ev, symObjAddr: 0x56434, symBinAddr: 0x100057A5C, symSize: 0x64 }
  - { offset: 0x677E3, size: 0x8, addend: 0x0, symName: __ZN7testing8internal26ParameterizedTestSuiteInfoIN12_GLOBAL__N_115CaesarDec_CleanEE8TestInfoD2Ev, symObjAddr: 0x56498, symBinAddr: 0x100057AC0, symSize: 0x7C }
  - { offset: 0x67814, size: 0x8, addend: 0x0, symName: __ZNSt3__110unique_ptrIN7testing8internal19TestMetaFactoryBaseINS_5tupleIJNS_12basic_stringIcNS_11char_traitsIcEENS_9allocatorIcEEEESA_EEEEENS_14default_deleteISC_EEED1B8ne210108Ev, symObjAddr: 0x56514, symBinAddr: 0x100057B3C, symSize: 0x64 }
  - { offset: 0x67842, size: 0x8, addend: 0x0, symName: __ZNSt3__110unique_ptrIN7testing8internal19TestMetaFactoryBaseINS_5tupleIJNS_12basic_stringIcNS_11char_traitsIcEENS_9allocatorIcEEEESA_EEEEENS_14default_deleteISC_EEED2B8ne210108Ev, symObjAddr: 0x56578, symBinAddr: 0x100057BA0, symSize: 0x68 }
  - { offset: 0x67870, size: 0x8, addend: 0x0, symName: __ZNSt3__110unique_ptrIN7testing8internal19TestMetaFactoryBaseINS_5tupleIJNS_12basic_stringIcNS_11char_traitsIcEENS_9allocatorIcEEEESA_EEEEENS_14default_deleteISC_EEE5resetB8ne210108EPSC_, symObjAddr: 0x565E0, symBinAddr: 0x100057C08, symSize: 0x190 }
  - { offset: 0x678B4, size: 0x8, addend: 0x0, symName: __ZNKSt3__114default_deleteIN7testing8internal19TestMetaFactoryBaseINS_5tupleIJNS_12basic_stringIcNS_11char_traitsIcEENS_9allocatorIcEEEESA_EEEEEEclB8ne210108EPSC_, symObjAddr: 0x56770, symBinAddr: 0x100057D98, symSize: 0x110 }
  - { offset: 0x67908, size: 0x8, addend: 0x0, symName: __ZNKSt9type_infoeqB8ne210108ERKS_, symObjAddr: 0x56880, symBinAddr: 0x100057EA8, symSize: 0x1B4 }
  - { offset: 0x679A4, size: 0x8, addend: 0x0, symName: __ZNSt27__type_info_implementations30__non_unique_arm_rtti_bit_impl21__is_type_name_uniqueB8ne210108Em, symObjAddr: 0x56A3C, symBinAddr: 0x100058064, symSize: 0x1C }
  - { offset: 0x679E5, size: 0x8, addend: 0x0, symName: __ZNSt3__19allocatorINS_20__shared_ptr_pointerIPN7testing8internal26ParameterizedTestSuiteInfoIN12_GLOBAL__N_115CaesarDec_CleanEE8TestInfoENS_10shared_ptrIS8_E27__shared_ptr_default_deleteIS8_S8_EENS0_IS8_EEEEEC1B8ne210108IS8_EERKNS0_IT_EE, symObjAddr: 0x56A58, symBinAddr: 0x100058080, symSize: 0x58 }
  - { offset: 0x67A23, size: 0x8, addend: 0x0, symName: __ZNSt3__19allocatorINS_20__shared_ptr_pointerIPN7testing8internal26ParameterizedTestSuiteInfoIN12_GLOBAL__N_115CaesarDec_CleanEE8TestInfoENS_10shared_ptrIS8_E27__shared_ptr_default_deleteIS8_S8_EENS0_IS8_EEEEE10deallocateB8ne210108EPSF_m, symObjAddr: 0x56AB0, symBinAddr: 0x1000580D8, symSize: 0x58 }
  - { offset: 0x67A6B, size: 0x8, addend: 0x0, symName: __ZNSt3__114pointer_traitsIPNS_20__shared_ptr_pointerIPN7testing8internal26ParameterizedTestSuiteInfoIN12_GLOBAL__N_115CaesarDec_CleanEE8TestInfoENS_10shared_ptrIS8_E27__shared_ptr_default_deleteIS8_S8_EENS_9allocatorIS8_EEEEE10pointer_toB8ne210108ERSG_, symObjAddr: 0x56B10, symBinAddr: 0x100058138, symSize: 0x14 }
  - { offset: 0x67A8E, size: 0x8, addend: 0x0, symName: __ZNSt3__19allocatorINS_20__shared_ptr_pointerIPN7testing8internal26ParameterizedTestSuiteInfoIN12_GLOBAL__N_115CaesarDec_CleanEE8TestInfoENS_10shared_ptrIS8_E27__shared_ptr_default_deleteIS8_S8_EENS0_IS8_EEEEEC2B8ne210108IS8_EERKNS0_IT_EE, symObjAddr: 0x56B24, symBinAddr: 0x10005814C, symSize: 0x74 }
  - { offset: 0x67ACC, size: 0x8, addend: 0x0, symName: __ZNSt3__116__non_trivial_ifILb1ENS_9allocatorINS_20__shared_ptr_pointerIPN7testing8internal26ParameterizedTestSuiteInfoIN12_GLOBAL__N_115CaesarDec_CleanEE8TestInfoENS_10shared_ptrIS9_E27__shared_ptr_default_deleteIS9_S9_EENS1_IS9_EEEEEEEC2B8ne210108Ev, symObjAddr: 0x56B98, symBinAddr: 0x1000581C0, symSize: 0x48 }
  - { offset: 0x67AF6, size: 0x8, addend: 0x0, symName: __ZNSt3__110unique_ptrIN7testing8internal26ParameterizedTestSuiteInfoIN12_GLOBAL__N_115CaesarDec_CleanEE8TestInfoENS_14default_deleteIS7_EEED2B8ne210108Ev, symObjAddr: 0x56C5C, symBinAddr: 0x100058284, symSize: 0x68 }
  - { offset: 0x67B24, size: 0x8, addend: 0x0, symName: __ZNSt3__110unique_ptrIN7testing8internal26ParameterizedTestSuiteInfoIN12_GLOBAL__N_115CaesarDec_CleanEE8TestInfoENS_14default_deleteIS7_EEE5resetB8ne210108EPS7_, symObjAddr: 0x56CC4, symBinAddr: 0x1000582EC, symSize: 0x190 }
  - { offset: 0x67B68, size: 0x8, addend: 0x0, symName: __ZNSt3__16vectorINS_10shared_ptrIN7testing8internal26ParameterizedTestSuiteInfoIN12_GLOBAL__N_115CaesarDec_CleanEE8TestInfoEEENS_9allocatorIS9_EEE21_ConstructTransactionD2B8ne210108Ev, symObjAddr: 0x56E54, symBinAddr: 0x10005847C, symSize: 0x31C }
  - { offset: 0x67B96, size: 0x8, addend: 0x0, symName: __ZNKSt3__16vectorINS_10shared_ptrIN7testing8internal26ParameterizedTestSuiteInfoIN12_GLOBAL__N_115CaesarDec_CleanEE8TestInfoEEENS_9allocatorIS9_EEE17__annotate_shrinkB8ne210108Em, symObjAddr: 0x57170, symBinAddr: 0x100058798, symSize: 0x1F0 }
  - { offset: 0x67BCB, size: 0x8, addend: 0x0, symName: __ZNKSt3__16vectorINS_10shared_ptrIN7testing8internal26ParameterizedTestSuiteInfoIN12_GLOBAL__N_115CaesarDec_CleanEE8TestInfoEEENS_9allocatorIS9_EEE11__recommendB8ne210108Em, symObjAddr: 0x57360, symBinAddr: 0x100058988, symSize: 0x374 }
  - { offset: 0x67C25, size: 0x8, addend: 0x0, symName: __ZNSt3__114__split_bufferINS_10shared_ptrIN7testing8internal26ParameterizedTestSuiteInfoIN12_GLOBAL__N_115CaesarDec_CleanEE8TestInfoEEERNS_9allocatorIS9_EEEC1EmmSC_, symObjAddr: 0x576D4, symBinAddr: 0x100058CFC, symSize: 0x7C }
  - { offset: 0x67C79, size: 0x8, addend: 0x0, symName: __ZNSt3__16vectorINS_10shared_ptrIN7testing8internal26ParameterizedTestSuiteInfoIN12_GLOBAL__N_115CaesarDec_CleanEE8TestInfoEEENS_9allocatorIS9_EEE26__swap_out_circular_bufferERNS_14__split_bufferIS9_RSB_EE, symObjAddr: 0x57750, symBinAddr: 0x100058D78, symSize: 0x668 }
  - { offset: 0x67CBD, size: 0x8, addend: 0x0, symName: __ZNSt3__114__split_bufferINS_10shared_ptrIN7testing8internal26ParameterizedTestSuiteInfoIN12_GLOBAL__N_115CaesarDec_CleanEE8TestInfoEEERNS_9allocatorIS9_EEED1Ev, symObjAddr: 0x57DB8, symBinAddr: 0x1000593E0, symSize: 0x64 }
  - { offset: 0x67CEB, size: 0x8, addend: 0x0, symName: __ZNKSt3__16vectorINS_10shared_ptrIN7testing8internal26ParameterizedTestSuiteInfoIN12_GLOBAL__N_115CaesarDec_CleanEE8TestInfoEEENS_9allocatorIS9_EEE8max_sizeB8ne210108Ev, symObjAddr: 0x57E1C, symBinAddr: 0x100059444, symSize: 0x2FC }
  - { offset: 0x67D12, size: 0x8, addend: 0x0, symName: __ZNSt3__16vectorINS_10shared_ptrIN7testing8internal26ParameterizedTestSuiteInfoIN12_GLOBAL__N_115CaesarDec_CleanEE8TestInfoEEENS_9allocatorIS9_EEE20__throw_length_errorB8ne210108Ev, symObjAddr: 0x58120, symBinAddr: 0x100059748, symSize: 0x34 }
  - { offset: 0x67D31, size: 0x8, addend: 0x0, symName: __ZNSt3__116allocator_traitsINS_9allocatorINS_10shared_ptrIN7testing8internal26ParameterizedTestSuiteInfoIN12_GLOBAL__N_115CaesarDec_CleanEE8TestInfoEEEEEE8max_sizeB8ne210108ISB_TnNS_9enable_ifIXnt16__has_max_size_vIKT_EEiE4typeELi0EEEmRKSB_, symObjAddr: 0x5815C, symBinAddr: 0x100059784, symSize: 0x54 }
  - { offset: 0x67D61, size: 0x8, addend: 0x0, symName: __ZNSt3__114__split_bufferINS_10shared_ptrIN7testing8internal26ParameterizedTestSuiteInfoIN12_GLOBAL__N_115CaesarDec_CleanEE8TestInfoEEERNS_9allocatorIS9_EEEC2EmmSC_, symObjAddr: 0x581B0, symBinAddr: 0x1000597D8, symSize: 0x654 }
  - { offset: 0x67DDA, size: 0x8, addend: 0x0, symName: __ZNSt3__19allocatorINS_10shared_ptrIN7testing8internal26ParameterizedTestSuiteInfoIN12_GLOBAL__N_115CaesarDec_CleanEE8TestInfoEEEE8allocateB8ne210108Em, symObjAddr: 0x5884C, symBinAddr: 0x100059E74, symSize: 0xB4 }
  - { offset: 0x67E0E, size: 0x8, addend: 0x0, symName: __ZNKSt3__16vectorINS_10shared_ptrIN7testing8internal26ParameterizedTestSuiteInfoIN12_GLOBAL__N_115CaesarDec_CleanEE8TestInfoEEENS_9allocatorIS9_EEE17__annotate_deleteB8ne210108Ev, symObjAddr: 0x589B8, symBinAddr: 0x100059FE0, symSize: 0x200 }
  - { offset: 0x67E34, size: 0x8, addend: 0x0, symName: __ZNKSt3__16vectorINS_10shared_ptrIN7testing8internal26ParameterizedTestSuiteInfoIN12_GLOBAL__N_115CaesarDec_CleanEE8TestInfoEEENS_9allocatorIS9_EEE14__annotate_newB8ne210108Em, symObjAddr: 0x58DE4, symBinAddr: 0x10005A40C, symSize: 0x1F0 }
  - { offset: 0x67E69, size: 0x8, addend: 0x0, symName: __ZNSt3__114__split_bufferINS_10shared_ptrIN7testing8internal26ParameterizedTestSuiteInfoIN12_GLOBAL__N_115CaesarDec_CleanEE8TestInfoEEERNS_9allocatorIS9_EEED2Ev, symObjAddr: 0x58FD4, symBinAddr: 0x10005A5FC, symSize: 0x170 }
  - { offset: 0x67E97, size: 0x8, addend: 0x0, symName: __ZNSt3__114__split_bufferINS_10shared_ptrIN7testing8internal26ParameterizedTestSuiteInfoIN12_GLOBAL__N_115CaesarDec_CleanEE8TestInfoEEERNS_9allocatorIS9_EEE5clearB8ne210108Ev, symObjAddr: 0x59144, symBinAddr: 0x10005A76C, symSize: 0xA4 }
  - { offset: 0x67EBD, size: 0x8, addend: 0x0, symName: __ZNSt3__116allocator_traitsINS_9allocatorINS_10shared_ptrIN7testing8internal26ParameterizedTestSuiteInfoIN12_GLOBAL__N_115CaesarDec_CleanEE8TestInfoEEEEEE10deallocateB8ne210108ERSB_PSA_m, symObjAddr: 0x591F0, symBinAddr: 0x10005A818, symSize: 0x34 }
  - { offset: 0x67EFF, size: 0x8, addend: 0x0, symName: __ZNKSt3__114__split_bufferINS_10shared_ptrIN7testing8internal26ParameterizedTestSuiteInfoIN12_GLOBAL__N_115CaesarDec_CleanEE8TestInfoEEERNS_9allocatorIS9_EEE8capacityB8ne210108Ev, symObjAddr: 0x59224, symBinAddr: 0x10005A84C, symSize: 0x120 }
  - { offset: 0x67F25, size: 0x8, addend: 0x0, symName: __ZNSt3__114__split_bufferINS_10shared_ptrIN7testing8internal26ParameterizedTestSuiteInfoIN12_GLOBAL__N_115CaesarDec_CleanEE8TestInfoEEERNS_9allocatorIS9_EEE17__destruct_at_endB8ne210108EPS9_, symObjAddr: 0x59344, symBinAddr: 0x10005A96C, symSize: 0x64 }
  - { offset: 0x67F59, size: 0x8, addend: 0x0, symName: __ZNSt3__114__split_bufferINS_10shared_ptrIN7testing8internal26ParameterizedTestSuiteInfoIN12_GLOBAL__N_115CaesarDec_CleanEE8TestInfoEEERNS_9allocatorIS9_EEE17__destruct_at_endB8ne210108EPS9_NS_17integral_constantIbLb0EEE, symObjAddr: 0x593A8, symBinAddr: 0x10005A9D0, symSize: 0x214 }
  - { offset: 0x67F98, size: 0x8, addend: 0x0, symName: __ZNSt3__116allocator_traitsINS_9allocatorINS_10shared_ptrIN7testing8internal26ParameterizedTestSuiteInfoIN12_GLOBAL__N_115CaesarDec_CleanEE8TestInfoEEEEEE7destroyB8ne210108ISA_TnNS_9enable_ifIXnt15__has_destroy_vISB_PT_EEiE4typeELi0EEEvRSB_SG_, symObjAddr: 0x595C4, symBinAddr: 0x10005ABEC, symSize: 0x28 }
  - { offset: 0x67FD7, size: 0x8, addend: 0x0, symName: __ZNSt3__110shared_ptrIN7testing8internal26ParameterizedTestSuiteInfoIN12_GLOBAL__N_115CaesarDec_CleanEE8TestInfoEED1B8ne210108Ev, symObjAddr: 0x59650, symBinAddr: 0x10005AC78, symSize: 0x64 }
  - { offset: 0x68005, size: 0x8, addend: 0x0, symName: __ZNSt3__110shared_ptrIN7testing8internal26ParameterizedTestSuiteInfoIN12_GLOBAL__N_115CaesarDec_CleanEE8TestInfoEED2B8ne210108Ev, symObjAddr: 0x596B4, symBinAddr: 0x10005ACDC, symSize: 0x128 }
  - { offset: 0x68033, size: 0x8, addend: 0x0, symName: __ZNSt3__119__shared_weak_count16__release_sharedB8ne210108Ev, symObjAddr: 0x597DC, symBinAddr: 0x10005AE04, symSize: 0x94 }
  - { offset: 0x68059, size: 0x8, addend: 0x0, symName: __ZNSt3__114__shared_count16__release_sharedB8ne210108Ev, symObjAddr: 0x59870, symBinAddr: 0x10005AE98, symSize: 0x160 }
  - { offset: 0x6807F, size: 0x8, addend: 0x0, symName: __ZNSt3__19allocatorINS_10shared_ptrIN7testing8internal26ParameterizedTestSuiteInfoIN12_GLOBAL__N_115CaesarDec_CleanEE8TestInfoEEEE10deallocateB8ne210108EPS9_m, symObjAddr: 0x59A50, symBinAddr: 0x10005B078, symSize: 0x58 }
  - { offset: 0x680C1, size: 0x8, addend: 0x0, symName: __ZN7testing8internal12CodeLocationC2EOS1_, symObjAddr: 0x59B24, symBinAddr: 0x10005B14C, symSize: 0x234 }
  - { offset: 0x680F7, size: 0x8, addend: 0x0, symName: __ZN7testing8internal26ParameterizedTestSuiteInfoIN12_GLOBAL__N_115CaesarDec_CleanEE8TestInfoC2EPKcPNS0_19TestMetaFactoryBaseINSt3__15tupleIJNS9_12basic_stringIcNS9_11char_traitsIcEENS9_9allocatorIcEEEESG_EEEEENS0_12CodeLocationE, symObjAddr: 0x59D58, symBinAddr: 0x10005B380, symSize: 0xD4 }
  - { offset: 0x6814F, size: 0x8, addend: 0x0, symName: __ZNSt3__110unique_ptrIN7testing8internal19TestMetaFactoryBaseINS_5tupleIJNS_12basic_stringIcNS_11char_traitsIcEENS_9allocatorIcEEEESA_EEEEENS_14default_deleteISC_EEEC1B8ne210108ILb1EvEEPSC_, symObjAddr: 0x59E2C, symBinAddr: 0x10005B454, symSize: 0x6C }
  - { offset: 0x68192, size: 0x8, addend: 0x0, symName: __ZNSt3__110unique_ptrIN7testing8internal19TestMetaFactoryBaseINS_5tupleIJNS_12basic_stringIcNS_11char_traitsIcEENS_9allocatorIcEEEESA_EEEEENS_14default_deleteISC_EEEC2B8ne210108ILb1EvEEPSC_, symObjAddr: 0x59E98, symBinAddr: 0x10005B4C0, symSize: 0xB8 }
  - { offset: 0x681D5, size: 0x8, addend: 0x0, symName: __ZN7testing8internal15TestMetaFactoryIN12_GLOBAL__N_125CaesarDec_Clean_Case_TestEEC2Ev, symObjAddr: 0x59F50, symBinAddr: 0x10005B578, symSize: 0xF8 }
  - { offset: 0x681FF, size: 0x8, addend: 0x0, symName: __ZN7testing8internal19TestMetaFactoryBaseINSt3__15tupleIJNS2_12basic_stringIcNS2_11char_traitsIcEENS2_9allocatorIcEEEES9_EEEEC2Ev, symObjAddr: 0x5A048, symBinAddr: 0x10005B670, symSize: 0xB4 }
  - { offset: 0x6822C, size: 0x8, addend: 0x0, symName: __ZN7testing8internal15TestMetaFactoryIN12_GLOBAL__N_125CaesarDec_Clean_Case_TestEED1Ev, symObjAddr: 0x5A0FC, symBinAddr: 0x10005B724, symSize: 0x64 }
  - { offset: 0x6825D, size: 0x8, addend: 0x0, symName: __ZN7testing8internal15TestMetaFactoryIN12_GLOBAL__N_125CaesarDec_Clean_Case_TestEED0Ev, symObjAddr: 0x5A160, symBinAddr: 0x10005B788, symSize: 0x68 }
  - { offset: 0x6828A, size: 0x8, addend: 0x0, symName: __ZN7testing8internal15TestMetaFactoryIN12_GLOBAL__N_125CaesarDec_Clean_Case_TestEE17CreateTestFactoryENSt3__15tupleIJNS5_12basic_stringIcNS5_11char_traitsIcEENS5_9allocatorIcEEEESC_EEE, symObjAddr: 0x5A1C8, symBinAddr: 0x10005B7F0, symSize: 0x3B4 }
  - { offset: 0x682C2, size: 0x8, addend: 0x0, symName: __ZN7testing8internal19TestMetaFactoryBaseINSt3__15tupleIJNS2_12basic_stringIcNS2_11char_traitsIcEENS2_9allocatorIcEEEES9_EEEED1Ev, symObjAddr: 0x5A57C, symBinAddr: 0x10005BBA4, symSize: 0x54 }
  - { offset: 0x682F0, size: 0x8, addend: 0x0, symName: __ZN7testing8internal19TestMetaFactoryBaseINSt3__15tupleIJNS2_12basic_stringIcNS2_11char_traitsIcEENS2_9allocatorIcEEEES9_EEEED0Ev, symObjAddr: 0x5A5D0, symBinAddr: 0x10005BBF8, symSize: 0x50 }
  - { offset: 0x6831A, size: 0x8, addend: 0x0, symName: __ZN7testing8internal15TestMetaFactoryIN12_GLOBAL__N_125CaesarDec_Clean_Case_TestEED2Ev, symObjAddr: 0x5A620, symBinAddr: 0x10005BC48, symSize: 0x64 }
  - { offset: 0x6834B, size: 0x8, addend: 0x0, symName: __ZN7testing8internal19TestMetaFactoryBaseINSt3__15tupleIJNS2_12basic_stringIcNS2_11char_traitsIcEENS2_9allocatorIcEEEES9_EEEED2Ev, symObjAddr: 0x5A684, symBinAddr: 0x10005BCAC, symSize: 0x5C }
  - { offset: 0x68379, size: 0x8, addend: 0x0, symName: __ZNSt3__15tupleIJNS_12basic_stringIcNS_11char_traitsIcEENS_9allocatorIcEEEES6_EEC1ERKS7_, symObjAddr: 0x5A6E0, symBinAddr: 0x10005BD08, symSize: 0x6C }
  - { offset: 0x683AE, size: 0x8, addend: 0x0, symName: __ZN7testing8internal24ParameterizedTestFactoryIN12_GLOBAL__N_125CaesarDec_Clean_Case_TestEEC1ENSt3__15tupleIJNS5_12basic_stringIcNS5_11char_traitsIcEENS5_9allocatorIcEEEESC_EEE, symObjAddr: 0x5A74C, symBinAddr: 0x10005BD74, symSize: 0x70 }
  - { offset: 0x683E8, size: 0x8, addend: 0x0, symName: __ZNSt3__15tupleIJNS_12basic_stringIcNS_11char_traitsIcEENS_9allocatorIcEEEES6_EED1Ev, symObjAddr: 0x5A7BC, symBinAddr: 0x10005BDE4, symSize: 0x64 }
  - { offset: 0x68419, size: 0x8, addend: 0x0, symName: __ZNSt3__15tupleIJNS_12basic_stringIcNS_11char_traitsIcEENS_9allocatorIcEEEES6_EEC2ERKS7_, symObjAddr: 0x5A820, symBinAddr: 0x10005BE48, symSize: 0xA4 }
  - { offset: 0x6844E, size: 0x8, addend: 0x0, symName: __ZNSt3__112__tuple_implINS_15__tuple_indicesIJLm0ELm1EEEEJNS_12basic_stringIcNS_11char_traitsIcEENS_9allocatorIcEEEES8_EEC1ERKS9_, symObjAddr: 0x5A8C4, symBinAddr: 0x10005BEEC, symSize: 0x6C }
  - { offset: 0x68483, size: 0x8, addend: 0x0, symName: __ZNSt3__112__tuple_implINS_15__tuple_indicesIJLm0ELm1EEEEJNS_12basic_stringIcNS_11char_traitsIcEENS_9allocatorIcEEEES8_EEC2ERKS9_, symObjAddr: 0x5A930, symBinAddr: 0x10005BF58, symSize: 0x1E4 }
  - { offset: 0x684B8, size: 0x8, addend: 0x0, symName: __ZNSt3__112__tuple_leafILm0ENS_12basic_stringIcNS_11char_traitsIcEENS_9allocatorIcEEEELb0EEC2B8ne210108ERKS7_, symObjAddr: 0x5AB14, symBinAddr: 0x10005C13C, symSize: 0xA4 }
  - { offset: 0x684F1, size: 0x8, addend: 0x0, symName: __ZNSt3__112__tuple_leafILm1ENS_12basic_stringIcNS_11char_traitsIcEENS_9allocatorIcEEEELb0EEC2B8ne210108ERKS7_, symObjAddr: 0x5ABB8, symBinAddr: 0x10005C1E0, symSize: 0xA4 }
  - { offset: 0x6852A, size: 0x8, addend: 0x0, symName: __ZNSt3__112__tuple_leafILm0ENS_12basic_stringIcNS_11char_traitsIcEENS_9allocatorIcEEEELb0EED2Ev, symObjAddr: 0x5AC5C, symBinAddr: 0x10005C284, symSize: 0x64 }
  - { offset: 0x6855B, size: 0x8, addend: 0x0, symName: __ZN7testing8internal24ParameterizedTestFactoryIN12_GLOBAL__N_125CaesarDec_Clean_Case_TestEEC2ENSt3__15tupleIJNS5_12basic_stringIcNS5_11char_traitsIcEENS5_9allocatorIcEEEESC_EEE, symObjAddr: 0x5ACC0, symBinAddr: 0x10005C2E8, symSize: 0x170 }
  - { offset: 0x68595, size: 0x8, addend: 0x0, symName: __ZN7testing8internal24ParameterizedTestFactoryIN12_GLOBAL__N_125CaesarDec_Clean_Case_TestEED1Ev, symObjAddr: 0x5AE30, symBinAddr: 0x10005C458, symSize: 0x64 }
  - { offset: 0x685C6, size: 0x8, addend: 0x0, symName: __ZN7testing8internal24ParameterizedTestFactoryIN12_GLOBAL__N_125CaesarDec_Clean_Case_TestEED0Ev, symObjAddr: 0x5AE94, symBinAddr: 0x10005C4BC, symSize: 0x68 }
  - { offset: 0x685F3, size: 0x8, addend: 0x0, symName: __ZN7testing8internal24ParameterizedTestFactoryIN12_GLOBAL__N_125CaesarDec_Clean_Case_TestEE10CreateTestEv, symObjAddr: 0x5AEFC, symBinAddr: 0x10005C524, symSize: 0x108 }
  - { offset: 0x68619, size: 0x8, addend: 0x0, symName: __ZN7testing8internal24ParameterizedTestFactoryIN12_GLOBAL__N_125CaesarDec_Clean_Case_TestEED2Ev, symObjAddr: 0x5B004, symBinAddr: 0x10005C62C, symSize: 0xC4 }
  - { offset: 0x6864A, size: 0x8, addend: 0x0, symName: __ZN7testing18WithParamInterfaceINSt3__15tupleIJNS1_12basic_stringIcNS1_11char_traitsIcEENS1_9allocatorIcEEEES8_EEEE8SetParamEPKS9_, symObjAddr: 0x5B0D0, symBinAddr: 0x10005C6F8, symSize: 0x20 }
  - { offset: 0x6866E, size: 0x8, addend: 0x0, symName: __ZN12_GLOBAL__N_125CaesarDec_Clean_Case_TestC1Ev, symObjAddr: 0x5B0F0, symBinAddr: 0x10005C718, symSize: 0x64 }
  - { offset: 0x68698, size: 0x8, addend: 0x0, symName: __ZN12_GLOBAL__N_125CaesarDec_Clean_Case_TestC2Ev, symObjAddr: 0x5B154, symBinAddr: 0x10005C77C, symSize: 0x134 }
  - { offset: 0x686C8, size: 0x8, addend: 0x0, symName: __ZN12_GLOBAL__N_115CaesarDec_CleanC2Ev, symObjAddr: 0x5B288, symBinAddr: 0x10005C8B0, symSize: 0x134 }
  - { offset: 0x686F4, size: 0x8, addend: 0x0, symName: __ZN12_GLOBAL__N_125CaesarDec_Clean_Case_TestD1Ev, symObjAddr: 0x5B3BC, symBinAddr: 0x10005C9E4, symSize: 0x64 }
  - { offset: 0x68724, size: 0x8, addend: 0x0, symName: __ZN12_GLOBAL__N_125CaesarDec_Clean_Case_TestD0Ev, symObjAddr: 0x5B420, symBinAddr: 0x10005CA48, symSize: 0x68 }
  - { offset: 0x68750, size: 0x8, addend: 0x0, symName: __ZN12_GLOBAL__N_125CaesarDec_Clean_Case_Test8TestBodyEv, symObjAddr: 0x5B488, symBinAddr: 0x10005CAB0, symSize: 0x734 }
  - { offset: 0x687C4, size: 0x8, addend: 0x0, symName: __ZThn16_N12_GLOBAL__N_125CaesarDec_Clean_Case_TestD1Ev, symObjAddr: 0x5BBBC, symBinAddr: 0x10005D1E4, symSize: 0x1C }
  - { offset: 0x687DA, size: 0x8, addend: 0x0, symName: __ZThn16_N12_GLOBAL__N_125CaesarDec_Clean_Case_TestD0Ev, symObjAddr: 0x5BBD8, symBinAddr: 0x10005D200, symSize: 0x18 }
  - { offset: 0x687F6, size: 0x8, addend: 0x0, symName: __ZN7testing13TestWithParamINSt3__15tupleIJNS1_12basic_stringIcNS1_11char_traitsIcEENS1_9allocatorIcEEEES8_EEEEC2Ev, symObjAddr: 0x5BBF0, symBinAddr: 0x10005D218, symSize: 0x180 }
  - { offset: 0x68823, size: 0x8, addend: 0x0, symName: __ZN12_GLOBAL__N_115CaesarDec_CleanD1Ev, symObjAddr: 0x5BD70, symBinAddr: 0x10005D398, symSize: 0x54 }
  - { offset: 0x68853, size: 0x8, addend: 0x0, symName: __ZN12_GLOBAL__N_115CaesarDec_CleanD0Ev, symObjAddr: 0x5BDC4, symBinAddr: 0x10005D3EC, symSize: 0x50 }
  - { offset: 0x6887F, size: 0x8, addend: 0x0, symName: __ZThn16_N12_GLOBAL__N_115CaesarDec_CleanD1Ev, symObjAddr: 0x5BE14, symBinAddr: 0x10005D43C, symSize: 0x1C }
  - { offset: 0x68895, size: 0x8, addend: 0x0, symName: __ZThn16_N12_GLOBAL__N_115CaesarDec_CleanD0Ev, symObjAddr: 0x5BE30, symBinAddr: 0x10005D458, symSize: 0x18 }
  - { offset: 0x688AB, size: 0x8, addend: 0x0, symName: __ZN7testing18WithParamInterfaceINSt3__15tupleIJNS1_12basic_stringIcNS1_11char_traitsIcEENS1_9allocatorIcEEEES8_EEEEC2Ev, symObjAddr: 0x5BE48, symBinAddr: 0x10005D470, symSize: 0xB4 }
  - { offset: 0x688D8, size: 0x8, addend: 0x0, symName: __ZN7testing13TestWithParamINSt3__15tupleIJNS1_12basic_stringIcNS1_11char_traitsIcEENS1_9allocatorIcEEEES8_EEEED1Ev, symObjAddr: 0x5BEFC, symBinAddr: 0x10005D524, symSize: 0x54 }
  - { offset: 0x68909, size: 0x8, addend: 0x0, symName: __ZN7testing13TestWithParamINSt3__15tupleIJNS1_12basic_stringIcNS1_11char_traitsIcEENS1_9allocatorIcEEEES8_EEEED0Ev, symObjAddr: 0x5BF50, symBinAddr: 0x10005D578, symSize: 0x50 }
  - { offset: 0x68936, size: 0x8, addend: 0x0, symName: __ZThn16_N7testing13TestWithParamINSt3__15tupleIJNS1_12basic_stringIcNS1_11char_traitsIcEENS1_9allocatorIcEEEES8_EEEED1Ev, symObjAddr: 0x5BFA0, symBinAddr: 0x10005D5C8, symSize: 0x1C }
  - { offset: 0x6894D, size: 0x8, addend: 0x0, symName: __ZThn16_N7testing13TestWithParamINSt3__15tupleIJNS1_12basic_stringIcNS1_11char_traitsIcEENS1_9allocatorIcEEEES8_EEEED0Ev, symObjAddr: 0x5BFBC, symBinAddr: 0x10005D5E4, symSize: 0x18 }
  - { offset: 0x68964, size: 0x8, addend: 0x0, symName: __ZN7testing18WithParamInterfaceINSt3__15tupleIJNS1_12basic_stringIcNS1_11char_traitsIcEENS1_9allocatorIcEEEES8_EEEED1Ev, symObjAddr: 0x5BFD4, symBinAddr: 0x10005D5FC, symSize: 0x64 }
  - { offset: 0x68992, size: 0x8, addend: 0x0, symName: __ZN7testing18WithParamInterfaceINSt3__15tupleIJNS1_12basic_stringIcNS1_11char_traitsIcEENS1_9allocatorIcEEEES8_EEEED0Ev, symObjAddr: 0x5C038, symBinAddr: 0x10005D660, symSize: 0x68 }
  - { offset: 0x689BC, size: 0x8, addend: 0x0, symName: __ZN7testing18WithParamInterfaceINSt3__15tupleIJNS1_12basic_stringIcNS1_11char_traitsIcEENS1_9allocatorIcEEEES8_EEEED2Ev, symObjAddr: 0x5C0A0, symBinAddr: 0x10005D6C8, symSize: 0x5C }
  - { offset: 0x689EA, size: 0x8, addend: 0x0, symName: __ZN12_GLOBAL__N_125CaesarDec_Clean_Case_TestD2Ev, symObjAddr: 0x5C0FC, symBinAddr: 0x10005D724, symSize: 0x64 }
  - { offset: 0x68A1A, size: 0x8, addend: 0x0, symName: __ZN12_GLOBAL__N_115CaesarDec_CleanD2Ev, symObjAddr: 0x5C160, symBinAddr: 0x10005D788, symSize: 0x64 }
  - { offset: 0x68A4A, size: 0x8, addend: 0x0, symName: __ZN7testing13TestWithParamINSt3__15tupleIJNS1_12basic_stringIcNS1_11char_traitsIcEENS1_9allocatorIcEEEES8_EEEED2Ev, symObjAddr: 0x5C1C4, symBinAddr: 0x10005D7EC, symSize: 0x70 }
  - { offset: 0x68A7B, size: 0x8, addend: 0x0, symName: __ZN7testing18WithParamInterfaceINSt3__15tupleIJNS1_12basic_stringIcNS1_11char_traitsIcEENS1_9allocatorIcEEEES8_EEEE8GetParamEv, symObjAddr: 0x5C23C, symBinAddr: 0x10005D864, symSize: 0x3B0 }
  - { offset: 0x68A9A, size: 0x8, addend: 0x0, symName: __ZNK7testing8internal29PredicateFormatterFromMatcherINS_18PolymorphicMatcherINS0_18StrEqualityMatcherINSt3__112basic_stringIcNS4_11char_traitsIcEENS4_9allocatorIcEEEEEEEEEclISA_EENS_15AssertionResultEPKcRKT_, symObjAddr: 0x5CDB4, symBinAddr: 0x10005E3DC, symSize: 0xB38 }
  - { offset: 0x68B24, size: 0x8, addend: 0x0, symName: __ZN7testing8internal29PredicateFormatterFromMatcherINS_18PolymorphicMatcherINS0_18StrEqualityMatcherINSt3__112basic_stringIcNS4_11char_traitsIcEENS4_9allocatorIcEEEEEEEEED1Ev, symObjAddr: 0x5D8EC, symBinAddr: 0x10005EF14, symSize: 0x64 }
  - { offset: 0x68B55, size: 0x8, addend: 0x0, symName: __ZN7testing18PolymorphicMatcherINS_8internal18StrEqualityMatcherINSt3__112basic_stringIcNS3_11char_traitsIcEENS3_9allocatorIcEEEEEEED1Ev, symObjAddr: 0x5D950, symBinAddr: 0x10005EF78, symSize: 0x64 }
  - { offset: 0x68B86, size: 0x8, addend: 0x0, symName: __ZNKSt3__112__tuple_leafILm0ENS_12basic_stringIcNS_11char_traitsIcEENS_9allocatorIcEEEELb0EE3getB8ne210108Ev, symObjAddr: 0x5D9B4, symBinAddr: 0x10005EFDC, symSize: 0x8C }
  - { offset: 0x68BAC, size: 0x8, addend: 0x0, symName: __ZNKSt3__112__tuple_leafILm1ENS_12basic_stringIcNS_11char_traitsIcEENS_9allocatorIcEEEELb0EE3getB8ne210108Ev, symObjAddr: 0x5DA40, symBinAddr: 0x10005F068, symSize: 0x8C }
  - { offset: 0x68BD8, size: 0x8, addend: 0x0, symName: __ZN7testing18PolymorphicMatcherINS_8internal18StrEqualityMatcherINSt3__112basic_stringIcNS3_11char_traitsIcEENS3_9allocatorIcEEEEEEEC1EOSB_, symObjAddr: 0x5DACC, symBinAddr: 0x10005F0F4, symSize: 0x6C }
  - { offset: 0x68C0E, size: 0x8, addend: 0x0, symName: __ZN7testing8internal29PredicateFormatterFromMatcherINS_18PolymorphicMatcherINS0_18StrEqualityMatcherINSt3__112basic_stringIcNS4_11char_traitsIcEENS4_9allocatorIcEEEEEEEEEC1ESC_, symObjAddr: 0x5DB38, symBinAddr: 0x10005F160, symSize: 0x70 }
  - { offset: 0x68C48, size: 0x8, addend: 0x0, symName: __ZN7testing18PolymorphicMatcherINS_8internal18StrEqualityMatcherINSt3__112basic_stringIcNS3_11char_traitsIcEENS3_9allocatorIcEEEEEEEC2EOSB_, symObjAddr: 0x5DBA8, symBinAddr: 0x10005F1D0, symSize: 0xD8 }
  - { offset: 0x68C84, size: 0x8, addend: 0x0, symName: __ZN7testing8internal18StrEqualityMatcherINSt3__112basic_stringIcNS2_11char_traitsIcEENS2_9allocatorIcEEEEEC1EOS9_, symObjAddr: 0x5DC80, symBinAddr: 0x10005F2A8, symSize: 0x6C }
  - { offset: 0x68CBA, size: 0x8, addend: 0x0, symName: __ZN7testing8internal18StrEqualityMatcherINSt3__112basic_stringIcNS2_11char_traitsIcEENS2_9allocatorIcEEEEEC2EOS9_, symObjAddr: 0x5DCEC, symBinAddr: 0x10005F314, symSize: 0xF0 }
  - { offset: 0x68CF0, size: 0x8, addend: 0x0, symName: __ZN7testing8internal29PredicateFormatterFromMatcherINS_18PolymorphicMatcherINS0_18StrEqualityMatcherINSt3__112basic_stringIcNS4_11char_traitsIcEENS4_9allocatorIcEEEEEEEEEC2ESC_, symObjAddr: 0x5DDDC, symBinAddr: 0x10005F404, symSize: 0xA4 }
  - { offset: 0x68D2A, size: 0x8, addend: 0x0, symName: __ZN7testing8internal18StrEqualityMatcherINSt3__112basic_stringIcNS2_11char_traitsIcEENS2_9allocatorIcEEEEEC1ES8_bb, symObjAddr: 0x5DF24, symBinAddr: 0x10005F54C, symSize: 0xD8 }
  - { offset: 0x68D82, size: 0x8, addend: 0x0, symName: __ZN7testing8internal18StrEqualityMatcherINSt3__112basic_stringIcNS2_11char_traitsIcEENS2_9allocatorIcEEEEED1Ev, symObjAddr: 0x5DFFC, symBinAddr: 0x10005F624, symSize: 0x64 }
  - { offset: 0x68DB3, size: 0x8, addend: 0x0, symName: __ZN7testing18PolymorphicMatcherINS_8internal18StrEqualityMatcherINSt3__112basic_stringIcNS3_11char_traitsIcEENS3_9allocatorIcEEEEEEEC1ERKSA_, symObjAddr: 0x5E060, symBinAddr: 0x10005F688, symSize: 0x6C }
  - { offset: 0x68DEC, size: 0x8, addend: 0x0, symName: __ZN7testing18PolymorphicMatcherINS_8internal18StrEqualityMatcherINSt3__112basic_stringIcNS3_11char_traitsIcEENS3_9allocatorIcEEEEEEEC2ERKSA_, symObjAddr: 0x5E0CC, symBinAddr: 0x10005F6F4, symSize: 0xA4 }
  - { offset: 0x68E25, size: 0x8, addend: 0x0, symName: __ZN7testing8internal18StrEqualityMatcherINSt3__112basic_stringIcNS2_11char_traitsIcEENS2_9allocatorIcEEEEEC1ERKS9_, symObjAddr: 0x5E170, symBinAddr: 0x10005F798, symSize: 0x6C }
  - { offset: 0x68E5B, size: 0x8, addend: 0x0, symName: __ZN7testing8internal18StrEqualityMatcherINSt3__112basic_stringIcNS2_11char_traitsIcEENS2_9allocatorIcEEEEEC2ERKS9_, symObjAddr: 0x5E1DC, symBinAddr: 0x10005F804, symSize: 0xBC }
  - { offset: 0x68E91, size: 0x8, addend: 0x0, symName: __ZN7testing8internal18StrEqualityMatcherINSt3__112basic_stringIcNS2_11char_traitsIcEENS2_9allocatorIcEEEEEC2ES8_bb, symObjAddr: 0x5E298, symBinAddr: 0x10005F8C0, symSize: 0x1EC }
  - { offset: 0x68EE9, size: 0x8, addend: 0x0, symName: __ZN7testing8internal18StrEqualityMatcherINSt3__112basic_stringIcNS2_11char_traitsIcEENS2_9allocatorIcEEEEED2Ev, symObjAddr: 0x5E484, symBinAddr: 0x10005FAAC, symSize: 0x64 }
  - { offset: 0x68F20, size: 0x8, addend: 0x0, symName: __ZN7testing8internal15MatcherCastImplIRKNSt3__112basic_stringIcNS2_11char_traitsIcEENS2_9allocatorIcEEEENS_18PolymorphicMatcherINS0_18StrEqualityMatcherIS8_EEEEE4CastERKSE_, symObjAddr: 0x5EEDC, symBinAddr: 0x100060504, symSize: 0x68 }
  - { offset: 0x68F44, size: 0x8, addend: 0x0, symName: __ZN7testing8internal15MatcherCastImplIRKNSt3__112basic_stringIcNS2_11char_traitsIcEENS2_9allocatorIcEEEENS_18PolymorphicMatcherINS0_18StrEqualityMatcherIS8_EEEEE8CastImplILb0EEENS_7MatcherISA_EERKSE_NS2_17integral_constantIbLb1EEENSL_IbXT_EEE, symObjAddr: 0x5EF4C, symBinAddr: 0x100060574, symSize: 0x58 }
  - { offset: 0x68F88, size: 0x8, addend: 0x0, symName: __ZNK7testing18PolymorphicMatcherINS_8internal18StrEqualityMatcherINSt3__112basic_stringIcNS3_11char_traitsIcEENS3_9allocatorIcEEEEEEEcvNS_7MatcherIT_EEIRKS9_EEv, symObjAddr: 0x5EFA4, symBinAddr: 0x1000605CC, symSize: 0x178 }
  - { offset: 0x68FB7, size: 0x8, addend: 0x0, symName: __ZN7testing18PolymorphicMatcherINS_8internal18StrEqualityMatcherINSt3__112basic_stringIcNS3_11char_traitsIcEENS3_9allocatorIcEEEEEEE15MonomorphicImplIRKS9_EC1ERKSA_, symObjAddr: 0x5F11C, symBinAddr: 0x100060744, symSize: 0x6C }
  - { offset: 0x68FF0, size: 0x8, addend: 0x0, symName: __ZN7testing7MatcherIRKNSt3__112basic_stringIcNS1_11char_traitsIcEENS1_9allocatorIcEEEEEC1EPKNS_16MatcherInterfaceIS9_EE, symObjAddr: 0x5F188, symBinAddr: 0x1000607B0, symSize: 0x6C }
  - { offset: 0x69029, size: 0x8, addend: 0x0, symName: __ZN7testing18PolymorphicMatcherINS_8internal18StrEqualityMatcherINSt3__112basic_stringIcNS3_11char_traitsIcEENS3_9allocatorIcEEEEEEE15MonomorphicImplIRKS9_EC2ERKSA_, symObjAddr: 0x5F1F4, symBinAddr: 0x10006081C, symSize: 0x170 }
  - { offset: 0x69068, size: 0x8, addend: 0x0, symName: __ZN7testing16MatcherInterfaceIRKNSt3__112basic_stringIcNS1_11char_traitsIcEENS1_9allocatorIcEEEEEC2Ev, symObjAddr: 0x5F364, symBinAddr: 0x10006098C, symSize: 0xF8 }
  - { offset: 0x69094, size: 0x8, addend: 0x0, symName: __ZN7testing16MatcherInterfaceIRKNSt3__112basic_stringIcNS1_11char_traitsIcEENS1_9allocatorIcEEEEED2Ev, symObjAddr: 0x5F45C, symBinAddr: 0x100060A84, symSize: 0x64 }
  - { offset: 0x690C4, size: 0x8, addend: 0x0, symName: __ZN7testing18PolymorphicMatcherINS_8internal18StrEqualityMatcherINSt3__112basic_stringIcNS3_11char_traitsIcEENS3_9allocatorIcEEEEEEE15MonomorphicImplIRKS9_ED1Ev, symObjAddr: 0x5F4C0, symBinAddr: 0x100060AE8, symSize: 0x64 }
  - { offset: 0x690F5, size: 0x8, addend: 0x0, symName: __ZN7testing18PolymorphicMatcherINS_8internal18StrEqualityMatcherINSt3__112basic_stringIcNS3_11char_traitsIcEENS3_9allocatorIcEEEEEEE15MonomorphicImplIRKS9_ED0Ev, symObjAddr: 0x5F524, symBinAddr: 0x100060B4C, symSize: 0x68 }
  - { offset: 0x69122, size: 0x8, addend: 0x0, symName: __ZNK7testing18PolymorphicMatcherINS_8internal18StrEqualityMatcherINSt3__112basic_stringIcNS3_11char_traitsIcEENS3_9allocatorIcEEEEEEE15MonomorphicImplIRKS9_E10DescribeToEPNS3_13basic_ostreamIcS6_EE, symObjAddr: 0x5F58C, symBinAddr: 0x100060BB4, symSize: 0xA8 }
  - { offset: 0x69157, size: 0x8, addend: 0x0, symName: __ZNK7testing18PolymorphicMatcherINS_8internal18StrEqualityMatcherINSt3__112basic_stringIcNS3_11char_traitsIcEENS3_9allocatorIcEEEEEEE15MonomorphicImplIRKS9_E18DescribeNegationToEPNS3_13basic_ostreamIcS6_EE, symObjAddr: 0x5F634, symBinAddr: 0x100060C5C, symSize: 0xA8 }
  - { offset: 0x6918C, size: 0x8, addend: 0x0, symName: __ZNK7testing18PolymorphicMatcherINS_8internal18StrEqualityMatcherINSt3__112basic_stringIcNS3_11char_traitsIcEENS3_9allocatorIcEEEEEEE15MonomorphicImplIRKS9_E15MatchAndExplainESE_PNS_19MatchResultListenerE, symObjAddr: 0x5F6DC, symBinAddr: 0x100060D04, symSize: 0xE8 }
  - { offset: 0x691D0, size: 0x8, addend: 0x0, symName: __ZN7testing16MatcherInterfaceIRKNSt3__112basic_stringIcNS1_11char_traitsIcEENS1_9allocatorIcEEEEED1Ev, symObjAddr: 0x5F7C4, symBinAddr: 0x100060DEC, symSize: 0x54 }
  - { offset: 0x69200, size: 0x8, addend: 0x0, symName: __ZN7testing16MatcherInterfaceIRKNSt3__112basic_stringIcNS1_11char_traitsIcEENS1_9allocatorIcEEEEED0Ev, symObjAddr: 0x5F818, symBinAddr: 0x100060E40, symSize: 0x50 }
  - { offset: 0x6922C, size: 0x8, addend: 0x0, symName: __ZN7testing18PolymorphicMatcherINS_8internal18StrEqualityMatcherINSt3__112basic_stringIcNS3_11char_traitsIcEENS3_9allocatorIcEEEEEEE15MonomorphicImplIRKS9_ED2Ev, symObjAddr: 0x5F868, symBinAddr: 0x100060E90, symSize: 0xC4 }
  - { offset: 0x6925D, size: 0x8, addend: 0x0, symName: __ZNK7testing8internal18StrEqualityMatcherINSt3__112basic_stringIcNS2_11char_traitsIcEENS2_9allocatorIcEEEEE10DescribeToEPNS2_13basic_ostreamIcS5_EE, symObjAddr: 0x5F92C, symBinAddr: 0x100060F54, symSize: 0xFC }
  - { offset: 0x69292, size: 0x8, addend: 0x0, symName: __ZNK7testing8internal18StrEqualityMatcherINSt3__112basic_stringIcNS2_11char_traitsIcEENS2_9allocatorIcEEEEE16DescribeToHelperEbPNS2_13basic_ostreamIcS5_EE, symObjAddr: 0x5FA28, symBinAddr: 0x100061050, symSize: 0x25C }
  - { offset: 0x692D6, size: 0x8, addend: 0x0, symName: __ZNK7testing8internal18StrEqualityMatcherINSt3__112basic_stringIcNS2_11char_traitsIcEENS2_9allocatorIcEEEEE18DescribeNegationToEPNS2_13basic_ostreamIcS5_EE, symObjAddr: 0x5FC84, symBinAddr: 0x1000612AC, symSize: 0x100 }
  - { offset: 0x6930B, size: 0x8, addend: 0x0, symName: __ZNK7testing8internal18StrEqualityMatcherINSt3__112basic_stringIcNS2_11char_traitsIcEENS2_9allocatorIcEEEEE15MatchAndExplainIS8_EEbRKT_PNS_19MatchResultListenerE, symObjAddr: 0x5FD84, symBinAddr: 0x1000613AC, symSize: 0x524 }
  - { offset: 0x6937A, size: 0x8, addend: 0x0, symName: __ZNKSt3__112basic_stringIcNS_11char_traitsIcEENS_9allocatorIcEEE6substrB8ne210108Emm, symObjAddr: 0x6099C, symBinAddr: 0x100061FC4, symSize: 0x290 }
  - { offset: 0x693C1, size: 0x8, addend: 0x0, symName: __ZN7testing7MatcherIRKNSt3__112basic_stringIcNS1_11char_traitsIcEENS1_9allocatorIcEEEEEC2EPKNS_16MatcherInterfaceIS9_EE, symObjAddr: 0x60C2C, symBinAddr: 0x100062254, symSize: 0x108 }
  - { offset: 0x693FA, size: 0x8, addend: 0x0, symName: __ZN7testing8internal11MatcherBaseIRKNSt3__112basic_stringIcNS2_11char_traitsIcEENS2_9allocatorIcEEEEEC2ISA_EEPKNS_16MatcherInterfaceIT_EE, symObjAddr: 0x60D34, symBinAddr: 0x10006235C, symSize: 0x340 }
  - { offset: 0x69447, size: 0x8, addend: 0x0, symName: __ZN7testing8internal11MatcherBaseIRKNSt3__112basic_stringIcNS2_11char_traitsIcEENS2_9allocatorIcEEEEE4InitIRPKNS_16MatcherInterfaceISA_EEEEvOT_, symObjAddr: 0x61074, symBinAddr: 0x10006269C, symSize: 0x164 }
  - { offset: 0x69485, size: 0x8, addend: 0x0, symName: __ZN7testing8internal11MatcherBaseIRKNSt3__112basic_stringIcNS2_11char_traitsIcEENS2_9allocatorIcEEEEE11ValuePolicyIPKNS_16MatcherInterfaceISA_EELb1EE4InitERSB_SG_, symObjAddr: 0x6123C, symBinAddr: 0x100062864, symSize: 0x3B4 }
  - { offset: 0x694BA, size: 0x8, addend: 0x0, symName: __ZN7testing8internal11MatcherBaseIRKNSt3__112basic_stringIcNS2_11char_traitsIcEENS2_9allocatorIcEEEEE19MatchAndExplainImplINSB_11ValuePolicyIPKNS_16MatcherInterfaceISA_EELb1EEEEEDTcldtclsrT_3Getfp_E15MatchAndExplainfp0_fp1_EERKSB_SA_PNS_19MatchResultListenerE, symObjAddr: 0x615F8, symBinAddr: 0x100062C20, symSize: 0x164 }
  - { offset: 0x69505, size: 0x8, addend: 0x0, symName: __ZN7testing8internal11MatcherBaseIRKNSt3__112basic_stringIcNS2_11char_traitsIcEENS2_9allocatorIcEEEEE12DescribeImplINSB_11ValuePolicyIPKNS_16MatcherInterfaceISA_EELb1EEEEEvRKSB_PNS2_13basic_ostreamIcS5_EEb, symObjAddr: 0x61764, symBinAddr: 0x100062D8C, symSize: 0x2A8 }
  - { offset: 0x69550, size: 0x8, addend: 0x0, symName: __ZN7testing8internal11MatcherBaseIRKNSt3__112basic_stringIcNS2_11char_traitsIcEENS2_9allocatorIcEEEEE16GetDescriberImplINSB_11ValuePolicyIPKNS_16MatcherInterfaceISA_EELb1EEEEEPKNS_25MatcherDescriberInterfaceERKSB_, symObjAddr: 0x61A14, symBinAddr: 0x10006303C, symSize: 0x31C }
  - { offset: 0x6957E, size: 0x8, addend: 0x0, symName: __ZN7testing8internal13SharedPayloadINSt3__110unique_ptrIKNS_16MatcherInterfaceIRKNS2_12basic_stringIcNS2_11char_traitsIcEENS2_9allocatorIcEEEEEENS2_14default_deleteISE_EEEEE7DestroyEPNS0_17SharedPayloadBaseE, symObjAddr: 0x61D38, symBinAddr: 0x100063360, symSize: 0xAC }
  - { offset: 0x695A1, size: 0x8, addend: 0x0, symName: __ZN7testing8internal11MatcherBaseIRKNSt3__112basic_stringIcNS2_11char_traitsIcEENS2_9allocatorIcEEEEE11ValuePolicyIPKNS_16MatcherInterfaceISA_EELb1EE3GetERKSB_, symObjAddr: 0x61DEC, symBinAddr: 0x100063414, symSize: 0x1BC }
  - { offset: 0x695C5, size: 0x8, addend: 0x0, symName: __ZNKSt3__110unique_ptrIKN7testing16MatcherInterfaceIRKNS_12basic_stringIcNS_11char_traitsIcEENS_9allocatorIcEEEEEENS_14default_deleteISC_EEEdeB8ne210108Ev, symObjAddr: 0x61FA8, symBinAddr: 0x1000635D0, symSize: 0x110 }
  - { offset: 0x69619, size: 0x8, addend: 0x0, symName: __ZNSt3__112__tuple_leafILm1EPKN7testing16MatcherInterfaceIRKNS_12basic_stringIcNS_11char_traitsIcEENS_9allocatorIcEEEEEELb0EE3getB8ne210108Ev, symObjAddr: 0x623C0, symBinAddr: 0x1000639E8, symSize: 0x8C }
  - { offset: 0x696C5, size: 0x8, addend: 0x0, symName: __ZNSt3__15tupleIJPKN7testing8internal11MatcherBaseIRKNS_12basic_stringIcNS_11char_traitsIcEENS_9allocatorIcEEEEEEPKNS1_16MatcherInterfaceISB_EEEEC1B8ne210108IJSE_SI_ETnNS_9enable_ifIXsr4_AndINS_17integral_constantIbXeqsZT_sZT_EEENSJ_17_EnableUTypesCtorIJDpT_EEEEE5valueEiE4typeELi0EEEDpOSP_, symObjAddr: 0x6244C, symBinAddr: 0x100063A74, symSize: 0x74 }
  - { offset: 0x69724, size: 0x8, addend: 0x0, symName: __ZNSt3__15tupleIJPKN7testing8internal11MatcherBaseIRKNS_12basic_stringIcNS_11char_traitsIcEENS_9allocatorIcEEEEEEPKNS1_16MatcherInterfaceISB_EEEEC2B8ne210108IJSE_SI_ETnNS_9enable_ifIXsr4_AndINS_17integral_constantIbXeqsZT_sZT_EEENSJ_17_EnableUTypesCtorIJDpT_EEEEE5valueEiE4typeELi0EEEDpOSP_, symObjAddr: 0x624C0, symBinAddr: 0x100063AE8, symSize: 0xE4 }
  - { offset: 0x69783, size: 0x8, addend: 0x0, symName: __ZNSt3__112__tuple_implINS_15__tuple_indicesIJLm0ELm1EEEEJPKN7testing8internal11MatcherBaseIRKNS_12basic_stringIcNS_11char_traitsIcEENS_9allocatorIcEEEEEEPKNS3_16MatcherInterfaceISD_EEEEC1B8ne210108IJLm0ELm1EEJSG_SK_ETpTnmJEJEJSG_SK_EEENS1_IJXspT_EEEENS_13__tuple_typesIJDpT0_EEENS1_IJXspT1_EEEENSO_IJDpT2_EEEDpOT3_, symObjAddr: 0x625A4, symBinAddr: 0x100063BCC, symSize: 0x74 }
  - { offset: 0x69835, size: 0x8, addend: 0x0, symName: __ZNSt3__112__tuple_implINS_15__tuple_indicesIJLm0ELm1EEEEJPKN7testing8internal11MatcherBaseIRKNS_12basic_stringIcNS_11char_traitsIcEENS_9allocatorIcEEEEEEPKNS3_16MatcherInterfaceISD_EEEEC2B8ne210108IJLm0ELm1EEJSG_SK_ETpTnmJEJEJSG_SK_EEENS1_IJXspT_EEEENS_13__tuple_typesIJDpT0_EEENS1_IJXspT1_EEEENSO_IJDpT2_EEEDpOT3_, symObjAddr: 0x62618, symBinAddr: 0x100063C40, symSize: 0x168 }
  - { offset: 0x698E7, size: 0x8, addend: 0x0, symName: __ZNSt3__112__tuple_leafILm0EPKN7testing8internal11MatcherBaseIRKNS_12basic_stringIcNS_11char_traitsIcEENS_9allocatorIcEEEEEELb0EEC2B8ne210108ISE_TnNS_9enable_ifIXsr4_AndINS_17integral_constantIbXntu9__is_sameu14__remove_cvrefIT_ESF_EEEENS_16is_constructibleISE_JSJ_EEEEE5valueEiE4typeELi0EEEOSJ_, symObjAddr: 0x62780, symBinAddr: 0x100063DA8, symSize: 0x124 }
  - { offset: 0x69930, size: 0x8, addend: 0x0, symName: __ZNSt3__112__tuple_leafILm1EPKN7testing16MatcherInterfaceIRKNS_12basic_stringIcNS_11char_traitsIcEENS_9allocatorIcEEEEEELb0EEC2B8ne210108ISD_TnNS_9enable_ifIXsr4_AndINS_17integral_constantIbXntu9__is_sameu14__remove_cvrefIT_ESE_EEEENS_16is_constructibleISD_JSI_EEEEE5valueEiE4typeELi0EEEOSI_, symObjAddr: 0x628A4, symBinAddr: 0x100063ECC, symSize: 0x124 }
  - { offset: 0x69979, size: 0x8, addend: 0x0, symName: __ZN7testing8internal13SharedPayloadINSt3__110unique_ptrIKNS_16MatcherInterfaceIRKNS2_12basic_stringIcNS2_11char_traitsIcEENS2_9allocatorIcEEEEEENS2_14default_deleteISE_EEEEED1Ev, symObjAddr: 0x629C8, symBinAddr: 0x100063FF0, symSize: 0x64 }
  - { offset: 0x699A9, size: 0x8, addend: 0x0, symName: __ZN7testing8internal13SharedPayloadINSt3__110unique_ptrIKNS_16MatcherInterfaceIRKNS2_12basic_stringIcNS2_11char_traitsIcEENS2_9allocatorIcEEEEEENS2_14default_deleteISE_EEEEED2Ev, symObjAddr: 0x62A2C, symBinAddr: 0x100064054, symSize: 0x68 }
  - { offset: 0x699D9, size: 0x8, addend: 0x0, symName: __ZNSt3__110unique_ptrIKN7testing16MatcherInterfaceIRKNS_12basic_stringIcNS_11char_traitsIcEENS_9allocatorIcEEEEEENS_14default_deleteISC_EEED1B8ne210108Ev, symObjAddr: 0x62A94, symBinAddr: 0x1000640BC, symSize: 0x64 }
  - { offset: 0x69A07, size: 0x8, addend: 0x0, symName: __ZNSt3__110unique_ptrIKN7testing16MatcherInterfaceIRKNS_12basic_stringIcNS_11char_traitsIcEENS_9allocatorIcEEEEEENS_14default_deleteISC_EEED2B8ne210108Ev, symObjAddr: 0x62AF8, symBinAddr: 0x100064120, symSize: 0x68 }
  - { offset: 0x69A35, size: 0x8, addend: 0x0, symName: __ZNSt3__110unique_ptrIKN7testing16MatcherInterfaceIRKNS_12basic_stringIcNS_11char_traitsIcEENS_9allocatorIcEEEEEENS_14default_deleteISC_EEE5resetB8ne210108EPSC_, symObjAddr: 0x62B60, symBinAddr: 0x100064188, symSize: 0x190 }
  - { offset: 0x69A79, size: 0x8, addend: 0x0, symName: __ZNKSt3__114default_deleteIKN7testing16MatcherInterfaceIRKNS_12basic_stringIcNS_11char_traitsIcEENS_9allocatorIcEEEEEEEclB8ne210108EPSC_, symObjAddr: 0x62CF0, symBinAddr: 0x100064318, symSize: 0x110 }
  - { offset: 0x69AAD, size: 0x8, addend: 0x0, symName: __ZNSt3__110unique_ptrIKN7testing16MatcherInterfaceIRKNS_12basic_stringIcNS_11char_traitsIcEENS_9allocatorIcEEEEEENS_14default_deleteISC_EEEC1B8ne210108ILb1EvEEPSC_, symObjAddr: 0x62E00, symBinAddr: 0x100064428, symSize: 0x6C }
  - { offset: 0x69AF0, size: 0x8, addend: 0x0, symName: __ZN7testing8internal13SharedPayloadINSt3__110unique_ptrIKNS_16MatcherInterfaceIRKNS2_12basic_stringIcNS2_11char_traitsIcEENS2_9allocatorIcEEEEEENS2_14default_deleteISE_EEEEEC1EOSH_, symObjAddr: 0x62E6C, symBinAddr: 0x100064494, symSize: 0x6C }
  - { offset: 0x69B28, size: 0x8, addend: 0x0, symName: __ZNSt3__110unique_ptrIKN7testing16MatcherInterfaceIRKNS_12basic_stringIcNS_11char_traitsIcEENS_9allocatorIcEEEEEENS_14default_deleteISC_EEEC2B8ne210108ILb1EvEEPSC_, symObjAddr: 0x62ED8, symBinAddr: 0x100064500, symSize: 0xB8 }
  - { offset: 0x69B6B, size: 0x8, addend: 0x0, symName: __ZN7testing8internal13SharedPayloadINSt3__110unique_ptrIKNS_16MatcherInterfaceIRKNS2_12basic_stringIcNS2_11char_traitsIcEENS2_9allocatorIcEEEEEENS2_14default_deleteISE_EEEEEC2EOSH_, symObjAddr: 0x62F90, symBinAddr: 0x1000645B8, symSize: 0xEC }
  - { offset: 0x69BA3, size: 0x8, addend: 0x0, symName: __ZNSt3__110unique_ptrIKN7testing16MatcherInterfaceIRKNS_12basic_stringIcNS_11char_traitsIcEENS_9allocatorIcEEEEEENS_14default_deleteISC_EEEC1B8ne210108EOSF_, symObjAddr: 0x6307C, symBinAddr: 0x1000646A4, symSize: 0x6C }
  - { offset: 0x69BDB, size: 0x8, addend: 0x0, symName: __ZNSt3__110unique_ptrIKN7testing16MatcherInterfaceIRKNS_12basic_stringIcNS_11char_traitsIcEENS_9allocatorIcEEEEEENS_14default_deleteISC_EEEC2B8ne210108EOSF_, symObjAddr: 0x630E8, symBinAddr: 0x100064710, symSize: 0x114 }
  - { offset: 0x69C13, size: 0x8, addend: 0x0, symName: __ZNSt3__110unique_ptrIKN7testing16MatcherInterfaceIRKNS_12basic_stringIcNS_11char_traitsIcEENS_9allocatorIcEEEEEENS_14default_deleteISC_EEE7releaseB8ne210108Ev, symObjAddr: 0x631FC, symBinAddr: 0x100064824, symSize: 0x148 }
  - { offset: 0x69C48, size: 0x8, addend: 0x0, symName: __ZNSt3__110unique_ptrIKN7testing16MatcherInterfaceIRKNS_12basic_stringIcNS_11char_traitsIcEENS_9allocatorIcEEEEEENS_14default_deleteISC_EEE11get_deleterB8ne210108Ev, symObjAddr: 0x63344, symBinAddr: 0x10006496C, symSize: 0x78 }
  - { offset: 0x69C6E, size: 0x8, addend: 0x0, symName: __ZN7testing8internal29PredicateFormatterFromMatcherINS_18PolymorphicMatcherINS0_18StrEqualityMatcherINSt3__112basic_stringIcNS4_11char_traitsIcEENS4_9allocatorIcEEEEEEEEED2Ev, symObjAddr: 0x633F0, symBinAddr: 0x100064A18, symSize: 0x64 }
  - { offset: 0x69C9F, size: 0x8, addend: 0x0, symName: __ZN7testing18PolymorphicMatcherINS_8internal18StrEqualityMatcherINSt3__112basic_stringIcNS3_11char_traitsIcEENS3_9allocatorIcEEEEEEED2Ev, symObjAddr: 0x63454, symBinAddr: 0x100064A7C, symSize: 0x64 }
  - { offset: 0x69CD0, size: 0x8, addend: 0x0, symName: __ZNSt3__15tupleIJNS_12basic_stringIcNS_11char_traitsIcEENS_9allocatorIcEEEES6_EED2Ev, symObjAddr: 0x634B8, symBinAddr: 0x100064AE0, symSize: 0x64 }
  - { offset: 0x69D01, size: 0x8, addend: 0x0, symName: __ZNSt3__112__tuple_implINS_15__tuple_indicesIJLm0ELm1EEEEJNS_12basic_stringIcNS_11char_traitsIcEENS_9allocatorIcEEEES8_EED1Ev, symObjAddr: 0x6351C, symBinAddr: 0x100064B44, symSize: 0x64 }
  - { offset: 0x69D32, size: 0x8, addend: 0x0, symName: __ZNSt3__112__tuple_implINS_15__tuple_indicesIJLm0ELm1EEEEJNS_12basic_stringIcNS_11char_traitsIcEENS_9allocatorIcEEEES8_EED2Ev, symObjAddr: 0x63580, symBinAddr: 0x100064BA8, symSize: 0x70 }
  - { offset: 0x69D63, size: 0x8, addend: 0x0, symName: __ZNSt3__112__tuple_leafILm1ENS_12basic_stringIcNS_11char_traitsIcEENS_9allocatorIcEEEELb0EED2Ev, symObjAddr: 0x635F0, symBinAddr: 0x100064C18, symSize: 0x64 }
  - { offset: 0x69D9A, size: 0x8, addend: 0x0, symName: __ZNK7testing8internal10ValueArrayIJNSt3__15tupleIJPKcS5_EEES6_S6_S6_EEcvNS0_14ParamGeneratorIT_EEINS3_IJNS2_12basic_stringIcNS2_11char_traitsIcEENS2_9allocatorIcEEEESH_EEEEEv, symObjAddr: 0x64000, symBinAddr: 0x100065628, symSize: 0x2F0 }
  - { offset: 0x69DCA, size: 0x8, addend: 0x0, symName: __ZN7testing8internal10ValueArrayIJNSt3__15tupleIJPKcS5_EEES6_S6_S6_EEC1ES6_S6_S6_S6_, symObjAddr: 0x642F0, symBinAddr: 0x100065918, symSize: 0xB8 }
  - { offset: 0x69E30, size: 0x8, addend: 0x0, symName: __ZN7testing8internal10ValueArrayIJNSt3__15tupleIJPKcS5_EEES6_S6_S6_EEC2ES6_S6_S6_S6_, symObjAddr: 0x643A8, symBinAddr: 0x1000659D0, symSize: 0x2D0 }
  - { offset: 0x69EA8, size: 0x8, addend: 0x0, symName: __ZN7testing8internal9FlatTupleIJNSt3__15tupleIJPKcS5_EEES6_S6_S6_EEC1IJS6_S6_S6_S6_EEENS0_21FlatTupleConstructTagEDpOT_, symObjAddr: 0x64678, symBinAddr: 0x100065CA0, symSize: 0x84 }
  - { offset: 0x69F37, size: 0x8, addend: 0x0, symName: __ZN7testing8internal9FlatTupleIJNSt3__15tupleIJPKcS5_EEES6_S6_S6_EEC2IJS6_S6_S6_S6_EEENS0_21FlatTupleConstructTagEDpOT_, symObjAddr: 0x646FC, symBinAddr: 0x100065D24, symSize: 0x198 }
  - { offset: 0x69FC6, size: 0x8, addend: 0x0, symName: __ZN7testing8internal13FlatTupleBaseINS0_9FlatTupleIJNSt3__15tupleIJPKcS6_EEES7_S7_S7_EEENS3_16integer_sequenceImJLm0ELm1ELm2ELm3EEEEEC2IJS7_S7_S7_S7_EEENS0_21FlatTupleConstructTagEDpOT_, symObjAddr: 0x64894, symBinAddr: 0x100065EBC, symSize: 0x288 }
  - { offset: 0x6A051, size: 0x8, addend: 0x0, symName: __ZN7testing8internal17FlatTupleElemBaseINS0_9FlatTupleIJNSt3__15tupleIJPKcS6_EEES7_S7_S7_EEELm0EEC2IS7_EENS0_21FlatTupleConstructTagEOT_, symObjAddr: 0x64B1C, symBinAddr: 0x100066144, symSize: 0x70 }
  - { offset: 0x6A09E, size: 0x8, addend: 0x0, symName: __ZN7testing8internal17FlatTupleElemBaseINS0_9FlatTupleIJNSt3__15tupleIJPKcS6_EEES7_S7_S7_EEELm1EEC2IS7_EENS0_21FlatTupleConstructTagEOT_, symObjAddr: 0x64B8C, symBinAddr: 0x1000661B4, symSize: 0x70 }
  - { offset: 0x6A0EB, size: 0x8, addend: 0x0, symName: __ZN7testing8internal17FlatTupleElemBaseINS0_9FlatTupleIJNSt3__15tupleIJPKcS6_EEES7_S7_S7_EEELm2EEC2IS7_EENS0_21FlatTupleConstructTagEOT_, symObjAddr: 0x64BFC, symBinAddr: 0x100066224, symSize: 0x70 }
  - { offset: 0x6A138, size: 0x8, addend: 0x0, symName: __ZN7testing8internal17FlatTupleElemBaseINS0_9FlatTupleIJNSt3__15tupleIJPKcS6_EEES7_S7_S7_EEELm3EEC2IS7_EENS0_21FlatTupleConstructTagEOT_, symObjAddr: 0x64C6C, symBinAddr: 0x100066294, symSize: 0x70 }
  - { offset: 0x6A185, size: 0x8, addend: 0x0, symName: __ZNSt3__15tupleIJPKcS2_EEC1B8ne210108INS_4_AndETnNS_9enable_ifIXsrT_IJNS_17integral_constantIbLb1EEENS_21is_copy_constructibleIS2_EESB_EE5valueEiE4typeELi0EEERKS2_SG_, symObjAddr: 0x64CDC, symBinAddr: 0x100066304, symSize: 0x74 }
  - { offset: 0x6A1DE, size: 0x8, addend: 0x0, symName: __ZNSt3__15tupleIJPKcS2_EEC2B8ne210108INS_4_AndETnNS_9enable_ifIXsrT_IJNS_17integral_constantIbLb1EEENS_21is_copy_constructibleIS2_EESB_EE5valueEiE4typeELi0EEERKS2_SG_, symObjAddr: 0x64D50, symBinAddr: 0x100066378, symSize: 0xE4 }
  - { offset: 0x6A237, size: 0x8, addend: 0x0, symName: __ZNSt3__112__tuple_implINS_15__tuple_indicesIJLm0ELm1EEEEJPKcS4_EEC1B8ne210108IJLm0ELm1EEJS4_S4_ETpTnmJEJEJRKS4_S8_EEENS1_IJXspT_EEEENS_13__tuple_typesIJDpT0_EEENS1_IJXspT1_EEEENSA_IJDpT2_EEEDpOT3_, symObjAddr: 0x64E34, symBinAddr: 0x10006645C, symSize: 0x74 }
  - { offset: 0x6A2E9, size: 0x8, addend: 0x0, symName: __ZNSt3__112__tuple_implINS_15__tuple_indicesIJLm0ELm1EEEEJPKcS4_EEC2B8ne210108IJLm0ELm1EEJS4_S4_ETpTnmJEJEJRKS4_S8_EEENS1_IJXspT_EEEENS_13__tuple_typesIJDpT0_EEENS1_IJXspT1_EEEENSA_IJDpT2_EEEDpOT3_, symObjAddr: 0x64EA8, symBinAddr: 0x1000664D0, symSize: 0x168 }
  - { offset: 0x6A39B, size: 0x8, addend: 0x0, symName: __ZNSt3__112__tuple_leafILm0EPKcLb0EEC2B8ne210108IRKS2_TnNS_9enable_ifIXsr4_AndINS_17integral_constantIbXntu9__is_sameu14__remove_cvrefIT_ES3_EEEENS_16is_constructibleIS2_JS9_EEEEE5valueEiE4typeELi0EEEOS9_, symObjAddr: 0x65010, symBinAddr: 0x100066638, symSize: 0x124 }
  - { offset: 0x6A3E4, size: 0x8, addend: 0x0, symName: __ZNSt3__112__tuple_leafILm1EPKcLb0EEC2B8ne210108IRKS2_TnNS_9enable_ifIXsr4_AndINS_17integral_constantIbXntu9__is_sameu14__remove_cvrefIT_ES3_EEEENS_16is_constructibleIS2_JS9_EEEEE5valueEiE4typeELi0EEEOS9_, symObjAddr: 0x65134, symBinAddr: 0x10006675C, symSize: 0x124 }
  - { offset: 0x6A42D, size: 0x8, addend: 0x0, symName: __ZNK7testing8internal10ValueArrayIJNSt3__15tupleIJPKcS5_EEES6_S6_S6_EE10MakeVectorINS3_IJNS2_12basic_stringIcNS2_11char_traitsIcEENS2_9allocatorIcEEEESE_EEEJLm0ELm1ELm2ELm3EEEENS2_6vectorIT_NSC_ISH_EEEENS2_16integer_sequenceImJXspT0_EEEE, symObjAddr: 0x652FC, symBinAddr: 0x100066924, symSize: 0x7EC }
  - { offset: 0x6A487, size: 0x8, addend: 0x0, symName: __ZNSt3__16vectorINS_5tupleIJNS_12basic_stringIcNS_11char_traitsIcEENS_9allocatorIcEEEES7_EEENS5_IS8_EEED1B8ne210108Ev, symObjAddr: 0x65AE8, symBinAddr: 0x100067110, symSize: 0x64 }
  - { offset: 0x6A4B5, size: 0x8, addend: 0x0, symName: __ZNKSt3__16vectorINS_5tupleIJNS_12basic_stringIcNS_11char_traitsIcEENS_9allocatorIcEEEES7_EEENS5_IS8_EEE5beginB8ne210108Ev, symObjAddr: 0x65C8C, symBinAddr: 0x1000672B4, symSize: 0xB4 }
  - { offset: 0x6A4DB, size: 0x8, addend: 0x0, symName: __ZNKSt3__16vectorINS_5tupleIJNS_12basic_stringIcNS_11char_traitsIcEENS_9allocatorIcEEEES7_EEENS5_IS8_EEE3endB8ne210108Ev, symObjAddr: 0x65D40, symBinAddr: 0x100067368, symSize: 0xB8 }
  - { offset: 0x6A501, size: 0x8, addend: 0x0, symName: __ZN7testing8internal30ValuesInIteratorRangeGeneratorINSt3__15tupleIJNS2_12basic_stringIcNS2_11char_traitsIcEENS2_9allocatorIcEEEES9_EEEEC1INS2_11__wrap_iterIPKSA_EEEET_SH_, symObjAddr: 0x65DF8, symBinAddr: 0x100067420, symSize: 0x74 }
  - { offset: 0x6A552, size: 0x8, addend: 0x0, symName: __ZN7testing8internal14ParamGeneratorINSt3__15tupleIJNS2_12basic_stringIcNS2_11char_traitsIcEENS2_9allocatorIcEEEES9_EEEEC1EPNS0_23ParamGeneratorInterfaceISA_EE, symObjAddr: 0x65E6C, symBinAddr: 0x100067494, symSize: 0x6C }
  - { offset: 0x6A58A, size: 0x8, addend: 0x0, symName: __ZN7testing8internal30ValuesInIteratorRangeGeneratorINSt3__15tupleIJNS2_12basic_stringIcNS2_11char_traitsIcEENS2_9allocatorIcEEEES9_EEEEC2INS2_11__wrap_iterIPKSA_EEEET_SH_, symObjAddr: 0x65ED8, symBinAddr: 0x100067500, symSize: 0x164 }
  - { offset: 0x6A5DB, size: 0x8, addend: 0x0, symName: __ZN7testing8internal23ParamGeneratorInterfaceINSt3__15tupleIJNS2_12basic_stringIcNS2_11char_traitsIcEENS2_9allocatorIcEEEES9_EEEEC2Ev, symObjAddr: 0x6603C, symBinAddr: 0x100067664, symSize: 0xB4 }
  - { offset: 0x6A607, size: 0x8, addend: 0x0, symName: __ZNSt3__16vectorINS_5tupleIJNS_12basic_stringIcNS_11char_traitsIcEENS_9allocatorIcEEEES7_EEENS5_IS8_EEEC1B8ne210108INS_11__wrap_iterIPKS8_EETnNS_9enable_ifIXaasr31__has_forward_iterator_categoryIT_EE5valuesr16is_constructibleIS8_NS_15iterator_traitsISH_E9referenceEEE5valueEiE4typeELi0EEESH_SH_, symObjAddr: 0x660F0, symBinAddr: 0x100067718, symSize: 0x74 }
